
memory_manipulator.elf:     file format elf32-littlenios2
memory_manipulator.elf
architecture: nios2:r1, flags 0x00000112:
EXEC_P, HAS_SYMS, D_PAGED
start address 0x00020230

Program Header:
    LOAD off    0x00001000 vaddr 0x00020000 paddr 0x00020000 align 2**12
         filesz 0x00000020 memsz 0x00000020 flags r-x
    LOAD off    0x00001020 vaddr 0x00020020 paddr 0x00020020 align 2**12
         filesz 0x000132d8 memsz 0x000132d8 flags r-x
    LOAD off    0x000142f8 vaddr 0x000332f8 paddr 0x000335ec align 2**12
         filesz 0x000002f4 memsz 0x000002f4 flags rw-
    LOAD off    0x000148e0 vaddr 0x000338e0 paddr 0x000338e0 align 2**12
         filesz 0x00000000 memsz 0x00000188 flags rw-

Sections:
Idx Name          Size      VMA       LMA       File off  Algn
  0 .entry        00000020  00020000  00020000  00001000  2**5
                  CONTENTS, ALLOC, LOAD, READONLY, CODE
  1 .exceptions   00000210  00020020  00020020  00001020  2**2
                  CONTENTS, ALLOC, LOAD, READONLY, CODE
  2 .text         00011c14  00020230  00020230  00001230  2**2
                  CONTENTS, ALLOC, LOAD, READONLY, CODE
  3 .rodata       000014b4  00031e44  00031e44  00012e44  2**2
                  CONTENTS, ALLOC, LOAD, READONLY, DATA
  4 .rwdata       000002f4  000332f8  000335ec  000142f8  2**2
                  CONTENTS, ALLOC, LOAD, DATA, SMALL_DATA
  5 .bss          00000188  000338e0  000338e0  000148e0  2**2
                  ALLOC, SMALL_DATA
  6 .onchip_memory 00000000  00033a68  00033a68  000145ec  2**0
                  CONTENTS
  7 .comment      00000023  00000000  00000000  000145ec  2**0
                  CONTENTS, READONLY
  8 .debug_aranges 00000e20  00000000  00000000  00014610  2**3
                  CONTENTS, READONLY, DEBUGGING
  9 .debug_info   00018197  00000000  00000000  00015430  2**0
                  CONTENTS, READONLY, DEBUGGING
 10 .debug_abbrev 00007a28  00000000  00000000  0002d5c7  2**0
                  CONTENTS, READONLY, DEBUGGING
 11 .debug_line   0000a49d  00000000  00000000  00034fef  2**0
                  CONTENTS, READONLY, DEBUGGING
 12 .debug_frame  00002a98  00000000  00000000  0003f48c  2**2
                  CONTENTS, READONLY, DEBUGGING
 13 .debug_str    00004884  00000000  00000000  00041f24  2**0
                  CONTENTS, READONLY, DEBUGGING
 14 .debug_loc    0000b276  00000000  00000000  000467a8  2**0
                  CONTENTS, READONLY, DEBUGGING
 15 .debug_alt_sim_info 00000040  00000000  00000000  00051a20  2**2
                  CONTENTS, READONLY, DEBUGGING
 16 .debug_ranges 000010f8  00000000  00000000  00051a60  2**3
                  CONTENTS, READONLY, DEBUGGING
 17 .thread_model 00000003  00000000  00000000  000562de  2**0
                  CONTENTS, READONLY
 18 .cpu          00000003  00000000  00000000  000562e1  2**0
                  CONTENTS, READONLY
 19 .qsys         00000001  00000000  00000000  000562e4  2**0
                  CONTENTS, READONLY
 20 .simulation_enabled 00000001  00000000  00000000  000562e5  2**0
                  CONTENTS, READONLY
 21 .stderr_dev   00000009  00000000  00000000  000562e6  2**0
                  CONTENTS, READONLY
 22 .stdin_dev    00000009  00000000  00000000  000562ef  2**0
                  CONTENTS, READONLY
 23 .stdout_dev   00000009  00000000  00000000  000562f8  2**0
                  CONTENTS, READONLY
 24 .sopc_system_name 0000000e  00000000  00000000  00056301  2**0
                  CONTENTS, READONLY
 25 .quartus_project_dir 00000036  00000000  00000000  0005630f  2**0
                  CONTENTS, READONLY
 26 .jdi          00008982  00000000  00000000  00056345  2**0
                  CONTENTS, READONLY
 27 .sopcinfo     000a1f33  00000000  00000000  0005ecc7  2**0
                  CONTENTS, READONLY
SYMBOL TABLE:
00020000 l    d  .entry	00000000 .entry
00020020 l    d  .exceptions	00000000 .exceptions
00020230 l    d  .text	00000000 .text
00031e44 l    d  .rodata	00000000 .rodata
000332f8 l    d  .rwdata	00000000 .rwdata
000338e0 l    d  .bss	00000000 .bss
00033a68 l    d  .onchip_memory	00000000 .onchip_memory
00000000 l    d  .comment	00000000 .comment
00000000 l    d  .debug_aranges	00000000 .debug_aranges
00000000 l    d  .debug_info	00000000 .debug_info
00000000 l    d  .debug_abbrev	00000000 .debug_abbrev
00000000 l    d  .debug_line	00000000 .debug_line
00000000 l    d  .debug_frame	00000000 .debug_frame
00000000 l    d  .debug_str	00000000 .debug_str
00000000 l    d  .debug_loc	00000000 .debug_loc
00000000 l    d  .debug_alt_sim_info	00000000 .debug_alt_sim_info
00000000 l    d  .debug_ranges	00000000 .debug_ranges
00000000 l    df *ABS*	00000000 ../memory_manipulator_bsp//obj/HAL/src/crt0.o
00020268 l       .text	00000000 alt_after_alt_main
00000000 l    df *ABS*	00000000 alt_irq_handler.c
00000000 l    df *ABS*	00000000 alt_instruction_exception_entry.c
00000000 l    df *ABS*	00000000 sd_if.c
00000000 l    df *ABS*	00000000 FatFileSystem.c
00000000 l    df *ABS*	00000000 FatInternal.c
00000000 l    df *ABS*	00000000 crc16.c
00031f6e l     O .rodata	00000200 crc16tab
00000000 l    df *ABS*	00000000 crc7.c
0003216e l     O .rodata	00000100 crc7_syndrome_table
00000000 l    df *ABS*	00000000 sd_hal.c
00000000 l    df *ABS*	00000000 sd_lib.c
00033930 l     O .bss	00000038 gSdInfo
00000000 l    df *ABS*	00000000 sd_protocol.c
00000000 l    df *ABS*	00000000 test_sd.c
00000000 l    df *ABS*	00000000 file_format_aux.c
00000000 l    df *ABS*	00000000 formats.c
00000000 l    df *ABS*	00000000 main.c
00000000 l    df *ABS*	00000000 dma_hal.c
00000000 l    df *ABS*	00000000 per_hal.c
00000000 l    df *ABS*	00000000 debug.c
00000000 l    df *ABS*	00000000 s_ceil.c
00000000 l    df *ABS*	00000000 w_log10.c
00000000 l    df *ABS*	00000000 e_log10.c
00000000 l    df *ABS*	00000000 s_fpclassify.c
00000000 l    df *ABS*	00000000 s_lib_ver.c
00000000 l    df *ABS*	00000000 s_matherr.c
00000000 l    df *ABS*	00000000 s_nan.c
00000000 l    df *ABS*	00000000 e_log.c
00000000 l    df *ABS*	00000000 lib2-divmod.c
00000000 l    df *ABS*	00000000 lib2-mul.c
00000000 l    df *ABS*	00000000 divsf3.c
00000000 l    df *ABS*	00000000 mulsf3.c
00000000 l    df *ABS*	00000000 floatunsisf.c
00000000 l    df *ABS*	00000000 adddf3.c
00000000 l    df *ABS*	00000000 divdf3.c
00000000 l    df *ABS*	00000000 eqdf2.c
00000000 l    df *ABS*	00000000 gedf2.c
00000000 l    df *ABS*	00000000 ledf2.c
00000000 l    df *ABS*	00000000 muldf3.c
00000000 l    df *ABS*	00000000 subdf3.c
00000000 l    df *ABS*	00000000 fixdfsi.c
00000000 l    df *ABS*	00000000 floatsidf.c
00000000 l    df *ABS*	00000000 extendsfdf2.c
00000000 l    df *ABS*	00000000 truncdfsf2.c
00000000 l    df *ABS*	00000000 libgcc2.c
00000000 l    df *ABS*	00000000 libgcc2.c
00000000 l    df *ABS*	00000000 errno.c
00000000 l    df *ABS*	00000000 impure.c
000332f8 l     O .rwdata	000000e0 impure_data
00000000 l    df *ABS*	00000000 malloc.c
00000000 l    df *ABS*	00000000 memcpy.c
00000000 l    df *ABS*	00000000 memset.c
00000000 l    df *ABS*	00000000 nano-mallocr.c
00000000 l    df *ABS*	00000000 nano-mallocr.c
00000000 l    df *ABS*	00000000 printf.c
00000000 l    df *ABS*	00000000 putchar.c
00000000 l    df *ABS*	00000000 puts.c
00000000 l    df *ABS*	00000000 realloc.c
00000000 l    df *ABS*	00000000 sbrkr.c
00000000 l    df *ABS*	00000000 snprintf.c
00000000 l    df *ABS*	00000000 sprintf.c
00000000 l    df *ABS*	00000000 strcasecmp.c
00000000 l    df *ABS*	00000000 strlen.c
00000000 l    df *ABS*	00000000 strncat.c
00000000 l    df *ABS*	00000000 strncmp.c
00000000 l    df *ABS*	00000000 strncpy.c
00000000 l    df *ABS*	00000000 vfprintf.c
0002f544 l     F .text	0000006c print_repeat
00000000 l    df *ABS*	00000000 tolower.c
00000000 l    df *ABS*	00000000 vfprintf.c
0002fb28 l     F .text	0000006c print_repeat
00000000 l    df *ABS*	00000000 vsnprintf.c
00000000 l    df *ABS*	00000000 ctype_.c
00033149 l     O .rodata	00000180 _ctype_b
00000000 l    df *ABS*	00000000 fvwrite_small_dev.c
00000000 l    df *ABS*	00000000 fvwrite_small_str.c
00000000 l    df *ABS*	00000000 int_errno.c
00000000 l    df *ABS*	00000000 memmove.c
00000000 l    df *ABS*	00000000 nano-mallocr.c
00000000 l    df *ABS*	00000000 putc.c
00000000 l    df *ABS*	00000000 writer.c
00000000 l    df *ABS*	00000000 nano-mallocr.c
00000000 l    df *ABS*	00000000 alt_load.c
00030550 l     F .text	00000068 alt_load_section
00000000 l    df *ABS*	00000000 alt_main.c
00000000 l    df *ABS*	00000000 alt_sbrk.c
000335c4 l     O .rwdata	00000004 heap_end
00000000 l    df *ABS*	00000000 alt_tick.c
00000000 l    df *ABS*	00000000 alt_usleep.c
00000000 l    df *ABS*	00000000 alt_write.c
0003092c l     F .text	0000003c alt_get_errno
00000000 l    df *ABS*	00000000 alt_sys_init.c
00030a68 l     F .text	00000034 alt_dev_reg
000333d8 l     O .rwdata	0000002c jtag_uart
00000000 l    df *ABS*	00000000 altera_avalon_jtag_uart_fd.c
00000000 l    df *ABS*	00000000 altera_avalon_jtag_uart_read.c
00000000 l    df *ABS*	00000000 altera_avalon_jtag_uart_write.c
00000000 l    df *ABS*	00000000 altera_avalon_timer_sc.c
00030d60 l     F .text	00000078 alt_avalon_timer_sc_irq
00000000 l    df *ABS*	00000000 alt_busy_sleep.c
00000000 l    df *ABS*	00000000 alt_close.c
00030fac l     F .text	0000003c alt_get_errno
00000000 l    df *ABS*	00000000 alt_dcache_flush_all.c
00000000 l    df *ABS*	00000000 alt_dev.c
000310e0 l     F .text	0000002c alt_dev_null_write
00000000 l    df *ABS*	00000000 alt_dev_llist_insert.c
0003110c l     F .text	0000003c alt_get_errno
00000000 l    df *ABS*	00000000 alt_errno.c
00000000 l    df *ABS*	00000000 alt_icache_flush_all.c
00000000 l    df *ABS*	00000000 alt_iic.c
00000000 l    df *ABS*	00000000 alt_iic_isr_register.c
00000000 l    df *ABS*	00000000 alt_io_redirect.c
000314ac l     F .text	000000e4 alt_open_fd
00000000 l    df *ABS*	00000000 alt_irq_vars.c
00000000 l    df *ABS*	00000000 alt_open.c
0003160c l     F .text	0000003c alt_get_errno
00031648 l     F .text	000000ec alt_file_locked
00000000 l    df *ABS*	00000000 alt_release_fd.c
00000000 l    df *ABS*	00000000 altera_nios2_gen2_irq.c
00000000 l    df *ABS*	00000000 alt_find_dev.c
00000000 l    df *ABS*	00000000 alt_find_file.c
00000000 l    df *ABS*	00000000 alt_get_fd.c
00000000 l    df *ABS*	00000000 exit.c
00000000 l    df *ABS*	00000000 memcmp.c
00000000 l    df *ABS*	00000000 __call_atexit.c
00000000 l    df *ABS*	00000000 alt_exit.c
0003392c g     O .bss	00000004 alt_instruction_exception_handler
00030534 g     F .text	0000001c _malloc_usable_size_r
0002f060 g     F .text	0000001c putchar
00029424 g     F .text	00000478 load_page
0003063c g     F .text	0000006c alt_main
0002f07c g     F .text	00000080 _puts_r
00020e38 g     F .text	0000006c Fat_FileBrowseBegin
00033968 g     O .bss	00000100 alt_irq
0002a7cc g     F .text	00000030 is_read
000335ec g       *ABS*	00000000 __flash_rwdata_start
0002a788 g     F .text	00000044 get_game_num
00020cf4 g     F .text	00000034 close_file
0002d4dc g     F .text	00000088 .hidden __eqdf2
000241f4 g     F .text	00000080 SDLIB_WriteBlock512
00033a68 g       *ABS*	00000000 __alt_heap_start
0002f00c g     F .text	0000004c printf
00025684 g     F .text	000001a8 SD_CMD24
00020ea4 g     F .text	0000042c Fat_FileBrowseNext
0002b900 g     F .text	00000440 .hidden __divsf3
0002339c g     F .text	0000002c SDHAL_IsSupport4Bits
000232dc g     F .text	00000050 crc7_byte
000227bc g     F .text	000000ac fatIsValidDir
0003032c g     F .text	00000060 memmove
00027250 g     F .text	000000f4 load_file
0002f228 g     F .text	000000b8 snprintf
0002026c g     F .text	00000030 init_SD
0002d564 g     F .text	000000dc .hidden __gtdf2
00031914 g     F .text	00000024 altera_nios2_gen2_irq_init
0002ed14 g     F .text	00000010 __errno
00030284 g     F .text	000000a8 __sfvwrite_small_str
00020000 g     F .entry	0000000c __reset
00025c14 g     F .text	000000bc SD_Test
0002aa34 g     F .text	000001e0 ceil
00023530 g     F .text	00000214 SDHAL_GetResponse
00020020 g       *ABS*	00000000 __flash_exceptions_start
00033910 g     O .bss	00000004 errno
00022178 g     F .text	00000190 fatNextCluster
00033918 g     O .bss	00000004 alt_argv
0003b5ac g       *ABS*	00000000 _gp
000308fc g     F .text	00000030 usleep
00028f5c g     F .text	000000e8 my_list_test
0003342c g     O .rwdata	00000180 alt_fd_list
00028078 g     F .text	000002a0 load_compressed_data_block_z80
0002a158 g     F .text	000000d0 read_io
0002f058 g     F .text	00000008 _putchar_r
00031938 g     F .text	00000090 alt_find_dev
0002ed4c g     F .text	00000028 memcpy
0002e91c g     F .text	000000dc .hidden __floatsidf
00031590 g     F .text	0000007c alt_io_redirect
0002d640 g     F .text	000000f4 .hidden __ltdf2
00021608 g     F .text	000000b0 Fat_FileExist
0002f0fc g     F .text	00000014 puts
00031b94 g     F .text	0000009c alt_exception_cause_generated_bad_addr
00027c50 g     F .text	00000094 get_version_z80
000326ec g     O .rodata	00000492 menu_code
0002af80 g     F .text	00000074 __fpclassifyd
000247fc g     F .text	00000198 SD_CMD2
0002faf8 g     F .text	00000030 tolower
00030be0 g     F .text	000000ec altera_avalon_jtag_uart_read
0002ed24 g     F .text	00000014 malloc
0002efd0 g     F .text	0000003c _printf_r
0002b81c g     F .text	00000064 .hidden __udivsi3
00020b7c g     F .text	00000140 print_filenames
0002535c g     F .text	00000180 SD_ACMD42
00030198 g     F .text	00000034 vsnprintf
0002a228 g     F .text	000000e8 write_io
00020758 g     F .text	000000f0 num_of_pages
00025de8 g     F .text	000003f4 generate_full_stack_addition
00024eb0 g     F .text	00000180 SD_CMD7
00029e4c g     F .text	000000d0 read_mem
0002f128 g     F .text	00000050 _sbrk_r
00025030 g     F .text	000001a0 SD_CMD16
000258ac g     F .text	00000074 ArrayToU32
0002a0c4 g     F .text	00000094 write_buf_mem
0002adb0 g     F .text	000001d0 __ieee754_log10
000335e0 g     O .rwdata	00000004 alt_max_fd
00025cd0 g     F .text	0000005c conv_data_8_16
00022d30 g     F .text	0000039c fatMount
0002e9f8 g     F .text	00000110 .hidden __extendsfdf2
0002c260 g     F .text	000008ac .hidden __adddf3
00022868 g     F .text	00000048 fatIsUnusedDir
0002989c g     F .text	0000029c load_game
00027344 g     F .text	000001a0 generate_regs_SNA
000335b4 g     O .rwdata	00000004 __fdlib_version
000335b8 g     O .rwdata	00000004 _global_impure_ptr
0003038c g     F .text	000000a4 _realloc_r
00033a68 g       *ABS*	00000000 __bss_end
000313bc g     F .text	000000f0 alt_iic_isr_register
000307f4 g     F .text	00000108 alt_tick
000338ec g     O .bss	00000004 curr_game_idx
000230cc g     F .text	0000003c SD_ReadBlock512
0002a720 g     F .text	00000068 get_page_num
00031370 g     F .text	0000004c alt_ic_irq_enabled
000216b8 g     F .text	0000012c Fat_FileOpen
000338e0 g     O .bss	00000004 state
00030758 g     F .text	0000009c alt_alarm_stop
00033900 g     O .bss	00000001 ctrl_bus_state
00033928 g     O .bss	00000004 alt_irq_active
000224a0 g     F .text	00000218 fatDelClusterList
00027dec g     F .text	00000098 get_data_offset
000200fc g     F .exceptions	000000d4 alt_irq_handler
00033404 g     O .rwdata	00000028 alt_dev_null
00023438 g     F .text	000000f8 SDHAL_SendCmd
000310c0 g     F .text	00000020 alt_dcache_flush_all
00023744 g     F .text	000004d0 SDHAL_ReadData
0002e89c g     F .text	00000080 .hidden __fixdfsi
00027d8c g     F .text	00000060 get_addr_from_page
000335ec g       *ABS*	00000000 __ram_rwdata_end
00020000 g       *ABS*	00000000 __alt_mem_onchip_memory
000335d8 g     O .rwdata	00000008 alt_dev_list
0002a530 g     F .text	0000006c DMA_print_err
00020d28 g     F .text	00000044 Fat_Mount
00030968 g     F .text	00000100 write
00030484 g     F .text	00000058 _putc_r
00029044 g     F .text	000003e0 save_state
000332f8 g       *ABS*	00000000 __ram_rodata_end
0002d640 g     F .text	000000f4 .hidden __ledf2
0002a8b0 g     F .text	0000006c myprintf
000338f0 g     O .bss	00000004 max_page
0002b880 g     F .text	00000058 .hidden __umodsi3
00033a68 g       *ABS*	00000000 end
000201d0 g     F .exceptions	00000060 alt_instruction_exception_entry
00038000 g       *ABS*	00000000 __alt_stack_pointer
00030dd8 g     F .text	0000007c alt_avalon_timer_sc_init
0002ecb0 g     F .text	00000064 .hidden __clzsi2
0002f178 g     F .text	000000b0 _snprintf_r
00030ccc g     F .text	00000094 altera_avalon_jtag_uart_write
00021de4 g     F .text	00000048 Fat_FileClose
000212d0 g     F .text	0000006c Fat_FileCount
00020cbc g     F .text	00000038 init_file
0002fb94 g     F .text	0000052c ___vfprintf_internal_r
000338e8 g     O .bss	00000001 xx
0002f2e0 g     F .text	00000064 _sprintf_r
0002ed94 g     F .text	000000e4 _free_r
00031c80 g     F .text	00000190 __call_exitprocs
00020230 g     F .text	0000003c _start
00033920 g     O .bss	00000004 _alt_tick_rate
00028d4c g     F .text	00000088 generate_regs_save_state
00029fb4 g     F .text	00000110 write_mem
00033924 g     O .bss	00000004 _alt_nticks
000242c8 g     F .text	0000008c SD_CMD0
00030ad4 g     F .text	0000004c alt_sys_init
00027d48 g     F .text	00000044 is_compressed
0002f490 g     F .text	00000060 strncmp
00023df4 g     F .text	00000064 SDHAL_DummyClock
000217e4 g     F .text	00000044 Fat_FileSize
000338f4 g     O .bss	00000004 curr_game_filename
00023238 g     F .text	000000a4 crc16
00024274 g     F .text	0000002c SD_Init
0002b8d8 g     F .text	00000028 .hidden __mulsi3
000332f8 g       *ABS*	00000000 __ram_rwdata_start
00031e44 g       *ABS*	00000000 __ram_rodata_start
0002f4f0 g     F .text	00000054 strncpy
0002f3bc g     F .text	00000058 strcasecmp
0002ac14 g     F .text	0000019c log10
0002f110 g     F .text	00000018 realloc
00030b20 g     F .text	00000060 altera_avalon_jtag_uart_read_fd
00031ad0 g     F .text	000000c4 alt_get_fd
00029da8 g     F .text	000000a4 DMA_request
00030e54 g     F .text	00000158 alt_busy_sleep
0002a4a0 g     F .text	00000090 DMA_stop_w_interrupt
00021828 g     F .text	000004bc Fat_FileRead
00031c50 g     F .text	00000030 memcmp
00033904 g     O .bss	00000004 DMA_state
00033a68 g       *ABS*	00000000 __alt_stack_base
00022c20 g     F .text	00000110 fatFindUnusedDirectory
000233c8 g     F .text	00000070 SDHAL_Init
0002cb0c g     F .text	000009d0 .hidden __divdf3
0002f430 g     F .text	00000060 strncat
000300dc g     F .text	000000bc _vsnprintf_r
0002d734 g     F .text	0000086c .hidden __muldf3
00021e2c g     F .text	000001d0 Fat_SpeedTest
0002a59c g     F .text	00000094 listen_for_en
00028e70 g     F .text	000000ec inject_menu
000319c8 g     F .text	00000108 alt_find_file
00031148 g     F .text	000000a4 alt_dev_llist_insert
000306a8 g     F .text	000000b0 sbrk
0002f5b0 g     F .text	0000052c ___svfprintf_internal_r
000301cc g     F .text	000000b8 __sfvwrite_small_dev
00022b74 g     F .text	000000ac fatFindDirectory
000338e0 g       *ABS*	00000000 __bss_start
0002ed74 g     F .text	00000020 memset
00029b38 g     F .text	00000210 main
00022ae4 g     F .text	00000090 fatReadSecter
0003391c g     O .bss	00000004 alt_envp
0002a91c g     F .text	00000088 myprintf_hexarray
00030b80 g     F .text	00000060 altera_avalon_jtag_uart_write_fd
0002aff4 g     F .text	00000008 matherr
000228b0 g     F .text	000001ac fatDump
00038000 g       *ABS*	00000000 __alt_heap_limit
0002eb08 g     F .text	000001a8 .hidden __truncdfsf2
0002ee78 g     F .text	00000158 _malloc_r
00025da8 g     F .text	00000020 get_LOAD_routine_size
0002586c g     F .text	00000040 SD_WriteData
000335e4 g     O .rwdata	00000004 alt_errno
00026bb4 g     F .text	0000069c generate_SAVE_routine
000226b8 g     F .text	00000060 fatDumpDate
0002332c g     F .text	00000070 crc7
00030430 g     F .text	00000054 putc
00021ce4 g     F .text	00000100 Fat_FileSeek
0002b724 g     F .text	00000084 .hidden __divsi3
000251d0 g     F .text	0000018c SD_ACMD6
000274e4 g     F .text	000004e8 load_SNA
0002bd40 g     F .text	00000430 .hidden __mulsf3
000203bc g     F .text	0000015c format_file_name
00023108 g     F .text	0000003c SD_WriteBlock512
00031e44 g       *ABS*	00000000 __flash_rodata_start
00022a5c g     F .text	00000088 fatArray2Value
000242a0 g     F .text	00000028 SD_IsSupport4Bits
0002a630 g     F .text	000000f0 get_if_type
0002d4dc g     F .text	00000088 .hidden __nedf2
000220ac g     F .text	000000cc fat32ClusterType
00030a9c g     F .text	00000038 alt_irq_init
00028dd4 g     F .text	0000009c string_to_num
00031890 g     F .text	00000084 alt_release_fd
0002f344 g     F .text	00000078 sprintf
00032f41 g     O .rodata	00000100 .hidden __clz_tab
0002a87c g     F .text	00000034 debug_output
00029d48 g     F .text	00000060 DMA_init
00024660 g     F .text	0000019c SD_ACMD41
000304dc g     F .text	00000058 _write_r
00024354 g     F .text	0000018c SD_CMD8
00021454 g     F .text	000001b4 fatComposeShortFilename
00029f1c g     F .text	00000098 read_buf_mem
000335bc g     O .rwdata	00000004 _impure_ptr
0002a404 g     F .text	0000009c DMA_stop
00033914 g     O .bss	00000004 alt_argc
00020dbc g     F .text	0000007c Fat_Type
0002a9a4 g     F .text	00000090 myprintf_dwordarray
0002b008 g     F .text	0000071c __ieee754_log
00020020 g       .exceptions	00000000 alt_irq_entry
00025920 g     F .text	000002f4 Fat_Test
00021ffc g     F .text	000000b0 fat16ClusterType
00025d2c g     F .text	0000003c reverse_16
000335d0 g     O .rwdata	00000008 alt_fs_list
000244e0 g     F .text	00000180 SD_CMD55
0002fadc g     F .text	0000001c __vfprintf_internal_unused
0002affc g     F .text	0000000c nan
00024cf0 g     F .text	000001c0 SD_CMD10
00020020 g       *ABS*	00000000 __ram_exceptions_start
0002133c g     F .text	00000118 fatSameLongFilename
000263a0 g     F .text	00000814 generate_LOAD_routine
0003120c g     F .text	00000050 alt_ic_isr_register
00025d68 g     F .text	00000040 conv_data_8_16_sep
000335ec g       *ABS*	00000000 _edata
00022718 g     F .text	00000060 fatDumpTime
0002a82c g     F .text	00000050 per_cmd_ack
00033a68 g       *ABS*	00000000 _end
00024b30 g     F .text	000001c0 SD_CMD9
000338e4 g     O .bss	00000004 zero_detected
00020230 g       *ABS*	00000000 __ram_exceptions_end
0002a310 g     F .text	00000094 wait_for_pc
000312e4 g     F .text	0000008c alt_ic_irq_disable
000261dc g     F .text	000001c4 generate_AF_stack_addition
00028318 g     F .text	00000a34 load_z80
000335ac g     O .rwdata	00000008 SUPPORTED_EXTENSIONS
00031c30 g     F .text	00000020 exit
00023144 g     F .text	000000f4 fatMountSdcard
0002c170 g     F .text	000000f0 .hidden __floatunsisf
00025dc8 g     F .text	00000020 get_SAVE_routine_size
0002b7a8 g     F .text	00000074 .hidden __modsi3
000335c0 g     O .rwdata	00000004 __ctype_ptr__
000279cc g     F .text	00000284 save_SNA
00038000 g       *ABS*	00000000 __alt_data_end
00020020 g     F .exceptions	00000000 alt_exception
0002029c g     F .text	00000120 is_supported_file
00023e58 g     F .text	0000031c SDLIB_Init
00033048 g     O .rodata	00000101 _ctype_
000254dc g     F .text	000001a8 SD_CMD17
00020b48 g     F .text	00000034 close_SD
00031e10 g     F .text	00000034 _exit
00027e84 g     F .text	000001f4 generate_regs_z80
0002f414 g     F .text	0000001c strlen
000338f8 g     O .bss	00000004 curr_game_filename_len
00031734 g     F .text	0000015c open
00020518 g     F .text	00000240 list_files
0002a7fc g     F .text	00000030 is_write
0002d564 g     F .text	000000dc .hidden __gedf2
00033908 g     O .bss	00000004 __malloc_sbrk_start
000311ec g     F .text	00000020 alt_icache_flush_all
000335e8 g     O .rwdata	00000004 alt_priority_mask
0003390c g     O .bss	00000004 __malloc_free_list
0003125c g     F .text	00000088 alt_ic_irq_enable
00023c14 g     F .text	000001e0 SDHAL_WriteData
000300c0 g     F .text	0000001c __vfprintf_internal
00022308 g     F .text	00000198 fatFindUnusedCluster
0002dfa0 g     F .text	000008fc .hidden __subdf3
00020848 g     F .text	00000300 list_files_of_page
000335c8 g     O .rwdata	00000008 alt_alarm_list
00027ce4 g     F .text	00000064 is_48k
0002582c g     F .text	00000040 SD_ReadData
00030fe8 g     F .text	000000d8 close
00020d6c g     F .text	00000050 Fat_Unmount
000305b8 g     F .text	00000084 alt_load
000338fc g     O .bss	00000004 curr_page
0002a3a4 g     F .text	00000060 wait_until_routine_ends
0002ed38 g     F .text	00000014 free
00022778 g     F .text	00000044 fatIsLastDir
00024994 g     F .text	0000019c SD_CMD3
00024174 g     F .text	00000080 SDLIB_ReadBlock512



Disassembly of section .entry:

00020000 <__reset>:
 * Jump to the _start entry point in the .text section if reset code
 * is allowed or if optimizing for RTL simulation.
 */
#if defined(ALT_ALLOW_CODE_AT_RESET) || defined(ALT_SIM_OPTIMIZE)
    /* Jump to the _start entry point in the .text section. */
    movhi r1, %hi(_start)
   20000:	004000b4 	movhi	at,2
    ori r1, r1, %lo(_start)
   20004:	08408c14 	ori	at,at,560
    jmp r1
   20008:	0800683a 	jmp	at
	...

Disassembly of section .exceptions:

00020020 <alt_exception>:

#else /* ALT_EXCEPTION_STACK disabled */
        /* 
         * Reserve space on normal stack for registers about to be pushed.
         */
        addi  sp, sp, -76
   20020:	deffed04 	addi	sp,sp,-76
         * documentation for details).
         *
         * Leave a gap in the stack frame at 4(sp) for the muldiv handler to
         * store zero into.
         */
        stw   ra,  0(sp)
   20024:	dfc00015 	stw	ra,0(sp)
        stw   r1,   8(sp)
   20028:	d8400215 	stw	at,8(sp)
        stw   r2,  12(sp)
   2002c:	d8800315 	stw	r2,12(sp)
        stw   r3,  16(sp)
   20030:	d8c00415 	stw	r3,16(sp)
        stw   r4,  20(sp)
   20034:	d9000515 	stw	r4,20(sp)
        stw   r5,  24(sp)
   20038:	d9400615 	stw	r5,24(sp)
        stw   r6,  28(sp)
   2003c:	d9800715 	stw	r6,28(sp)
        stw   r7,  32(sp)
   20040:	d9c00815 	stw	r7,32(sp)
        rdctl r5, estatus   /* Read early to avoid usage stall */
   20044:	000b307a 	rdctl	r5,estatus
        stw   r8,  36(sp)
   20048:	da000915 	stw	r8,36(sp)
        stw   r9,  40(sp)
   2004c:	da400a15 	stw	r9,40(sp)
        stw   r10, 44(sp)
   20050:	da800b15 	stw	r10,44(sp)
        stw   r11, 48(sp)
   20054:	dac00c15 	stw	r11,48(sp)
        stw   r12, 52(sp)
   20058:	db000d15 	stw	r12,52(sp)
        stw   r13, 56(sp)
   2005c:	db400e15 	stw	r13,56(sp)
        stw   r14, 60(sp)
   20060:	db800f15 	stw	r14,60(sp)
        stw   r15, 64(sp)
   20064:	dbc01015 	stw	r15,64(sp)
        /*
         * ea-4 contains the address of the instruction being executed
         * when the exception occured. For interrupt exceptions, we will
         * will be re-issue the isntruction. Store it in 72(sp)
         */
        stw   r5,  68(sp)  /* estatus */
   20068:	d9401115 	stw	r5,68(sp)
        addi  r15, ea, -4  /* instruction that caused exception */
   2006c:	ebffff04 	addi	r15,ea,-4
        stw   r15,  72(sp)
   20070:	dbc01215 	stw	r15,72(sp)
#else
        /*
         * Test to see if the exception was a software exception or caused 
         * by an external interrupt, and vector accordingly.
         */
        rdctl r4, ipending
   20074:	0009313a 	rdctl	r4,ipending
        andi  r2, r5, 1
   20078:	2880004c 	andi	r2,r5,1
        beq   r2, zero, .Lnot_irq
   2007c:	10000326 	beq	r2,zero,2008c <alt_exception+0x6c>
        beq   r4, zero, .Lnot_irq
   20080:	20000226 	beq	r4,zero,2008c <alt_exception+0x6c>
        /*
         * Now that all necessary registers have been preserved, call 
         * alt_irq_handler() to process the interrupts.
         */

        call alt_irq_handler
   20084:	00200fc0 	call	200fc <alt_irq_handler>

        .section .exceptions.irqreturn, "xa"

        br    .Lexception_exit
   20088:	00000706 	br	200a8 <alt_exception+0x88>
         * upon completion, so we write ea (address of instruction *after*
         * the one where the exception occured) into 72(sp). The actual
         * instruction that caused the exception is written in r2, which these
         * handlers will utilize.
         */
        stw ea, 72(sp) /* EA is PC+4 so will skip over instruction causing exception */
   2008c:	df401215 	stw	ea,72(sp)
.Lunknown_16bit:
        addi.n r4, r4, 2 /* Need PC+2 to skip over instruction causing exception */
        stw r4, 72(sp)

#else /* CDX is not Enabled and all instructions are 32bits */
        ldw r2, -4(ea) /* Instruction value that caused exception */
   20090:	e8bfff17 	ldw	r2,-4(ea)
         * debugger is present) or go into an infinite loop since the
         * handling behavior is undefined; in that case we will not return here.
         */

        /* Load exception-causing address as first argument (r4) */
        addi   r4, ea, -4
   20094:	e93fff04 	addi	r4,ea,-4

        /* Call the instruction-exception entry */
        call   alt_instruction_exception_entry
   20098:	00201d00 	call	201d0 <alt_instruction_exception_entry>
         * instruction
         *
         * Return code was 0: Skip. The instruction after the exception is
         * already stored in 72(sp).
         */
        bne   r2, r0, .Lexception_exit
   2009c:	1000021e 	bne	r2,zero,200a8 <alt_exception+0x88>

        /*
         * Otherwise, modify 72(sp) to re-issue the instruction that caused the
         * exception.
         */
        addi  r15, ea, -4  /* instruction that caused exception */
   200a0:	ebffff04 	addi	r15,ea,-4
        stw   r15,  72(sp)
   200a4:	dbc01215 	stw	r15,72(sp)
        /* 
         * Restore the saved registers, so that all general purpose registers 
         * have been restored to their state at the time the interrupt occured.
         */

        ldw   r5,  68(sp)
   200a8:	d9401117 	ldw	r5,68(sp)
        ldw   ea,  72(sp)  /* This becomes the PC once eret is executed */
   200ac:	df401217 	ldw	ea,72(sp)
        ldw   ra,   0(sp)
   200b0:	dfc00017 	ldw	ra,0(sp)

        wrctl estatus, r5
   200b4:	2801707a 	wrctl	estatus,r5

        ldw   r1,   8(sp)
   200b8:	d8400217 	ldw	at,8(sp)
        ldw   r2,  12(sp)
   200bc:	d8800317 	ldw	r2,12(sp)
        ldw   r3,  16(sp)
   200c0:	d8c00417 	ldw	r3,16(sp)
        ldw   r4,  20(sp)
   200c4:	d9000517 	ldw	r4,20(sp)
        ldw   r5,  24(sp)
   200c8:	d9400617 	ldw	r5,24(sp)
        ldw   r6,  28(sp)
   200cc:	d9800717 	ldw	r6,28(sp)
        ldw   r7,  32(sp)
   200d0:	d9c00817 	ldw	r7,32(sp)

#if defined(ALT_EXCEPTION_STACK) && defined(ALT_STACK_CHECK)
        ldw   et, %gprel(alt_exception_old_stack_limit)(gp)
#endif

        ldw   r8,  36(sp)
   200d4:	da000917 	ldw	r8,36(sp)
        ldw   r9,  40(sp)
   200d8:	da400a17 	ldw	r9,40(sp)
        ldw   r10, 44(sp)
   200dc:	da800b17 	ldw	r10,44(sp)
        ldw   r11, 48(sp)
   200e0:	dac00c17 	ldw	r11,48(sp)
        ldw   r12, 52(sp)
   200e4:	db000d17 	ldw	r12,52(sp)
        ldw   r13, 56(sp)
   200e8:	db400e17 	ldw	r13,56(sp)
        ldw   r14, 60(sp)
   200ec:	db800f17 	ldw	r14,60(sp)
        ldw   r15, 64(sp)
   200f0:	dbc01017 	ldw	r15,64(sp)
        stw   et, %gprel(alt_stack_limit_value)(gp)
        stw   zero, %gprel(alt_exception_old_stack_limit)(gp)
#endif /* ALT_STACK_CHECK */
        ldw   sp,  76(sp)
#else /* ALT_EXCEPTION_STACK disabled */
        addi  sp, sp, 76
   200f4:	dec01304 	addi	sp,sp,76

        /*
         * Return to the interrupted instruction.
         */

        eret
   200f8:	ef80083a 	eret

000200fc <alt_irq_handler>:
 * instruction is present if the macro ALT_CI_INTERRUPT_VECTOR defined.
 */

void alt_irq_handler (void) __attribute__ ((section (".exceptions")));
void alt_irq_handler (void)
{
   200fc:	defff904 	addi	sp,sp,-28
   20100:	dfc00615 	stw	ra,24(sp)
   20104:	df000515 	stw	fp,20(sp)
   20108:	df000504 	addi	fp,sp,20
  
  /*
   * Notify the operating system that we are at interrupt level.
   */ 
  
  ALT_OS_INT_ENTER();
   2010c:	0001883a 	nop
#ifndef NIOS2_EIC_PRESENT
static ALT_INLINE alt_u32 ALT_ALWAYS_INLINE alt_irq_pending (void)
{
  alt_u32 active;

  NIOS2_READ_IPENDING (active);
   20110:	0005313a 	rdctl	r2,ipending
   20114:	e0bffe15 	stw	r2,-8(fp)

  return active;
   20118:	e0bffe17 	ldw	r2,-8(fp)
   * Consider the case where the high priority interupt is asserted during
   * the interrupt entry sequence for a lower priority interrupt to see why
   * this is the case.
   */

  active = alt_irq_pending ();
   2011c:	e0bffb15 	stw	r2,-20(fp)

  do
  {
    i = 0;
   20120:	e03ffd15 	stw	zero,-12(fp)
    mask = 1;
   20124:	00800044 	movi	r2,1
   20128:	e0bffc15 	stw	r2,-16(fp)
     * called to clear the interrupt condition.
     */

    do
    {
      if (active & mask)
   2012c:	e0fffb17 	ldw	r3,-20(fp)
   20130:	e0bffc17 	ldw	r2,-16(fp)
   20134:	1884703a 	and	r2,r3,r2
   20138:	10001426 	beq	r2,zero,2018c <alt_irq_handler+0x90>
      { 
#ifdef ALT_ENHANCED_INTERRUPT_API_PRESENT
        alt_irq[i].handler(alt_irq[i].context); 
   2013c:	008000f4 	movhi	r2,3
   20140:	108e5a04 	addi	r2,r2,14696
   20144:	e0fffd17 	ldw	r3,-12(fp)
   20148:	180690fa 	slli	r3,r3,3
   2014c:	10c5883a 	add	r2,r2,r3
   20150:	10c00017 	ldw	r3,0(r2)
   20154:	008000f4 	movhi	r2,3
   20158:	108e5a04 	addi	r2,r2,14696
   2015c:	e13ffd17 	ldw	r4,-12(fp)
   20160:	200890fa 	slli	r4,r4,3
   20164:	1105883a 	add	r2,r2,r4
   20168:	10800104 	addi	r2,r2,4
   2016c:	10800017 	ldw	r2,0(r2)
   20170:	1009883a 	mov	r4,r2
   20174:	183ee83a 	callr	r3
#else
        alt_irq[i].handler(alt_irq[i].context, i); 
#endif
        break;
   20178:	0001883a 	nop
#ifndef NIOS2_EIC_PRESENT
static ALT_INLINE alt_u32 ALT_ALWAYS_INLINE alt_irq_pending (void)
{
  alt_u32 active;

  NIOS2_READ_IPENDING (active);
   2017c:	0005313a 	rdctl	r2,ipending
   20180:	e0bfff15 	stw	r2,-4(fp)

  return active;
   20184:	e0bfff17 	ldw	r2,-4(fp)
   20188:	00000706 	br	201a8 <alt_irq_handler+0xac>
      }
      mask <<= 1;
   2018c:	e0bffc17 	ldw	r2,-16(fp)
   20190:	1085883a 	add	r2,r2,r2
   20194:	e0bffc15 	stw	r2,-16(fp)
      i++;
   20198:	e0bffd17 	ldw	r2,-12(fp)
   2019c:	10800044 	addi	r2,r2,1
   201a0:	e0bffd15 	stw	r2,-12(fp)

    } while (1);
   201a4:	003fe106 	br	2012c <_gp+0xfffe4b80>

    active = alt_irq_pending ();
   201a8:	e0bffb15 	stw	r2,-20(fp)
    
  } while (active);
   201ac:	e0bffb17 	ldw	r2,-20(fp)
   201b0:	103fdb1e 	bne	r2,zero,20120 <_gp+0xfffe4b74>

  /*
   * Notify the operating system that interrupt processing is complete.
   */ 

  ALT_OS_INT_EXIT();
   201b4:	0001883a 	nop
}
   201b8:	0001883a 	nop
   201bc:	e037883a 	mov	sp,fp
   201c0:	dfc00117 	ldw	ra,4(sp)
   201c4:	df000017 	ldw	fp,0(sp)
   201c8:	dec00204 	addi	sp,sp,8
   201cc:	f800283a 	ret

000201d0 <alt_instruction_exception_entry>:
 * that handler if it has been registered. Absent a handler, it will
 * break break or hang as discussed below.
 */
int 
alt_instruction_exception_entry (alt_u32 exception_pc)
{
   201d0:	defffb04 	addi	sp,sp,-20
   201d4:	dfc00415 	stw	ra,16(sp)
   201d8:	df000315 	stw	fp,12(sp)
   201dc:	df000304 	addi	fp,sp,12
   201e0:	e13fff15 	stw	r4,-4(fp)
  cause = ( (cause & NIOS2_EXCEPTION_REG_CAUSE_MASK) >>
              NIOS2_EXCEPTION_REG_CAUSE_OFST );

  NIOS2_READ_BADADDR(badaddr);
#else
  cause = NIOS2_EXCEPTION_CAUSE_NOT_PRESENT;
   201e4:	00bfffc4 	movi	r2,-1
   201e8:	e0bffd15 	stw	r2,-12(fp)
  badaddr = 0;
   201ec:	e03ffe15 	stw	zero,-8(fp)
#endif /* NIOS2_HAS_EXTRA_EXCEPTION_INFO */

  if(alt_instruction_exception_handler) {
   201f0:	d0a0e017 	ldw	r2,-31872(gp)
   201f4:	10000726 	beq	r2,zero,20214 <alt_instruction_exception_entry+0x44>
     * Call handler. Its return value indicates whether the exception-causing
     * instruction should be re-issued. The code that called us,
     * alt_eceptions_entry.S, will look at this value and adjust the ea
     * register as necessary
     */
    return alt_instruction_exception_handler(cause, exception_pc, badaddr);
   201f8:	d0a0e017 	ldw	r2,-31872(gp)
   201fc:	e0fffd17 	ldw	r3,-12(fp)
   20200:	e1bffe17 	ldw	r6,-8(fp)
   20204:	e17fff17 	ldw	r5,-4(fp)
   20208:	1809883a 	mov	r4,r3
   2020c:	103ee83a 	callr	r2
   20210:	00000206 	br	2021c <alt_instruction_exception_entry+0x4c>
   *    (a peripheral which negates its interrupt output before its
   *    interrupt handler has been executed will cause spurious interrupts)
   */
  else {
#ifdef NIOS2_HAS_DEBUG_STUB
    NIOS2_BREAK();
   20214:	003da03a 	break	0
      ;
#endif /* NIOS2_HAS_DEBUG_STUB */
  }

  /* We should not get here. Remove compiler warning. */
  return NIOS2_EXCEPTION_RETURN_REISSUE_INST;
   20218:	0005883a 	mov	r2,zero
}
   2021c:	e037883a 	mov	sp,fp
   20220:	dfc00117 	ldw	ra,4(sp)
   20224:	df000017 	ldw	fp,0(sp)
   20228:	dec00204 	addi	sp,sp,8
   2022c:	f800283a 	ret

Disassembly of section .text:

00020230 <_start>:

    /*
     * Now that the caches are initialized, set up the stack pointer and global pointer.
     * The values provided by the linker are assumed to be correctly aligned.
     */
    movhi sp, %hi(__alt_stack_pointer)
   20230:	06c000f4 	movhi	sp,3
    ori sp, sp, %lo(__alt_stack_pointer)
   20234:	dee00014 	ori	sp,sp,32768
    movhi gp, %hi(_gp)
   20238:	068000f4 	movhi	gp,3
    ori gp, gp, %lo(_gp)
   2023c:	d6ad6b14 	ori	gp,gp,46508
 */
#ifndef ALT_SIM_OPTIMIZE
    /* Log that the BSS is about to be cleared. */
    ALT_LOG_PUTS(alt_log_msg_bss)

    movhi r2, %hi(__bss_start)
   20240:	008000f4 	movhi	r2,3
    ori r2, r2, %lo(__bss_start)
   20244:	108e3814 	ori	r2,r2,14560

    movhi r3, %hi(__bss_end)
   20248:	00c000f4 	movhi	r3,3
    ori r3, r3, %lo(__bss_end)
   2024c:	18ce9a14 	ori	r3,r3,14952

    beq r2, r3, 1f
   20250:	10c00326 	beq	r2,r3,20260 <_start+0x30>

0:
    stw zero, (r2)
   20254:	10000015 	stw	zero,0(r2)
    addi r2, r2, 4
   20258:	10800104 	addi	r2,r2,4
    bltu r2, r3, 0b
   2025c:	10fffd36 	bltu	r2,r3,20254 <_gp+0xfffe4ca8>
     * section aren't defined until alt_load() has been called).
     */
    mov   et, zero
#endif

    call alt_load
   20260:	00305b80 	call	305b8 <alt_load>

    /* Log that alt_main is about to be called. */
    ALT_LOG_PUTS(alt_log_msg_alt_main)

    /* Call the C entry point. It should never return. */
    call alt_main
   20264:	003063c0 	call	3063c <alt_main>

00020268 <alt_after_alt_main>:

    /* Wait in infinite loop in case alt_main does return. */
alt_after_alt_main:
    br alt_after_alt_main
   20268:	003fff06 	br	20268 <_gp+0xfffe4cbc>

0002026c <init_SD>:

const char* SUPPORTED_EXTENSIONS[2] = {".z80", ".sna"};
#define N_SUPPORTED_EXTENSIONS (sizeof SUPPORTED_EXTENSIONS / sizeof (const char *))


FAT_HANDLE init_SD() {
   2026c:	defffe04 	addi	sp,sp,-8
   20270:	dfc00115 	stw	ra,4(sp)
   20274:	df000015 	stw	fp,0(sp)
   20278:	d839883a 	mov	fp,sp
	return Fat_Mount(FAT_SD_CARD, 0);
   2027c:	000b883a 	mov	r5,zero
   20280:	0009883a 	mov	r4,zero
   20284:	0020d280 	call	20d28 <Fat_Mount>
}
   20288:	e037883a 	mov	sp,fp
   2028c:	dfc00117 	ldw	ra,4(sp)
   20290:	df000017 	ldw	fp,0(sp)
   20294:	dec00204 	addi	sp,sp,8
   20298:	f800283a 	ret

0002029c <is_supported_file>:

/**
 * Checks input file's extension and compares it to supported ones
 */
bool is_supported_file(char* filename, size_t len) {
   2029c:	deffeb04 	addi	sp,sp,-84
   202a0:	dfc01415 	stw	ra,80(sp)
   202a4:	df001315 	stw	fp,76(sp)
   202a8:	dc001215 	stw	r16,72(sp)
   202ac:	df001304 	addi	fp,sp,76
   202b0:	e13ffd15 	stw	r4,-12(fp)
   202b4:	e17ffe15 	stw	r5,-8(fp)
	// Making extensions lower case for comparisons
	char to_compare[FILENAME_LEN_SD];
	strncpy(to_compare, filename, len);
   202b8:	e0bff004 	addi	r2,fp,-64
   202bc:	e1bffe17 	ldw	r6,-8(fp)
   202c0:	e17ffd17 	ldw	r5,-12(fp)
   202c4:	1009883a 	mov	r4,r2
   202c8:	002f4f00 	call	2f4f0 <strncpy>
	for(int i = 1; i < 5; i++) {
   202cc:	00800044 	movi	r2,1
   202d0:	e0bfed15 	stw	r2,-76(fp)
   202d4:	00001506 	br	2032c <is_supported_file+0x90>
		to_compare[len-i] = tolower(filename[len-i]);
   202d8:	e0bfed17 	ldw	r2,-76(fp)
   202dc:	e0fffe17 	ldw	r3,-8(fp)
   202e0:	18a1c83a 	sub	r16,r3,r2
   202e4:	e0bfed17 	ldw	r2,-76(fp)
   202e8:	e0fffe17 	ldw	r3,-8(fp)
   202ec:	1885c83a 	sub	r2,r3,r2
   202f0:	e0fffd17 	ldw	r3,-12(fp)
   202f4:	1885883a 	add	r2,r3,r2
   202f8:	10800003 	ldbu	r2,0(r2)
   202fc:	10803fcc 	andi	r2,r2,255
   20300:	1080201c 	xori	r2,r2,128
   20304:	10bfe004 	addi	r2,r2,-128
   20308:	1009883a 	mov	r4,r2
   2030c:	002faf80 	call	2faf8 <tolower>
   20310:	1007883a 	mov	r3,r2
   20314:	e0bff004 	addi	r2,fp,-64
   20318:	1405883a 	add	r2,r2,r16
   2031c:	10c00005 	stb	r3,0(r2)
 */
bool is_supported_file(char* filename, size_t len) {
	// Making extensions lower case for comparisons
	char to_compare[FILENAME_LEN_SD];
	strncpy(to_compare, filename, len);
	for(int i = 1; i < 5; i++) {
   20320:	e0bfed17 	ldw	r2,-76(fp)
   20324:	10800044 	addi	r2,r2,1
   20328:	e0bfed15 	stw	r2,-76(fp)
   2032c:	e0bfed17 	ldw	r2,-76(fp)
   20330:	10800150 	cmplti	r2,r2,5
   20334:	103fe81e 	bne	r2,zero,202d8 <_gp+0xfffe4d2c>
		to_compare[len-i] = tolower(filename[len-i]);
	}

	char* extension = to_compare + (len-5);
   20338:	e0bffe17 	ldw	r2,-8(fp)
   2033c:	10bffec4 	addi	r2,r2,-5
   20340:	e0fff004 	addi	r3,fp,-64
   20344:	1885883a 	add	r2,r3,r2
   20348:	e0bfef15 	stw	r2,-68(fp)
	for (int i = 0; i < N_SUPPORTED_EXTENSIONS; i++) {
   2034c:	e03fee15 	stw	zero,-72(fp)
   20350:	00001006 	br	20394 <is_supported_file+0xf8>
		if (strncmp(extension, SUPPORTED_EXTENSIONS[i], 4) == 0) {
   20354:	e0bfee17 	ldw	r2,-72(fp)
   20358:	1085883a 	add	r2,r2,r2
   2035c:	1087883a 	add	r3,r2,r2
   20360:	d0a00004 	addi	r2,gp,-32768
   20364:	1885883a 	add	r2,r3,r2
   20368:	10800017 	ldw	r2,0(r2)
   2036c:	01800104 	movi	r6,4
   20370:	100b883a 	mov	r5,r2
   20374:	e13fef17 	ldw	r4,-68(fp)
   20378:	002f4900 	call	2f490 <strncmp>
   2037c:	1000021e 	bne	r2,zero,20388 <is_supported_file+0xec>
			return TRUE;
   20380:	00800044 	movi	r2,1
   20384:	00000706 	br	203a4 <is_supported_file+0x108>
	for(int i = 1; i < 5; i++) {
		to_compare[len-i] = tolower(filename[len-i]);
	}

	char* extension = to_compare + (len-5);
	for (int i = 0; i < N_SUPPORTED_EXTENSIONS; i++) {
   20388:	e0bfee17 	ldw	r2,-72(fp)
   2038c:	10800044 	addi	r2,r2,1
   20390:	e0bfee15 	stw	r2,-72(fp)
   20394:	e0bfee17 	ldw	r2,-72(fp)
   20398:	108000b0 	cmpltui	r2,r2,2
   2039c:	103fed1e 	bne	r2,zero,20354 <_gp+0xfffe4da8>
		if (strncmp(extension, SUPPORTED_EXTENSIONS[i], 4) == 0) {
			return TRUE;
		}
	}
	return FALSE;
   203a0:	0005883a 	mov	r2,zero
}
   203a4:	e6ffff04 	addi	sp,fp,-4
   203a8:	dfc00217 	ldw	ra,8(sp)
   203ac:	df000117 	ldw	fp,4(sp)
   203b0:	dc000017 	ldw	r16,0(sp)
   203b4:	dec00304 	addi	sp,sp,12
   203b8:	f800283a 	ret

000203bc <format_file_name>:

int format_file_name(FAT_BROWSE_HANDLE hBrowse, FILE_CONTEXT FileContext, char* name) {
   203bc:	defff704 	addi	sp,sp,-36
   203c0:	dfc00615 	stw	ra,24(sp)
   203c4:	df000515 	stw	fp,20(sp)
   203c8:	df000504 	addi	fp,sp,20
   203cc:	e13ffe15 	stw	r4,-8(fp)
   203d0:	e17fff15 	stw	r5,-4(fp)
   203d4:	e1800215 	stw	r6,8(fp)
   203d8:	e1c00315 	stw	r7,12(fp)
	int len = 0;
   203dc:	e03ffb15 	stw	zero,-20(fp)
	//if (page_num == 1) entries = {0};

	if (FileContext.bLongFilename){
   203e0:	e0804217 	ldw	r2,264(fp)
   203e4:	10003726 	beq	r2,zero,204c4 <format_file_name+0x108>

		alt_u16 *pData16;
		alt_u8 *pData8;
		pData16 = (alt_u16 *)FileContext.szName;
   203e8:	e0800204 	addi	r2,fp,8
   203ec:	e0bffc15 	stw	r2,-16(fp)
		pData8 = FileContext.szName;
   203f0:	e0800204 	addi	r2,fp,8
   203f4:	e0bffd15 	stw	r2,-12(fp)

		//printf("[%d]", nCount);
		while(*pData16 && len < FILENAME_LEN){
   203f8:	00002306 	br	20488 <format_file_name+0xcc>
			if (*pData8)
   203fc:	e0bffd17 	ldw	r2,-12(fp)
   20400:	10800003 	ldbu	r2,0(r2)
   20404:	10803fcc 	andi	r2,r2,255
   20408:	10000926 	beq	r2,zero,20430 <format_file_name+0x74>
				name[len++] = *pData8;
   2040c:	e0bffb17 	ldw	r2,-20(fp)
   20410:	10c00044 	addi	r3,r2,1
   20414:	e0fffb15 	stw	r3,-20(fp)
   20418:	1007883a 	mov	r3,r2
   2041c:	e0804c17 	ldw	r2,304(fp)
   20420:	10c5883a 	add	r2,r2,r3
   20424:	e0fffd17 	ldw	r3,-12(fp)
   20428:	18c00003 	ldbu	r3,0(r3)
   2042c:	10c00005 	stb	r3,0(r2)
			pData8++;
   20430:	e0bffd17 	ldw	r2,-12(fp)
   20434:	10800044 	addi	r2,r2,1
   20438:	e0bffd15 	stw	r2,-12(fp)
			if (*pData8)
   2043c:	e0bffd17 	ldw	r2,-12(fp)
   20440:	10800003 	ldbu	r2,0(r2)
   20444:	10803fcc 	andi	r2,r2,255
   20448:	10000926 	beq	r2,zero,20470 <format_file_name+0xb4>
				name[len++] = *pData8;
   2044c:	e0bffb17 	ldw	r2,-20(fp)
   20450:	10c00044 	addi	r3,r2,1
   20454:	e0fffb15 	stw	r3,-20(fp)
   20458:	1007883a 	mov	r3,r2
   2045c:	e0804c17 	ldw	r2,304(fp)
   20460:	10c5883a 	add	r2,r2,r3
   20464:	e0fffd17 	ldw	r3,-12(fp)
   20468:	18c00003 	ldbu	r3,0(r3)
   2046c:	10c00005 	stb	r3,0(r2)
			pData8++;
   20470:	e0bffd17 	ldw	r2,-12(fp)
   20474:	10800044 	addi	r2,r2,1
   20478:	e0bffd15 	stw	r2,-12(fp)
			//
			pData16++;
   2047c:	e0bffc17 	ldw	r2,-16(fp)
   20480:	10800084 	addi	r2,r2,2
   20484:	e0bffc15 	stw	r2,-16(fp)
		alt_u8 *pData8;
		pData16 = (alt_u16 *)FileContext.szName;
		pData8 = FileContext.szName;

		//printf("[%d]", nCount);
		while(*pData16 && len < FILENAME_LEN){
   20488:	e0bffc17 	ldw	r2,-16(fp)
   2048c:	1080000b 	ldhu	r2,0(r2)
   20490:	10bfffcc 	andi	r2,r2,65535
   20494:	10000326 	beq	r2,zero,204a4 <format_file_name+0xe8>
   20498:	e0bffb17 	ldw	r2,-20(fp)
   2049c:	10800810 	cmplti	r2,r2,32
   204a0:	103fd61e 	bne	r2,zero,203fc <_gp+0xfffe4e50>
				name[len++] = *pData8;
			pData8++;
			//
			pData16++;
		}
		name[len++] = '\0';
   204a4:	e0bffb17 	ldw	r2,-20(fp)
   204a8:	10c00044 	addi	r3,r2,1
   204ac:	e0fffb15 	stw	r3,-20(fp)
   204b0:	1007883a 	mov	r3,r2
   204b4:	e0804c17 	ldw	r2,304(fp)
   204b8:	10c5883a 	add	r2,r2,r3
   204bc:	10000005 	stb	zero,0(r2)
   204c0:	00000f06 	br	20500 <format_file_name+0x144>
	}else {
		len = strlen(FileContext.szName);
   204c4:	e1000204 	addi	r4,fp,8
   204c8:	002f4140 	call	2f414 <strlen>
   204cc:	e0bffb15 	stw	r2,-20(fp)
		name[len++] = '\0';
   204d0:	e0bffb17 	ldw	r2,-20(fp)
   204d4:	10c00044 	addi	r3,r2,1
   204d8:	e0fffb15 	stw	r3,-20(fp)
   204dc:	1007883a 	mov	r3,r2
   204e0:	e0804c17 	ldw	r2,304(fp)
   204e4:	10c5883a 	add	r2,r2,r3
   204e8:	10000005 	stb	zero,0(r2)
		strncpy(name, FileContext.szName, len);
   204ec:	e0bffb17 	ldw	r2,-20(fp)
   204f0:	100d883a 	mov	r6,r2
   204f4:	e1400204 	addi	r5,fp,8
   204f8:	e1004c17 	ldw	r4,304(fp)
   204fc:	002f4f00 	call	2f4f0 <strncpy>
	}
	return len;
   20500:	e0bffb17 	ldw	r2,-20(fp)
}
   20504:	e037883a 	mov	sp,fp
   20508:	dfc00117 	ldw	ra,4(sp)
   2050c:	df000017 	ldw	fp,0(sp)
   20510:	dec00404 	addi	sp,sp,16
   20514:	f800283a 	ret

00020518 <list_files>:

FILENAMES list_files(FAT_HANDLE hFat) {
   20518:	deff5804 	addi	sp,sp,-672
   2051c:	dfc0a715 	stw	ra,668(sp)
   20520:	df00a615 	stw	fp,664(sp)
   20524:	dc00a515 	stw	r16,660(sp)
   20528:	df00a604 	addi	fp,sp,664
   2052c:	e13ffe15 	stw	r4,-8(fp)
	// allocate space for FILENAME_NUM file names
	FILENAMES filenames = {0, NULL};
   20530:	e03fa815 	stw	zero,-352(fp)
   20534:	e03fa915 	stw	zero,-348(fp)
	filenames.filenames = (char**) malloc(FILENAME_NUM*sizeof(char*));
   20538:	01003204 	movi	r4,200
   2053c:	002ed240 	call	2ed24 <malloc>
   20540:	e0bfa915 	stw	r2,-348(fp)
	for (int i = 0; i < FILENAME_NUM; i++) {
   20544:	e03fa315 	stw	zero,-372(fp)
   20548:	00000b06 	br	20578 <list_files+0x60>
		// allocating 50 chars for each file_name
		filenames.filenames[i] = (char*)malloc(FILENAME_LEN_SD*sizeof(char));
   2054c:	e0ffa917 	ldw	r3,-348(fp)
   20550:	e0bfa317 	ldw	r2,-372(fp)
   20554:	1085883a 	add	r2,r2,r2
   20558:	1085883a 	add	r2,r2,r2
   2055c:	18a1883a 	add	r16,r3,r2
   20560:	01000c84 	movi	r4,50
   20564:	002ed240 	call	2ed24 <malloc>
   20568:	80800015 	stw	r2,0(r16)

FILENAMES list_files(FAT_HANDLE hFat) {
	// allocate space for FILENAME_NUM file names
	FILENAMES filenames = {0, NULL};
	filenames.filenames = (char**) malloc(FILENAME_NUM*sizeof(char*));
	for (int i = 0; i < FILENAME_NUM; i++) {
   2056c:	e0bfa317 	ldw	r2,-372(fp)
   20570:	10800044 	addi	r2,r2,1
   20574:	e0bfa315 	stw	r2,-372(fp)
   20578:	e0bfa317 	ldw	r2,-372(fp)
   2057c:	10800c90 	cmplti	r2,r2,50
   20580:	103ff21e 	bne	r2,zero,2054c <_gp+0xfffe4fa0>
		// allocating 50 chars for each file_name
		filenames.filenames[i] = (char*)malloc(FILENAME_LEN_SD*sizeof(char));
	}
	int filename_num = 0;
   20584:	e03fa415 	stw	zero,-368(fp)

	bool bSuccess;
	FAT_BROWSE_HANDLE hBrowse;
	FILE_CONTEXT FileContext;

	bSuccess = Fat_FileBrowseBegin(hFat, &hBrowse);
   20588:	e0bfaa04 	addi	r2,fp,-344
   2058c:	100b883a 	mov	r5,r2
   20590:	e13ffe17 	ldw	r4,-8(fp)
   20594:	0020e380 	call	20e38 <Fat_FileBrowseBegin>
   20598:	e0bfa715 	stw	r2,-356(fp)

	if (bSuccess){
   2059c:	e0bfa717 	ldw	r2,-356(fp)
   205a0:	10004926 	beq	r2,zero,206c8 <list_files+0x1b0>
		while(Fat_FileBrowseNext(&hBrowse, &FileContext)) {
   205a4:	00003506 	br	2067c <list_files+0x164>
			char name[FILENAME_LEN];
			//char *name = (char *) malloc(51);

			int len = format_file_name(hBrowse, FileContext, name);
   205a8:	e0bff604 	addi	r2,fp,-40
   205ac:	d8804815 	stw	r2,288(sp)
   205b0:	d809883a 	mov	r4,sp
   205b4:	e0bfae04 	addi	r2,fp,-328
   205b8:	00c04804 	movi	r3,288
   205bc:	180d883a 	mov	r6,r3
   205c0:	100b883a 	mov	r5,r2
   205c4:	002ed4c0 	call	2ed4c <memcpy>
   205c8:	e1bfac17 	ldw	r6,-336(fp)
   205cc:	e1ffad17 	ldw	r7,-332(fp)
   205d0:	e13faa17 	ldw	r4,-344(fp)
   205d4:	e17fab17 	ldw	r5,-340(fp)
   205d8:	00203bc0 	call	203bc <format_file_name>
   205dc:	e0bfa515 	stw	r2,-364(fp)

			// Skip unsupported files
			if (!is_supported_file(name, len)) {
   205e0:	e0ffa517 	ldw	r3,-364(fp)
   205e4:	e0bff604 	addi	r2,fp,-40
   205e8:	180b883a 	mov	r5,r3
   205ec:	1009883a 	mov	r4,r2
   205f0:	002029c0 	call	2029c <is_supported_file>
   205f4:	1000011e 	bne	r2,zero,205fc <list_files+0xe4>
   205f8:	00002006 	br	2067c <list_files+0x164>
				continue;
			}

			if (len > FILENAME_LEN) {
   205fc:	e0bfa517 	ldw	r2,-364(fp)
   20600:	10800850 	cmplti	r2,r2,33
   20604:	1000021e 	bne	r2,zero,20610 <list_files+0xf8>
				len = FILENAME_LEN;
   20608:	00800804 	movi	r2,32
   2060c:	e0bfa515 	stw	r2,-364(fp)
			}

			// adding 0x80 to last char of string as a final byte (spectrum uses this in string tables)
			name[len-2] += 0x80;
   20610:	e0bfa517 	ldw	r2,-364(fp)
   20614:	10bfff84 	addi	r2,r2,-2
   20618:	e0ffa517 	ldw	r3,-364(fp)
   2061c:	18ffff84 	addi	r3,r3,-2
   20620:	e13ff604 	addi	r4,fp,-40
   20624:	20c7883a 	add	r3,r4,r3
   20628:	18c00003 	ldbu	r3,0(r3)
   2062c:	18ffe004 	addi	r3,r3,-128
   20630:	1809883a 	mov	r4,r3
   20634:	e0fff604 	addi	r3,fp,-40
   20638:	1885883a 	add	r2,r3,r2
   2063c:	11000005 	stb	r4,0(r2)

			snprintf(filenames.filenames[filename_num], len, name);
   20640:	e0ffa917 	ldw	r3,-348(fp)
   20644:	e0bfa417 	ldw	r2,-368(fp)
   20648:	1085883a 	add	r2,r2,r2
   2064c:	1085883a 	add	r2,r2,r2
   20650:	1885883a 	add	r2,r3,r2
   20654:	10800017 	ldw	r2,0(r2)
   20658:	e0ffa517 	ldw	r3,-364(fp)
   2065c:	e13ff604 	addi	r4,fp,-40
   20660:	200d883a 	mov	r6,r4
   20664:	180b883a 	mov	r5,r3
   20668:	1009883a 	mov	r4,r2
   2066c:	002f2280 	call	2f228 <snprintf>
			filename_num++;
   20670:	e0bfa417 	ldw	r2,-368(fp)
   20674:	10800044 	addi	r2,r2,1
   20678:	e0bfa415 	stw	r2,-368(fp)
	FILE_CONTEXT FileContext;

	bSuccess = Fat_FileBrowseBegin(hFat, &hBrowse);

	if (bSuccess){
		while(Fat_FileBrowseNext(&hBrowse, &FileContext)) {
   2067c:	e0ffac04 	addi	r3,fp,-336
   20680:	e0bfaa04 	addi	r2,fp,-344
   20684:	180b883a 	mov	r5,r3
   20688:	1009883a 	mov	r4,r2
   2068c:	0020ea40 	call	20ea4 <Fat_FileBrowseNext>
   20690:	103fc51e 	bne	r2,zero,205a8 <_gp+0xfffe4ffc>
			name[len-2] += 0x80;

			snprintf(filenames.filenames[filename_num], len, name);
			filename_num++;
		}
		filenames.size = filename_num;
   20694:	e0bfa417 	ldw	r2,-368(fp)
   20698:	e0bfa815 	stw	r2,-352(fp)
		filenames.filenames = (char**) realloc(filenames.filenames, filenames.size*sizeof(char*));
   2069c:	e0ffa917 	ldw	r3,-348(fp)
   206a0:	e0bfa817 	ldw	r2,-352(fp)
   206a4:	1085883a 	add	r2,r2,r2
   206a8:	1085883a 	add	r2,r2,r2
   206ac:	100b883a 	mov	r5,r2
   206b0:	1809883a 	mov	r4,r3
   206b4:	002f1100 	call	2f110 <realloc>
   206b8:	e0bfa915 	stw	r2,-348(fp)

		return filenames;
   206bc:	e0bfa817 	ldw	r2,-352(fp)
   206c0:	e0ffa917 	ldw	r3,-348(fp)
   206c4:	00001a06 	br	20730 <list_files+0x218>
	}

	printf("Listing files failed somehow...\r\n");
   206c8:	010000f4 	movhi	r4,3
   206cc:	21079504 	addi	r4,r4,7764
   206d0:	002f0fc0 	call	2f0fc <puts>
	for(int i = 0; i < FILENAME_NUM; i++) {
   206d4:	e03fa615 	stw	zero,-360(fp)
   206d8:	00000b06 	br	20708 <list_files+0x1f0>
		free(filenames.filenames[i]);
   206dc:	e0ffa917 	ldw	r3,-348(fp)
   206e0:	e0bfa617 	ldw	r2,-360(fp)
   206e4:	1085883a 	add	r2,r2,r2
   206e8:	1085883a 	add	r2,r2,r2
   206ec:	1885883a 	add	r2,r3,r2
   206f0:	10800017 	ldw	r2,0(r2)
   206f4:	1009883a 	mov	r4,r2
   206f8:	002ed380 	call	2ed38 <free>

		return filenames;
	}

	printf("Listing files failed somehow...\r\n");
	for(int i = 0; i < FILENAME_NUM; i++) {
   206fc:	e0bfa617 	ldw	r2,-360(fp)
   20700:	10800044 	addi	r2,r2,1
   20704:	e0bfa615 	stw	r2,-360(fp)
   20708:	e0bfa617 	ldw	r2,-360(fp)
   2070c:	10800c90 	cmplti	r2,r2,50
   20710:	103ff21e 	bne	r2,zero,206dc <_gp+0xfffe5130>
		free(filenames.filenames[i]);
	}
	free(filenames.filenames);
   20714:	e0bfa917 	ldw	r2,-348(fp)
   20718:	1009883a 	mov	r4,r2
   2071c:	002ed380 	call	2ed38 <free>

	filenames.size = 0;
   20720:	e03fa815 	stw	zero,-352(fp)
	filenames.filenames = NULL;
   20724:	e03fa915 	stw	zero,-348(fp)
	return filenames;
   20728:	e0bfa817 	ldw	r2,-352(fp)
   2072c:	e0ffa917 	ldw	r3,-348(fp)
   20730:	1009883a 	mov	r4,r2
   20734:	180b883a 	mov	r5,r3
}
   20738:	2005883a 	mov	r2,r4
   2073c:	2807883a 	mov	r3,r5
   20740:	e6ffff04 	addi	sp,fp,-4
   20744:	dfc00217 	ldw	ra,8(sp)
   20748:	df000117 	ldw	fp,4(sp)
   2074c:	dc000017 	ldw	r16,0(sp)
   20750:	dec00304 	addi	sp,sp,12
   20754:	f800283a 	ret

00020758 <num_of_pages>:

int num_of_pages(FAT_HANDLE hFat) {
   20758:	deff5d04 	addi	sp,sp,-652
   2075c:	dfc0a215 	stw	ra,648(sp)
   20760:	df00a115 	stw	fp,644(sp)
   20764:	df00a104 	addi	fp,sp,644
   20768:	e13fff15 	stw	r4,-4(fp)
	int num_of_files = 0;
   2076c:	e03fa815 	stw	zero,-352(fp)
	bool bSuccess;
	FAT_BROWSE_HANDLE hBrowse;
	FILE_CONTEXT FileContext;

	bSuccess = Fat_FileBrowseBegin(hFat, &hBrowse);
   20770:	e0bfab04 	addi	r2,fp,-340
   20774:	100b883a 	mov	r5,r2
   20778:	e13fff17 	ldw	r4,-4(fp)
   2077c:	0020e380 	call	20e38 <Fat_FileBrowseBegin>
   20780:	e0bfa915 	stw	r2,-348(fp)

	if (bSuccess){
   20784:	e0bfa917 	ldw	r2,-348(fp)
   20788:	10002626 	beq	r2,zero,20824 <num_of_pages+0xcc>
		while(Fat_FileBrowseNext(&hBrowse, &FileContext)) {
   2078c:	00001806 	br	207f0 <num_of_pages+0x98>
			char name[FILENAME_LEN];
			int len = format_file_name(hBrowse, FileContext, name);
   20790:	e0bff704 	addi	r2,fp,-36
   20794:	d8804815 	stw	r2,288(sp)
   20798:	d809883a 	mov	r4,sp
   2079c:	e0bfaf04 	addi	r2,fp,-324
   207a0:	00c04804 	movi	r3,288
   207a4:	180d883a 	mov	r6,r3
   207a8:	100b883a 	mov	r5,r2
   207ac:	002ed4c0 	call	2ed4c <memcpy>
   207b0:	e1bfad17 	ldw	r6,-332(fp)
   207b4:	e1ffae17 	ldw	r7,-328(fp)
   207b8:	e13fab17 	ldw	r4,-340(fp)
   207bc:	e17fac17 	ldw	r5,-336(fp)
   207c0:	00203bc0 	call	203bc <format_file_name>
   207c4:	e0bfaa15 	stw	r2,-344(fp)

			// Skip unsupported files
			if (!is_supported_file(name, len)) {
   207c8:	e0ffaa17 	ldw	r3,-344(fp)
   207cc:	e0bff704 	addi	r2,fp,-36
   207d0:	180b883a 	mov	r5,r3
   207d4:	1009883a 	mov	r4,r2
   207d8:	002029c0 	call	2029c <is_supported_file>
   207dc:	1000011e 	bne	r2,zero,207e4 <num_of_pages+0x8c>
   207e0:	00000306 	br	207f0 <num_of_pages+0x98>
				continue;
			}
			num_of_files++;
   207e4:	e0bfa817 	ldw	r2,-352(fp)
   207e8:	10800044 	addi	r2,r2,1
   207ec:	e0bfa815 	stw	r2,-352(fp)
	FILE_CONTEXT FileContext;

	bSuccess = Fat_FileBrowseBegin(hFat, &hBrowse);

	if (bSuccess){
		while(Fat_FileBrowseNext(&hBrowse, &FileContext)) {
   207f0:	e0ffad04 	addi	r3,fp,-332
   207f4:	e0bfab04 	addi	r2,fp,-340
   207f8:	180b883a 	mov	r5,r3
   207fc:	1009883a 	mov	r4,r2
   20800:	0020ea40 	call	20ea4 <Fat_FileBrowseNext>
   20804:	103fe21e 	bne	r2,zero,20790 <_gp+0xfffe51e4>
			if (!is_supported_file(name, len)) {
				continue;
			}
			num_of_files++;
		}
		return ((num_of_files-1) / 16 ) + 1;
   20808:	e0bfa817 	ldw	r2,-352(fp)
   2080c:	10bfffc4 	addi	r2,r2,-1
   20810:	1000010e 	bge	r2,zero,20818 <num_of_pages+0xc0>
   20814:	108003c4 	addi	r2,r2,15
   20818:	1005d13a 	srai	r2,r2,4
   2081c:	10800044 	addi	r2,r2,1
   20820:	00000406 	br	20834 <num_of_pages+0xdc>
	}

	printf("Counting pages went wrong...");
   20824:	010000f4 	movhi	r4,3
   20828:	21079e04 	addi	r4,r4,7800
   2082c:	002f00c0 	call	2f00c <printf>
	return -1;
   20830:	00bfffc4 	movi	r2,-1
}
   20834:	e037883a 	mov	sp,fp
   20838:	dfc00117 	ldw	ra,4(sp)
   2083c:	df000017 	ldw	fp,0(sp)
   20840:	dec00204 	addi	sp,sp,8
   20844:	f800283a 	ret

00020848 <list_files_of_page>:

FILENAMES list_files_of_page(FAT_HANDLE hFat, int page_num) {
   20848:	deff5404 	addi	sp,sp,-688
   2084c:	dfc0ab15 	stw	ra,684(sp)
   20850:	df00aa15 	stw	fp,680(sp)
   20854:	dc00a915 	stw	r16,676(sp)
   20858:	df00aa04 	addi	fp,sp,680
   2085c:	e13ffd15 	stw	r4,-12(fp)
   20860:	e17ffe15 	stw	r5,-8(fp)
	// allocate space for FILENAME_NUM file names
	FILENAMES filenames = {0, NULL};
   20864:	e03fa715 	stw	zero,-356(fp)
   20868:	e03fa815 	stw	zero,-352(fp)
	filenames.filenames = (char**) malloc(FILES_PER_PAGE*sizeof(char*));
   2086c:	01001004 	movi	r4,64
   20870:	002ed240 	call	2ed24 <malloc>
   20874:	e0bfa815 	stw	r2,-352(fp)
	for (int i = 0; i < FILES_PER_PAGE; i++) {
   20878:	e03f9f15 	stw	zero,-388(fp)
   2087c:	00000b06 	br	208ac <list_files_of_page+0x64>
		// allocating 50 chars for each file_name
		filenames.filenames[i] = (char*)malloc(FILENAME_LEN_SD*sizeof(char));
   20880:	e0ffa817 	ldw	r3,-352(fp)
   20884:	e0bf9f17 	ldw	r2,-388(fp)
   20888:	1085883a 	add	r2,r2,r2
   2088c:	1085883a 	add	r2,r2,r2
   20890:	18a1883a 	add	r16,r3,r2
   20894:	01000c84 	movi	r4,50
   20898:	002ed240 	call	2ed24 <malloc>
   2089c:	80800015 	stw	r2,0(r16)

FILENAMES list_files_of_page(FAT_HANDLE hFat, int page_num) {
	// allocate space for FILENAME_NUM file names
	FILENAMES filenames = {0, NULL};
	filenames.filenames = (char**) malloc(FILES_PER_PAGE*sizeof(char*));
	for (int i = 0; i < FILES_PER_PAGE; i++) {
   208a0:	e0bf9f17 	ldw	r2,-388(fp)
   208a4:	10800044 	addi	r2,r2,1
   208a8:	e0bf9f15 	stw	r2,-388(fp)
   208ac:	e0bf9f17 	ldw	r2,-388(fp)
   208b0:	10800410 	cmplti	r2,r2,16
   208b4:	103ff21e 	bne	r2,zero,20880 <_gp+0xfffe52d4>
		// allocating 50 chars for each file_name
		filenames.filenames[i] = (char*)malloc(FILENAME_LEN_SD*sizeof(char));
	}

	int filename_num = 0;
   208b8:	e03fa015 	stw	zero,-384(fp)
	int page_start = page_num * FILES_PER_PAGE;
   208bc:	e0bffe17 	ldw	r2,-8(fp)
   208c0:	1004913a 	slli	r2,r2,4
   208c4:	e0bfa415 	stw	r2,-368(fp)

	bool bSuccess;
	FAT_BROWSE_HANDLE hBrowse;
	FILE_CONTEXT FileContext;

	bSuccess = Fat_FileBrowseBegin(hFat, &hBrowse);
   208c8:	e0bfa904 	addi	r2,fp,-348
   208cc:	100b883a 	mov	r5,r2
   208d0:	e13ffd17 	ldw	r4,-12(fp)
   208d4:	0020e380 	call	20e38 <Fat_FileBrowseBegin>
   208d8:	e0bfa515 	stw	r2,-364(fp)

	if (bSuccess){
   208dc:	e0bfa517 	ldw	r2,-364(fp)
   208e0:	10007526 	beq	r2,zero,20ab8 <list_files_of_page+0x270>
		// First loop to advance file browse until the beginning of the requested page, if not requesting the first page
		if (page_num > 0) {
   208e4:	e0bffe17 	ldw	r2,-8(fp)
   208e8:	00805e0e 	bge	zero,r2,20a64 <list_files_of_page+0x21c>
			int discarded_filename_num = 0;
   208ec:	e03fa115 	stw	zero,-380(fp)
			while(Fat_FileBrowseNext(&hBrowse, &FileContext)) {
   208f0:	00001b06 	br	20960 <list_files_of_page+0x118>
				char name[FILENAME_LEN];
				int len = format_file_name(hBrowse, FileContext, name);
   208f4:	e0bff504 	addi	r2,fp,-44
   208f8:	d8804815 	stw	r2,288(sp)
   208fc:	d809883a 	mov	r4,sp
   20900:	e0bfad04 	addi	r2,fp,-332
   20904:	00c04804 	movi	r3,288
   20908:	180d883a 	mov	r6,r3
   2090c:	100b883a 	mov	r5,r2
   20910:	002ed4c0 	call	2ed4c <memcpy>
   20914:	e1bfab17 	ldw	r6,-340(fp)
   20918:	e1ffac17 	ldw	r7,-336(fp)
   2091c:	e13fa917 	ldw	r4,-348(fp)
   20920:	e17faa17 	ldw	r5,-344(fp)
   20924:	00203bc0 	call	203bc <format_file_name>
   20928:	e0bfa615 	stw	r2,-360(fp)
				// Skip unsupported files in the counting
				if (!is_supported_file(name, len)) {
   2092c:	e0ffa617 	ldw	r3,-360(fp)
   20930:	e0bff504 	addi	r2,fp,-44
   20934:	180b883a 	mov	r5,r3
   20938:	1009883a 	mov	r4,r2
   2093c:	002029c0 	call	2029c <is_supported_file>
   20940:	1000011e 	bne	r2,zero,20948 <list_files_of_page+0x100>
   20944:	00000606 	br	20960 <list_files_of_page+0x118>
					continue;
				}
				discarded_filename_num++;
   20948:	e0bfa117 	ldw	r2,-380(fp)
   2094c:	10800044 	addi	r2,r2,1
   20950:	e0bfa115 	stw	r2,-380(fp)

				// if the requested page's start index corresponds to the skipped files, leave
				// so that the next file browse advancement is a wanted file
				if (page_start == discarded_filename_num) break;
   20954:	e0ffa417 	ldw	r3,-368(fp)
   20958:	e0bfa117 	ldw	r2,-380(fp)
   2095c:	18800726 	beq	r3,r2,2097c <list_files_of_page+0x134>

	if (bSuccess){
		// First loop to advance file browse until the beginning of the requested page, if not requesting the first page
		if (page_num > 0) {
			int discarded_filename_num = 0;
			while(Fat_FileBrowseNext(&hBrowse, &FileContext)) {
   20960:	e0ffab04 	addi	r3,fp,-340
   20964:	e0bfa904 	addi	r2,fp,-348
   20968:	180b883a 	mov	r5,r3
   2096c:	1009883a 	mov	r4,r2
   20970:	0020ea40 	call	20ea4 <Fat_FileBrowseNext>
   20974:	103fdf1e 	bne	r2,zero,208f4 <_gp+0xfffe5348>
   20978:	00003a06 	br	20a64 <list_files_of_page+0x21c>
				}
				discarded_filename_num++;

				// if the requested page's start index corresponds to the skipped files, leave
				// so that the next file browse advancement is a wanted file
				if (page_start == discarded_filename_num) break;
   2097c:	0001883a 	nop
			}
		}

		// Second loop, saving the 16 supported files to the FILENAMES struct
		while(Fat_FileBrowseNext(&hBrowse, &FileContext)) {
   20980:	00003806 	br	20a64 <list_files_of_page+0x21c>
			char name[FILENAME_LEN];
			int len = format_file_name(hBrowse, FileContext, name);
   20984:	e0bff504 	addi	r2,fp,-44
   20988:	d8804815 	stw	r2,288(sp)
   2098c:	d809883a 	mov	r4,sp
   20990:	e0bfad04 	addi	r2,fp,-332
   20994:	00c04804 	movi	r3,288
   20998:	180d883a 	mov	r6,r3
   2099c:	100b883a 	mov	r5,r2
   209a0:	002ed4c0 	call	2ed4c <memcpy>
   209a4:	e1bfab17 	ldw	r6,-340(fp)
   209a8:	e1ffac17 	ldw	r7,-336(fp)
   209ac:	e13fa917 	ldw	r4,-348(fp)
   209b0:	e17faa17 	ldw	r5,-344(fp)
   209b4:	00203bc0 	call	203bc <format_file_name>
   209b8:	e0bfa215 	stw	r2,-376(fp)

			// Skip unsupported files
			if (!is_supported_file(name, len)) {
   209bc:	e0ffa217 	ldw	r3,-376(fp)
   209c0:	e0bff504 	addi	r2,fp,-44
   209c4:	180b883a 	mov	r5,r3
   209c8:	1009883a 	mov	r4,r2
   209cc:	002029c0 	call	2029c <is_supported_file>
   209d0:	1000011e 	bne	r2,zero,209d8 <list_files_of_page+0x190>
   209d4:	00002306 	br	20a64 <list_files_of_page+0x21c>
				continue;
			}

			if (len > FILENAME_LEN) {
   209d8:	e0bfa217 	ldw	r2,-376(fp)
   209dc:	10800850 	cmplti	r2,r2,33
   209e0:	1000021e 	bne	r2,zero,209ec <list_files_of_page+0x1a4>
				len = FILENAME_LEN;
   209e4:	00800804 	movi	r2,32
   209e8:	e0bfa215 	stw	r2,-376(fp)
			}

			// adding 0x80 to last char of string as a final byte (spectrum uses this in string tables)
			name[len-2] += 0x80;
   209ec:	e0bfa217 	ldw	r2,-376(fp)
   209f0:	10bfff84 	addi	r2,r2,-2
   209f4:	e0ffa217 	ldw	r3,-376(fp)
   209f8:	18ffff84 	addi	r3,r3,-2
   209fc:	e13ff504 	addi	r4,fp,-44
   20a00:	20c7883a 	add	r3,r4,r3
   20a04:	18c00003 	ldbu	r3,0(r3)
   20a08:	18ffe004 	addi	r3,r3,-128
   20a0c:	1809883a 	mov	r4,r3
   20a10:	e0fff504 	addi	r3,fp,-44
   20a14:	1885883a 	add	r2,r3,r2
   20a18:	11000005 	stb	r4,0(r2)

			snprintf(filenames.filenames[filename_num], len, name);
   20a1c:	e0ffa817 	ldw	r3,-352(fp)
   20a20:	e0bfa017 	ldw	r2,-384(fp)
   20a24:	1085883a 	add	r2,r2,r2
   20a28:	1085883a 	add	r2,r2,r2
   20a2c:	1885883a 	add	r2,r3,r2
   20a30:	10800017 	ldw	r2,0(r2)
   20a34:	e0ffa217 	ldw	r3,-376(fp)
   20a38:	e13ff504 	addi	r4,fp,-44
   20a3c:	200d883a 	mov	r6,r4
   20a40:	180b883a 	mov	r5,r3
   20a44:	1009883a 	mov	r4,r2
   20a48:	002f2280 	call	2f228 <snprintf>
			filename_num++;
   20a4c:	e0bfa017 	ldw	r2,-384(fp)
   20a50:	10800044 	addi	r2,r2,1
   20a54:	e0bfa015 	stw	r2,-384(fp)
			if (filename_num == FILES_PER_PAGE) break;
   20a58:	e0bfa017 	ldw	r2,-384(fp)
   20a5c:	10800418 	cmpnei	r2,r2,16
   20a60:	10000726 	beq	r2,zero,20a80 <list_files_of_page+0x238>
				if (page_start == discarded_filename_num) break;
			}
		}

		// Second loop, saving the 16 supported files to the FILENAMES struct
		while(Fat_FileBrowseNext(&hBrowse, &FileContext)) {
   20a64:	e0ffab04 	addi	r3,fp,-340
   20a68:	e0bfa904 	addi	r2,fp,-348
   20a6c:	180b883a 	mov	r5,r3
   20a70:	1009883a 	mov	r4,r2
   20a74:	0020ea40 	call	20ea4 <Fat_FileBrowseNext>
   20a78:	103fc21e 	bne	r2,zero,20984 <_gp+0xfffe53d8>
   20a7c:	00000106 	br	20a84 <list_files_of_page+0x23c>
			// adding 0x80 to last char of string as a final byte (spectrum uses this in string tables)
			name[len-2] += 0x80;

			snprintf(filenames.filenames[filename_num], len, name);
			filename_num++;
			if (filename_num == FILES_PER_PAGE) break;
   20a80:	0001883a 	nop
		}
		filenames.size = filename_num;
   20a84:	e0bfa017 	ldw	r2,-384(fp)
   20a88:	e0bfa715 	stw	r2,-356(fp)
		filenames.filenames = (char**) realloc(filenames.filenames, filenames.size*sizeof(char*));
   20a8c:	e0ffa817 	ldw	r3,-352(fp)
   20a90:	e0bfa717 	ldw	r2,-356(fp)
   20a94:	1085883a 	add	r2,r2,r2
   20a98:	1085883a 	add	r2,r2,r2
   20a9c:	100b883a 	mov	r5,r2
   20aa0:	1809883a 	mov	r4,r3
   20aa4:	002f1100 	call	2f110 <realloc>
   20aa8:	e0bfa815 	stw	r2,-352(fp)

		return filenames;
   20aac:	e0bfa717 	ldw	r2,-356(fp)
   20ab0:	e0ffa817 	ldw	r3,-352(fp)
   20ab4:	00001a06 	br	20b20 <list_files_of_page+0x2d8>
	}

	printf("Listing files failed somehow...\r\n");
   20ab8:	010000f4 	movhi	r4,3
   20abc:	21079504 	addi	r4,r4,7764
   20ac0:	002f0fc0 	call	2f0fc <puts>
	for(int i = 0; i < FILES_PER_PAGE; i++) {
   20ac4:	e03fa315 	stw	zero,-372(fp)
   20ac8:	00000b06 	br	20af8 <list_files_of_page+0x2b0>
		free(filenames.filenames[i]);
   20acc:	e0ffa817 	ldw	r3,-352(fp)
   20ad0:	e0bfa317 	ldw	r2,-372(fp)
   20ad4:	1085883a 	add	r2,r2,r2
   20ad8:	1085883a 	add	r2,r2,r2
   20adc:	1885883a 	add	r2,r3,r2
   20ae0:	10800017 	ldw	r2,0(r2)
   20ae4:	1009883a 	mov	r4,r2
   20ae8:	002ed380 	call	2ed38 <free>

		return filenames;
	}

	printf("Listing files failed somehow...\r\n");
	for(int i = 0; i < FILES_PER_PAGE; i++) {
   20aec:	e0bfa317 	ldw	r2,-372(fp)
   20af0:	10800044 	addi	r2,r2,1
   20af4:	e0bfa315 	stw	r2,-372(fp)
   20af8:	e0bfa317 	ldw	r2,-372(fp)
   20afc:	10800410 	cmplti	r2,r2,16
   20b00:	103ff21e 	bne	r2,zero,20acc <_gp+0xfffe5520>
		free(filenames.filenames[i]);
	}
	free(filenames.filenames);
   20b04:	e0bfa817 	ldw	r2,-352(fp)
   20b08:	1009883a 	mov	r4,r2
   20b0c:	002ed380 	call	2ed38 <free>

	filenames.size = 0;
   20b10:	e03fa715 	stw	zero,-356(fp)
	filenames.filenames = NULL;
   20b14:	e03fa815 	stw	zero,-352(fp)
	return filenames;
   20b18:	e0bfa717 	ldw	r2,-356(fp)
   20b1c:	e0ffa817 	ldw	r3,-352(fp)
   20b20:	1009883a 	mov	r4,r2
   20b24:	180b883a 	mov	r5,r3
}
   20b28:	2005883a 	mov	r2,r4
   20b2c:	2807883a 	mov	r3,r5
   20b30:	e6ffff04 	addi	sp,fp,-4
   20b34:	dfc00217 	ldw	ra,8(sp)
   20b38:	df000117 	ldw	fp,4(sp)
   20b3c:	dc000017 	ldw	r16,0(sp)
   20b40:	dec00304 	addi	sp,sp,12
   20b44:	f800283a 	ret

00020b48 <close_SD>:


void close_SD(FAT_HANDLE hFat) {
   20b48:	defffd04 	addi	sp,sp,-12
   20b4c:	dfc00215 	stw	ra,8(sp)
   20b50:	df000115 	stw	fp,4(sp)
   20b54:	df000104 	addi	fp,sp,4
   20b58:	e13fff15 	stw	r4,-4(fp)
	Fat_Unmount(hFat);
   20b5c:	e13fff17 	ldw	r4,-4(fp)
   20b60:	0020d6c0 	call	20d6c <Fat_Unmount>
}
   20b64:	0001883a 	nop
   20b68:	e037883a 	mov	sp,fp
   20b6c:	dfc00117 	ldw	ra,4(sp)
   20b70:	df000017 	ldw	fp,0(sp)
   20b74:	dec00204 	addi	sp,sp,8
   20b78:	f800283a 	ret

00020b7c <print_filenames>:


void print_filenames(FILENAMES files, bool free_en) {
   20b7c:	defff504 	addi	sp,sp,-44
   20b80:	dfc00a15 	stw	ra,40(sp)
   20b84:	df000915 	stw	fp,36(sp)
   20b88:	df000904 	addi	fp,sp,36
   20b8c:	e13ffd15 	stw	r4,-12(fp)
   20b90:	e17ffe15 	stw	r5,-8(fp)
   20b94:	e1bfff15 	stw	r6,-4(fp)
	int page, filename;
	size_t page_max = (files.size + (FILES_PER_PAGE-1)) / FILES_PER_PAGE;
   20b98:	e0bffd17 	ldw	r2,-12(fp)
   20b9c:	108003c4 	addi	r2,r2,15
   20ba0:	1004d13a 	srli	r2,r2,4
   20ba4:	e0bffb15 	stw	r2,-20(fp)
	size_t entries_left = files.size;
   20ba8:	e0bffd17 	ldw	r2,-12(fp)
   20bac:	e0bff915 	stw	r2,-28(fp)
	size_t files_in_page = FILES_PER_PAGE;
   20bb0:	00800404 	movi	r2,16
   20bb4:	e0bffa15 	stw	r2,-24(fp)

	for (page = 0; page < page_max; page++) {
   20bb8:	e03ff715 	stw	zero,-36(fp)
   20bbc:	00003106 	br	20c84 <print_filenames+0x108>
		printf("Page %d:\r\n", page);
   20bc0:	e17ff717 	ldw	r5,-36(fp)
   20bc4:	010000f4 	movhi	r4,3
   20bc8:	2107a604 	addi	r4,r4,7832
   20bcc:	002f00c0 	call	2f00c <printf>

		if (entries_left < files_in_page) {
   20bd0:	e0fff917 	ldw	r3,-28(fp)
   20bd4:	e0bffa17 	ldw	r2,-24(fp)
   20bd8:	1880022e 	bgeu	r3,r2,20be4 <print_filenames+0x68>
			files_in_page = entries_left;
   20bdc:	e0bff917 	ldw	r2,-28(fp)
   20be0:	e0bffa15 	stw	r2,-24(fp)
		}

		for (filename = 0; filename < files_in_page; filename++) {
   20be4:	e03ff815 	stw	zero,-32(fp)
   20be8:	00001d06 	br	20c60 <print_filenames+0xe4>
			int idx = (page*FILES_PER_PAGE) + filename;
   20bec:	e0bff717 	ldw	r2,-36(fp)
   20bf0:	1006913a 	slli	r3,r2,4
   20bf4:	e0bff817 	ldw	r2,-32(fp)
   20bf8:	1885883a 	add	r2,r3,r2
   20bfc:	e0bffc15 	stw	r2,-16(fp)
			printf("\t[%d]: %s\r\n", filename, files.filenames[idx]);
   20c00:	e0fffe17 	ldw	r3,-8(fp)
   20c04:	e0bffc17 	ldw	r2,-16(fp)
   20c08:	1085883a 	add	r2,r2,r2
   20c0c:	1085883a 	add	r2,r2,r2
   20c10:	1885883a 	add	r2,r3,r2
   20c14:	10800017 	ldw	r2,0(r2)
   20c18:	100d883a 	mov	r6,r2
   20c1c:	e17ff817 	ldw	r5,-32(fp)
   20c20:	010000f4 	movhi	r4,3
   20c24:	2107a904 	addi	r4,r4,7844
   20c28:	002f00c0 	call	2f00c <printf>
			if (free_en)
   20c2c:	e0bfff17 	ldw	r2,-4(fp)
   20c30:	10000826 	beq	r2,zero,20c54 <print_filenames+0xd8>
				free(files.filenames[idx]);
   20c34:	e0fffe17 	ldw	r3,-8(fp)
   20c38:	e0bffc17 	ldw	r2,-16(fp)
   20c3c:	1085883a 	add	r2,r2,r2
   20c40:	1085883a 	add	r2,r2,r2
   20c44:	1885883a 	add	r2,r3,r2
   20c48:	10800017 	ldw	r2,0(r2)
   20c4c:	1009883a 	mov	r4,r2
   20c50:	002ed380 	call	2ed38 <free>

		if (entries_left < files_in_page) {
			files_in_page = entries_left;
		}

		for (filename = 0; filename < files_in_page; filename++) {
   20c54:	e0bff817 	ldw	r2,-32(fp)
   20c58:	10800044 	addi	r2,r2,1
   20c5c:	e0bff815 	stw	r2,-32(fp)
   20c60:	e0fff817 	ldw	r3,-32(fp)
   20c64:	e0bffa17 	ldw	r2,-24(fp)
   20c68:	18bfe036 	bltu	r3,r2,20bec <_gp+0xfffe5640>
			int idx = (page*FILES_PER_PAGE) + filename;
			printf("\t[%d]: %s\r\n", filename, files.filenames[idx]);
			if (free_en)
				free(files.filenames[idx]);
		}
		entries_left -= FILES_PER_PAGE;
   20c6c:	e0bff917 	ldw	r2,-28(fp)
   20c70:	10bffc04 	addi	r2,r2,-16
   20c74:	e0bff915 	stw	r2,-28(fp)
	int page, filename;
	size_t page_max = (files.size + (FILES_PER_PAGE-1)) / FILES_PER_PAGE;
	size_t entries_left = files.size;
	size_t files_in_page = FILES_PER_PAGE;

	for (page = 0; page < page_max; page++) {
   20c78:	e0bff717 	ldw	r2,-36(fp)
   20c7c:	10800044 	addi	r2,r2,1
   20c80:	e0bff715 	stw	r2,-36(fp)
   20c84:	e0fff717 	ldw	r3,-36(fp)
   20c88:	e0bffb17 	ldw	r2,-20(fp)
   20c8c:	18bfcc36 	bltu	r3,r2,20bc0 <_gp+0xfffe5614>
			if (free_en)
				free(files.filenames[idx]);
		}
		entries_left -= FILES_PER_PAGE;
	}
	if (free_en)
   20c90:	e0bfff17 	ldw	r2,-4(fp)
   20c94:	10000326 	beq	r2,zero,20ca4 <print_filenames+0x128>
		free(files.filenames);
   20c98:	e0bffe17 	ldw	r2,-8(fp)
   20c9c:	1009883a 	mov	r4,r2
   20ca0:	002ed380 	call	2ed38 <free>
}
   20ca4:	0001883a 	nop
   20ca8:	e037883a 	mov	sp,fp
   20cac:	dfc00117 	ldw	ra,4(sp)
   20cb0:	df000017 	ldw	fp,0(sp)
   20cb4:	dec00204 	addi	sp,sp,8
   20cb8:	f800283a 	ret

00020cbc <init_file>:


FAT_FILE_HANDLE init_file(FAT_HANDLE hFat, const char *pFilename) {
   20cbc:	defffc04 	addi	sp,sp,-16
   20cc0:	dfc00315 	stw	ra,12(sp)
   20cc4:	df000215 	stw	fp,8(sp)
   20cc8:	df000204 	addi	fp,sp,8
   20ccc:	e13ffe15 	stw	r4,-8(fp)
   20cd0:	e17fff15 	stw	r5,-4(fp)
	return Fat_FileOpen(hFat, pFilename);
   20cd4:	e17fff17 	ldw	r5,-4(fp)
   20cd8:	e13ffe17 	ldw	r4,-8(fp)
   20cdc:	00216b80 	call	216b8 <Fat_FileOpen>
}
   20ce0:	e037883a 	mov	sp,fp
   20ce4:	dfc00117 	ldw	ra,4(sp)
   20ce8:	df000017 	ldw	fp,0(sp)
   20cec:	dec00204 	addi	sp,sp,8
   20cf0:	f800283a 	ret

00020cf4 <close_file>:

void close_file(FAT_FILE_HANDLE hFile) {
   20cf4:	defffd04 	addi	sp,sp,-12
   20cf8:	dfc00215 	stw	ra,8(sp)
   20cfc:	df000115 	stw	fp,4(sp)
   20d00:	df000104 	addi	fp,sp,4
   20d04:	e13fff15 	stw	r4,-4(fp)
	Fat_FileClose(hFile);
   20d08:	e13fff17 	ldw	r4,-4(fp)
   20d0c:	0021de40 	call	21de4 <Fat_FileClose>
}
   20d10:	0001883a 	nop
   20d14:	e037883a 	mov	sp,fp
   20d18:	dfc00117 	ldw	ra,4(sp)
   20d1c:	df000017 	ldw	fp,0(sp)
   20d20:	dec00204 	addi	sp,sp,8
   20d24:	f800283a 	ret

00020d28 <Fat_Mount>:
bool fatSameLongFilename(alt_u16 *p1, alt_u16 *p2);




FAT_HANDLE Fat_Mount(FAT_DEVICE FatDevice, DEVICE_HANDLE hUsbDisk){
   20d28:	defffb04 	addi	sp,sp,-20
   20d2c:	dfc00415 	stw	ra,16(sp)
   20d30:	df000315 	stw	fp,12(sp)
   20d34:	df000304 	addi	fp,sp,12
   20d38:	e13ffe15 	stw	r4,-8(fp)
   20d3c:	e17fff15 	stw	r5,-4(fp)
    
    //Fat_Unmount();
    FAT_HANDLE hFat = 0;
   20d40:	e03ffd15 	stw	zero,-12(fp)
    
    if (FatDevice == FAT_SD_CARD){
   20d44:	e0bffe17 	ldw	r2,-8(fp)
   20d48:	1000021e 	bne	r2,zero,20d54 <Fat_Mount+0x2c>
        #ifdef SUPPORT_SD_CARD
        hFat = fatMountSdcard();
   20d4c:	00231440 	call	23144 <fatMountSdcard>
   20d50:	e0bffd15 	stw	r2,-12(fp)
    }else if (FatDevice == FAT_USB_DISK){
        #ifdef SUPPORT_USB_DISK
        hFat = fatMountUsbDisk(hUsbDisk);
        #endif
    }  
    return hFat;      
   20d54:	e0bffd17 	ldw	r2,-12(fp)
        
}
   20d58:	e037883a 	mov	sp,fp
   20d5c:	dfc00117 	ldw	ra,4(sp)
   20d60:	df000017 	ldw	fp,0(sp)
   20d64:	dec00204 	addi	sp,sp,8
   20d68:	f800283a 	ret

00020d6c <Fat_Unmount>:

void Fat_Unmount(FAT_HANDLE Fat){
   20d6c:	defffc04 	addi	sp,sp,-16
   20d70:	dfc00315 	stw	ra,12(sp)
   20d74:	df000215 	stw	fp,8(sp)
   20d78:	df000204 	addi	fp,sp,8
   20d7c:	e13fff15 	stw	r4,-4(fp)
    VOLUME_INFO *pVol = (VOLUME_INFO *)Fat;
   20d80:	e0bfff17 	ldw	r2,-4(fp)
   20d84:	e0bffe15 	stw	r2,-8(fp)
    if (!pVol)
   20d88:	e0bffe17 	ldw	r2,-8(fp)
   20d8c:	10000526 	beq	r2,zero,20da4 <Fat_Unmount+0x38>
    if (pVol->szFatTable){
        free(pVol->szFatTable);
        pVol->szFatTable = 0;
    }        
#endif //#ifdef FAT_READONLY
    pVol->bMount = FALSE;
   20d90:	e0bffe17 	ldw	r2,-8(fp)
   20d94:	10000415 	stw	zero,16(r2)
    
    free(pVol);  
   20d98:	e13ffe17 	ldw	r4,-8(fp)
   20d9c:	002ed380 	call	2ed38 <free>
   20da0:	00000106 	br	20da8 <Fat_Unmount+0x3c>
}

void Fat_Unmount(FAT_HANDLE Fat){
    VOLUME_INFO *pVol = (VOLUME_INFO *)Fat;
    if (!pVol)
        return;
   20da4:	0001883a 	nop
    }        
#endif //#ifdef FAT_READONLY
    pVol->bMount = FALSE;
    
    free(pVol);  
}   
   20da8:	e037883a 	mov	sp,fp
   20dac:	dfc00117 	ldw	ra,4(sp)
   20db0:	df000017 	ldw	fp,0(sp)
   20db4:	dec00204 	addi	sp,sp,8
   20db8:	f800283a 	ret

00020dbc <Fat_Type>:

FAT_TYPE Fat_Type(FAT_HANDLE Fat){
   20dbc:	defffc04 	addi	sp,sp,-16
   20dc0:	df000315 	stw	fp,12(sp)
   20dc4:	df000304 	addi	fp,sp,12
   20dc8:	e13fff15 	stw	r4,-4(fp)
    VOLUME_INFO *pVol = (VOLUME_INFO *)Fat;
   20dcc:	e0bfff17 	ldw	r2,-4(fp)
   20dd0:	e0bffe15 	stw	r2,-8(fp)
    FAT_TYPE Type = FAT_UNKNOWN;
   20dd4:	e03ffd15 	stw	zero,-12(fp)
    if (pVol){
   20dd8:	e0bffe17 	ldw	r2,-8(fp)
   20ddc:	10001126 	beq	r2,zero,20e24 <Fat_Type+0x68>
        if (pVol->Partition_Type == PARTITION_FAT16)
   20de0:	e0bffe17 	ldw	r2,-8(fp)
   20de4:	10800317 	ldw	r2,12(r2)
   20de8:	10800198 	cmpnei	r2,r2,6
   20dec:	1000031e 	bne	r2,zero,20dfc <Fat_Type+0x40>
            Type = FAT_FAT16;
   20df0:	00800044 	movi	r2,1
   20df4:	e0bffd15 	stw	r2,-12(fp)
   20df8:	00000a06 	br	20e24 <Fat_Type+0x68>
        else if (pVol->Partition_Type == PARTITION_FAT32 || pVol->Partition_Type == PARTITION_FAT32_CHS)
   20dfc:	e0bffe17 	ldw	r2,-8(fp)
   20e00:	10800317 	ldw	r2,12(r2)
   20e04:	10800320 	cmpeqi	r2,r2,12
   20e08:	1000041e 	bne	r2,zero,20e1c <Fat_Type+0x60>
   20e0c:	e0bffe17 	ldw	r2,-8(fp)
   20e10:	10800317 	ldw	r2,12(r2)
   20e14:	108002d8 	cmpnei	r2,r2,11
   20e18:	1000021e 	bne	r2,zero,20e24 <Fat_Type+0x68>
            Type = FAT_FAT32;
   20e1c:	00800084 	movi	r2,2
   20e20:	e0bffd15 	stw	r2,-12(fp)
    }
    return Type;        
   20e24:	e0bffd17 	ldw	r2,-12(fp)
}
   20e28:	e037883a 	mov	sp,fp
   20e2c:	df000017 	ldw	fp,0(sp)
   20e30:	dec00104 	addi	sp,sp,4
   20e34:	f800283a 	ret

00020e38 <Fat_FileBrowseBegin>:

bool Fat_FileBrowseBegin(FAT_HANDLE hFat, FAT_BROWSE_HANDLE *pFatBrowseHandle){
   20e38:	defffc04 	addi	sp,sp,-16
   20e3c:	df000315 	stw	fp,12(sp)
   20e40:	df000304 	addi	fp,sp,12
   20e44:	e13ffe15 	stw	r4,-8(fp)
   20e48:	e17fff15 	stw	r5,-4(fp)
    VOLUME_INFO *pVol = (VOLUME_INFO *)hFat;
   20e4c:	e0bffe17 	ldw	r2,-8(fp)
   20e50:	e0bffd15 	stw	r2,-12(fp)
    if (!pVol)
   20e54:	e0bffd17 	ldw	r2,-12(fp)
   20e58:	1000021e 	bne	r2,zero,20e64 <Fat_FileBrowseBegin+0x2c>
        return FALSE;
   20e5c:	0005883a 	mov	r2,zero
   20e60:	00000c06 	br	20e94 <Fat_FileBrowseBegin+0x5c>
    if (!pVol->bMount)
   20e64:	e0bffd17 	ldw	r2,-12(fp)
   20e68:	10800417 	ldw	r2,16(r2)
   20e6c:	1000021e 	bne	r2,zero,20e78 <Fat_FileBrowseBegin+0x40>
        return FALSE;
   20e70:	0005883a 	mov	r2,zero
   20e74:	00000706 	br	20e94 <Fat_FileBrowseBegin+0x5c>
    pFatBrowseHandle->DirectoryIndex = -1;
   20e78:	e0bfff17 	ldw	r2,-4(fp)
   20e7c:	00ffffc4 	movi	r3,-1
   20e80:	10c00015 	stw	r3,0(r2)
    pFatBrowseHandle->hFat = hFat;
   20e84:	e0bfff17 	ldw	r2,-4(fp)
   20e88:	e0fffe17 	ldw	r3,-8(fp)
   20e8c:	10c00115 	stw	r3,4(r2)
    return TRUE;
   20e90:	00800044 	movi	r2,1
}
   20e94:	e037883a 	mov	sp,fp
   20e98:	df000017 	ldw	fp,0(sp)
   20e9c:	dec00104 	addi	sp,sp,4
   20ea0:	f800283a 	ret

00020ea4 <Fat_FileBrowseNext>:

bool Fat_FileBrowseNext(FAT_BROWSE_HANDLE *pFatBrowseHandle, FILE_CONTEXT *pFileContext){
   20ea4:	defff404 	addi	sp,sp,-48
   20ea8:	dfc00b15 	stw	ra,44(sp)
   20eac:	df000a15 	stw	fp,40(sp)
   20eb0:	df000a04 	addi	fp,sp,40
   20eb4:	e13ffe15 	stw	r4,-8(fp)
   20eb8:	e17fff15 	stw	r5,-4(fp)
    bool bFind = FALSE, bError=FALSE, bLongFilename = FALSE;
   20ebc:	e03ff615 	stw	zero,-40(fp)
   20ec0:	e03ff715 	stw	zero,-36(fp)
   20ec4:	e03ff815 	stw	zero,-32(fp)
    int OrderValue = 0;
   20ec8:	e03ff915 	stw	zero,-28(fp)
    FAT_DIRECTORY *pDir;
    //unsigned int nSecter, nSecterOffset,nByteOffset;
    VOLUME_INFO *pVol = (VOLUME_INFO *)pFatBrowseHandle->hFat;
   20ecc:	e0bffe17 	ldw	r2,-8(fp)
   20ed0:	10800117 	ldw	r2,4(r2)
   20ed4:	e0bffa15 	stw	r2,-24(fp)
    
    if (!pVol)
   20ed8:	e0bffa17 	ldw	r2,-24(fp)
   20edc:	1000021e 	bne	r2,zero,20ee8 <Fat_FileBrowseNext+0x44>
        return FALSE;    
   20ee0:	0005883a 	mov	r2,zero
   20ee4:	0000f506 	br	212bc <Fat_FileBrowseNext+0x418>
    
    if (!pVol->bMount)
   20ee8:	e0bffa17 	ldw	r2,-24(fp)
   20eec:	10800417 	ldw	r2,16(r2)
   20ef0:	1000021e 	bne	r2,zero,20efc <Fat_FileBrowseNext+0x58>
        return FALSE;
   20ef4:	0005883a 	mov	r2,zero
   20ef8:	0000f006 	br	212bc <Fat_FileBrowseNext+0x418>
    
    
    do{  // search Directory Table
        pFatBrowseHandle->DirectoryIndex++;        
   20efc:	e0bffe17 	ldw	r2,-8(fp)
   20f00:	10800017 	ldw	r2,0(r2)
   20f04:	10c00044 	addi	r3,r2,1
   20f08:	e0bffe17 	ldw	r2,-8(fp)
   20f0c:	10c00015 	stw	r3,0(r2)
        pDir = fatFindDirectory(pVol,pFatBrowseHandle->DirectoryIndex);
   20f10:	e0bffe17 	ldw	r2,-8(fp)
   20f14:	10800017 	ldw	r2,0(r2)
   20f18:	100b883a 	mov	r5,r2
   20f1c:	e13ffa17 	ldw	r4,-24(fp)
   20f20:	0022b740 	call	22b74 <fatFindDirectory>
   20f24:	e0bffb15 	stw	r2,-20(fp)
        if (!pDir)
   20f28:	e0bffb17 	ldw	r2,-20(fp)
   20f2c:	1000021e 	bne	r2,zero,20f38 <Fat_FileBrowseNext+0x94>
            bError = TRUE;
   20f30:	00800044 	movi	r2,1
   20f34:	e0bff715 	stw	r2,-36(fp)
            
        if (!bError){                        
   20f38:	e0bff717 	ldw	r2,-36(fp)
   20f3c:	1000d71e 	bne	r2,zero,2129c <Fat_FileBrowseNext+0x3f8>
            if (fatIsValidDir(pDir) && !fatIsUnusedDir(pDir)){
   20f40:	e13ffb17 	ldw	r4,-20(fp)
   20f44:	00227bc0 	call	227bc <fatIsValidDir>
   20f48:	1000d426 	beq	r2,zero,2129c <Fat_FileBrowseNext+0x3f8>
   20f4c:	e13ffb17 	ldw	r4,-20(fp)
   20f50:	00228680 	call	22868 <fatIsUnusedDir>
   20f54:	1000d11e 	bne	r2,zero,2129c <Fat_FileBrowseNext+0x3f8>
                if ((pDir->Attribute & ATTR_LONG_NAME) == ATTR_LONG_NAME){
   20f58:	e0bffb17 	ldw	r2,-20(fp)
   20f5c:	108002c3 	ldbu	r2,11(r2)
   20f60:	10803fcc 	andi	r2,r2,255
   20f64:	108003cc 	andi	r2,r2,15
   20f68:	108003d8 	cmpnei	r2,r2,15
   20f6c:	1000521e 	bne	r2,zero,210b8 <Fat_FileBrowseNext+0x214>
                    FAT_LONG_DIRECTORY *pLDIR = (FAT_LONG_DIRECTORY *)pDir;
   20f70:	e0bffb17 	ldw	r2,-20(fp)
   20f74:	e0bffc15 	stw	r2,-16(fp)
                    // check attribute
                    if ((pLDIR->LDIR_Attr & ATTR_LONG_NAME) != ATTR_LONG_NAME){
   20f78:	e0bffc17 	ldw	r2,-16(fp)
   20f7c:	108002c3 	ldbu	r2,11(r2)
   20f80:	10803fcc 	andi	r2,r2,255
   20f84:	108003cc 	andi	r2,r2,15
   20f88:	108003e0 	cmpeqi	r2,r2,15
   20f8c:	1000031e 	bne	r2,zero,20f9c <Fat_FileBrowseNext+0xf8>
                        bError = TRUE;
   20f90:	00800044 	movi	r2,1
   20f94:	e0bff715 	stw	r2,-36(fp)
   20f98:	00001e06 	br	21014 <Fat_FileBrowseNext+0x170>
                    }else{                        
                        // check order
                        if (OrderValue == 0){
   20f9c:	e0bff917 	ldw	r2,-28(fp)
   20fa0:	1000141e 	bne	r2,zero,20ff4 <Fat_FileBrowseNext+0x150>
                            // last entry
                            if (bLongFilename || ((OrderValue & LAST_LONG_ENTRY) != OrderValue))
   20fa4:	e0bff817 	ldw	r2,-32(fp)
   20fa8:	1000041e 	bne	r2,zero,20fbc <Fat_FileBrowseNext+0x118>
   20fac:	e0bff917 	ldw	r2,-28(fp)
   20fb0:	10c0100c 	andi	r3,r2,64
   20fb4:	e0bff917 	ldw	r2,-28(fp)
   20fb8:	18800326 	beq	r3,r2,20fc8 <Fat_FileBrowseNext+0x124>
                                bError = TRUE;
   20fbc:	00800044 	movi	r2,1
   20fc0:	e0bff715 	stw	r2,-36(fp)
   20fc4:	00000506 	br	20fdc <Fat_FileBrowseNext+0x138>
                            else
                                OrderValue = pLDIR->LDIR_Ord & 0x3F;
   20fc8:	e0bffc17 	ldw	r2,-16(fp)
   20fcc:	10800003 	ldbu	r2,0(r2)
   20fd0:	10803fcc 	andi	r2,r2,255
   20fd4:	10800fcc 	andi	r2,r2,63
   20fd8:	e0bff915 	stw	r2,-28(fp)
                            memset(pFileContext->szName, 0, sizeof(pFileContext->szName));        
   20fdc:	e0bfff17 	ldw	r2,-4(fp)
   20fe0:	01804004 	movi	r6,256
   20fe4:	000b883a 	mov	r5,zero
   20fe8:	1009883a 	mov	r4,r2
   20fec:	002ed740 	call	2ed74 <memset>
   20ff0:	00000806 	br	21014 <Fat_FileBrowseNext+0x170>
                        }else{
                            if ((pLDIR->LDIR_Ord & 0x3F) != OrderValue)
   20ff4:	e0bffc17 	ldw	r2,-16(fp)
   20ff8:	10800003 	ldbu	r2,0(r2)
   20ffc:	10803fcc 	andi	r2,r2,255
   21000:	10c00fcc 	andi	r3,r2,63
   21004:	e0bff917 	ldw	r2,-28(fp)
   21008:	18800226 	beq	r3,r2,21014 <Fat_FileBrowseNext+0x170>
                                bError = TRUE;
   2100c:	00800044 	movi	r2,1
   21010:	e0bff715 	stw	r2,-36(fp)
                        }
                    }
                    
                    //                        
                    if (!bError){
   21014:	e0bff717 	ldw	r2,-36(fp)
   21018:	1000a01e 	bne	r2,zero,2129c <Fat_FileBrowseNext+0x3f8>
                        int BaseOffset;
                        bLongFilename = TRUE;
   2101c:	00800044 	movi	r2,1
   21020:	e0bff815 	stw	r2,-32(fp)
                        OrderValue--;
   21024:	e0bff917 	ldw	r2,-28(fp)
   21028:	10bfffc4 	addi	r2,r2,-1
   2102c:	e0bff915 	stw	r2,-28(fp)
                        BaseOffset = OrderValue * 26;
   21030:	01400684 	movi	r5,26
   21034:	e13ff917 	ldw	r4,-28(fp)
   21038:	002b8d80 	call	2b8d8 <__mulsi3>
   2103c:	e0bffd15 	stw	r2,-12(fp)
                        // cast filename
                        memcpy(pFileContext->szName+BaseOffset, pLDIR->LDIR_Name1, 10);
   21040:	e0ffff17 	ldw	r3,-4(fp)
   21044:	e0bffd17 	ldw	r2,-12(fp)
   21048:	1887883a 	add	r3,r3,r2
   2104c:	e0bffc17 	ldw	r2,-16(fp)
   21050:	10800044 	addi	r2,r2,1
   21054:	01800284 	movi	r6,10
   21058:	100b883a 	mov	r5,r2
   2105c:	1809883a 	mov	r4,r3
   21060:	002ed4c0 	call	2ed4c <memcpy>
                        memcpy(pFileContext->szName+BaseOffset+10, pLDIR->LDIR_Name2, 12);
   21064:	e0ffff17 	ldw	r3,-4(fp)
   21068:	e0bffd17 	ldw	r2,-12(fp)
   2106c:	10800284 	addi	r2,r2,10
   21070:	1887883a 	add	r3,r3,r2
   21074:	e0bffc17 	ldw	r2,-16(fp)
   21078:	10800384 	addi	r2,r2,14
   2107c:	01800304 	movi	r6,12
   21080:	100b883a 	mov	r5,r2
   21084:	1809883a 	mov	r4,r3
   21088:	002ed4c0 	call	2ed4c <memcpy>
                        memcpy(pFileContext->szName+BaseOffset+22, pLDIR->LDIR_Name3, 4);
   2108c:	e0ffff17 	ldw	r3,-4(fp)
   21090:	e0bffd17 	ldw	r2,-12(fp)
   21094:	10800584 	addi	r2,r2,22
   21098:	1887883a 	add	r3,r3,r2
   2109c:	e0bffc17 	ldw	r2,-16(fp)
   210a0:	10800704 	addi	r2,r2,28
   210a4:	01800104 	movi	r6,4
   210a8:	100b883a 	mov	r5,r2
   210ac:	1809883a 	mov	r4,r3
   210b0:	002ed4c0 	call	2ed4c <memcpy>
   210b4:	00007906 	br	2129c <Fat_FileBrowseNext+0x3f8>
                    }                        
                }else{
                    if (bLongFilename){
   210b8:	e0bff817 	ldw	r2,-32(fp)
   210bc:	10000e26 	beq	r2,zero,210f8 <Fat_FileBrowseNext+0x254>
                        pFileContext->Attribute = ATTR_LONG_NAME;
   210c0:	e0bfff17 	ldw	r2,-4(fp)
   210c4:	00c003c4 	movi	r3,15
   210c8:	10c04505 	stb	r3,276(r2)
                        if ((pDir->Attribute & (ATTR_ARCHIVE | ATTR_DIRECTORY)) == 0)
   210cc:	e0bffb17 	ldw	r2,-20(fp)
   210d0:	108002c3 	ldbu	r2,11(r2)
   210d4:	10803fcc 	andi	r2,r2,255
   210d8:	10800c0c 	andi	r2,r2,48
   210dc:	1000031e 	bne	r2,zero,210ec <Fat_FileBrowseNext+0x248>
                            bError = TRUE;
   210e0:	00800044 	movi	r2,1
   210e4:	e0bff715 	stw	r2,-36(fp)
   210e8:	00000906 	br	21110 <Fat_FileBrowseNext+0x26c>
                        else    
                            bFind = TRUE;
   210ec:	00800044 	movi	r2,1
   210f0:	e0bff615 	stw	r2,-40(fp)
   210f4:	00000606 	br	21110 <Fat_FileBrowseNext+0x26c>
                    }else{
                        fatComposeShortFilename(pDir, pFileContext->szName);
   210f8:	e0bfff17 	ldw	r2,-4(fp)
   210fc:	100b883a 	mov	r5,r2
   21100:	e13ffb17 	ldw	r4,-20(fp)
   21104:	00214540 	call	21454 <fatComposeShortFilename>
                        bFind = TRUE;
   21108:	00800044 	movi	r2,1
   2110c:	e0bff615 	stw	r2,-40(fp)
                    }
                    
                    if (bFind){
   21110:	e0bff617 	ldw	r2,-40(fp)
   21114:	10006126 	beq	r2,zero,2129c <Fat_FileBrowseNext+0x3f8>
                        // my ext
                        pFileContext->bLongFilename = bLongFilename;
   21118:	e0bfff17 	ldw	r2,-4(fp)
   2111c:	e0fff817 	ldw	r3,-32(fp)
   21120:	10c04015 	stw	r3,256(r2)
                        pFileContext->bFile = (pDir->Attribute & ATTR_ARCHIVE)?TRUE:FALSE;
   21124:	e0bffb17 	ldw	r2,-20(fp)
   21128:	108002c3 	ldbu	r2,11(r2)
   2112c:	10803fcc 	andi	r2,r2,255
   21130:	1080080c 	andi	r2,r2,32
   21134:	1004c03a 	cmpne	r2,r2,zero
   21138:	10c03fcc 	andi	r3,r2,255
   2113c:	e0bfff17 	ldw	r2,-4(fp)
   21140:	10c04115 	stw	r3,260(r2)
                        pFileContext->bDirectory = (pDir->Attribute & ATTR_DIRECTORY)?TRUE:FALSE;
   21144:	e0bffb17 	ldw	r2,-20(fp)
   21148:	108002c3 	ldbu	r2,11(r2)
   2114c:	10803fcc 	andi	r2,r2,255
   21150:	1080040c 	andi	r2,r2,16
   21154:	1004c03a 	cmpne	r2,r2,zero
   21158:	10c03fcc 	andi	r3,r2,255
   2115c:	e0bfff17 	ldw	r2,-4(fp)
   21160:	10c04215 	stw	r3,264(r2)
                        pFileContext->bVolume = (pDir->Attribute & ATTR_VOLUME_ID)?TRUE:FALSE;
   21164:	e0bffb17 	ldw	r2,-20(fp)
   21168:	108002c3 	ldbu	r2,11(r2)
   2116c:	10803fcc 	andi	r2,r2,255
   21170:	1080020c 	andi	r2,r2,8
   21174:	1004c03a 	cmpne	r2,r2,zero
   21178:	10c03fcc 	andi	r3,r2,255
   2117c:	e0bfff17 	ldw	r2,-4(fp)
   21180:	10c04315 	stw	r3,268(r2)
                        pFileContext->DirEntryIndex = pFatBrowseHandle->DirectoryIndex; // add in v2.0.0
   21184:	e0bffe17 	ldw	r2,-8(fp)
   21188:	10c00017 	ldw	r3,0(r2)
   2118c:	e0bfff17 	ldw	r2,-4(fp)
   21190:	10c04415 	stw	r3,272(r2)
                        
                        //
                        pFileContext->Attribute = pDir->Attribute;
   21194:	e0bffb17 	ldw	r2,-20(fp)
   21198:	10c002c3 	ldbu	r3,11(r2)
   2119c:	e0bfff17 	ldw	r2,-4(fp)
   211a0:	10c04505 	stb	r3,276(r2)
                        pFileContext->CreateTime = pDir->CreateTime;
   211a4:	e0bffb17 	ldw	r2,-20(fp)
   211a8:	10c00383 	ldbu	r3,14(r2)
   211ac:	108003c3 	ldbu	r2,15(r2)
   211b0:	1004923a 	slli	r2,r2,8
   211b4:	10c4b03a 	or	r2,r2,r3
   211b8:	1007883a 	mov	r3,r2
   211bc:	e0bfff17 	ldw	r2,-4(fp)
   211c0:	10c0458d 	sth	r3,278(r2)
                        pFileContext->LastAccessDate = pDir->LastAccessDate;
   211c4:	e0bffb17 	ldw	r2,-20(fp)
   211c8:	10c00483 	ldbu	r3,18(r2)
   211cc:	108004c3 	ldbu	r2,19(r2)
   211d0:	1004923a 	slli	r2,r2,8
   211d4:	10c4b03a 	or	r2,r2,r3
   211d8:	1007883a 	mov	r3,r2
   211dc:	e0bfff17 	ldw	r2,-4(fp)
   211e0:	10c0468d 	sth	r3,282(r2)
                        pFileContext->FirstLogicalClusterHi = pDir->FirstLogicalClusterHi;
   211e4:	e0bffb17 	ldw	r2,-20(fp)
   211e8:	10c00503 	ldbu	r3,20(r2)
   211ec:	10800543 	ldbu	r2,21(r2)
   211f0:	1004923a 	slli	r2,r2,8
   211f4:	10c4b03a 	or	r2,r2,r3
   211f8:	1007883a 	mov	r3,r2
   211fc:	e0bfff17 	ldw	r2,-4(fp)
   21200:	10c0470d 	sth	r3,284(r2)
                        pFileContext->LastWriteTime = pDir->LastWriteTime;
   21204:	e0bffb17 	ldw	r2,-20(fp)
   21208:	10c00583 	ldbu	r3,22(r2)
   2120c:	108005c3 	ldbu	r2,23(r2)
   21210:	1004923a 	slli	r2,r2,8
   21214:	10c4b03a 	or	r2,r2,r3
   21218:	1007883a 	mov	r3,r2
   2121c:	e0bfff17 	ldw	r2,-4(fp)
   21220:	10c0478d 	sth	r3,286(r2)
                        pFileContext->LastWriteDate = pDir->LastWriteDate;
   21224:	e0bffb17 	ldw	r2,-20(fp)
   21228:	10c00603 	ldbu	r3,24(r2)
   2122c:	10800643 	ldbu	r2,25(r2)
   21230:	1004923a 	slli	r2,r2,8
   21234:	10c4b03a 	or	r2,r2,r3
   21238:	1007883a 	mov	r3,r2
   2123c:	e0bfff17 	ldw	r2,-4(fp)
   21240:	10c0480d 	sth	r3,288(r2)
                        pFileContext->FirstLogicalCluster = pDir->FirstLogicalCluster;
   21244:	e0bffb17 	ldw	r2,-20(fp)
   21248:	10c00683 	ldbu	r3,26(r2)
   2124c:	108006c3 	ldbu	r2,27(r2)
   21250:	1004923a 	slli	r2,r2,8
   21254:	10c4b03a 	or	r2,r2,r3
   21258:	1007883a 	mov	r3,r2
   2125c:	e0bfff17 	ldw	r2,-4(fp)
   21260:	10c0488d 	sth	r3,290(r2)
                        pFileContext->FileSize = pDir->FileSize;
   21264:	e0bffb17 	ldw	r2,-20(fp)
   21268:	10c00703 	ldbu	r3,28(r2)
   2126c:	11000743 	ldbu	r4,29(r2)
   21270:	2008923a 	slli	r4,r4,8
   21274:	20c6b03a 	or	r3,r4,r3
   21278:	11000783 	ldbu	r4,30(r2)
   2127c:	2008943a 	slli	r4,r4,16
   21280:	20c6b03a 	or	r3,r4,r3
   21284:	108007c3 	ldbu	r2,31(r2)
   21288:	1004963a 	slli	r2,r2,24
   2128c:	10c4b03a 	or	r2,r2,r3
   21290:	1007883a 	mov	r3,r2
   21294:	e0bfff17 	ldw	r2,-4(fp)
   21298:	10c04915 	stw	r3,292(r2)
                    }                        
                }                    
            }                
        }            
    }while (!bFind && !fatIsLastDir(pDir) && !bError);
   2129c:	e0bff617 	ldw	r2,-40(fp)
   212a0:	1000051e 	bne	r2,zero,212b8 <Fat_FileBrowseNext+0x414>
   212a4:	e13ffb17 	ldw	r4,-20(fp)
   212a8:	00227780 	call	22778 <fatIsLastDir>
   212ac:	1000021e 	bne	r2,zero,212b8 <Fat_FileBrowseNext+0x414>
   212b0:	e0bff717 	ldw	r2,-36(fp)
   212b4:	103f1126 	beq	r2,zero,20efc <_gp+0xfffe5950>
    
    return bFind;
   212b8:	e0bff617 	ldw	r2,-40(fp)
    
}
   212bc:	e037883a 	mov	sp,fp
   212c0:	dfc00117 	ldw	ra,4(sp)
   212c4:	df000017 	ldw	fp,0(sp)
   212c8:	dec00204 	addi	sp,sp,8
   212cc:	f800283a 	ret

000212d0 <Fat_FileCount>:


unsigned int Fat_FileCount(FAT_HANDLE Fat){
   212d0:	deffb004 	addi	sp,sp,-320
   212d4:	dfc04f15 	stw	ra,316(sp)
   212d8:	df004e15 	stw	fp,312(sp)
   212dc:	df004e04 	addi	fp,sp,312
   212e0:	e13fff15 	stw	r4,-4(fp)
    unsigned int nCount = 0;
   212e4:	e03fb215 	stw	zero,-312(fp)
    FAT_BROWSE_HANDLE hBrowse;
    FILE_CONTEXT FileContext;
    
    if (Fat_FileBrowseBegin(Fat, &hBrowse)){
   212e8:	e0bfb304 	addi	r2,fp,-308
   212ec:	100b883a 	mov	r5,r2
   212f0:	e13fff17 	ldw	r4,-4(fp)
   212f4:	0020e380 	call	20e38 <Fat_FileBrowseBegin>
   212f8:	10000a26 	beq	r2,zero,21324 <Fat_FileCount+0x54>
        while(Fat_FileBrowseNext(&hBrowse, &FileContext))
   212fc:	00000306 	br	2130c <Fat_FileCount+0x3c>
            nCount++;
   21300:	e0bfb217 	ldw	r2,-312(fp)
   21304:	10800044 	addi	r2,r2,1
   21308:	e0bfb215 	stw	r2,-312(fp)
    unsigned int nCount = 0;
    FAT_BROWSE_HANDLE hBrowse;
    FILE_CONTEXT FileContext;
    
    if (Fat_FileBrowseBegin(Fat, &hBrowse)){
        while(Fat_FileBrowseNext(&hBrowse, &FileContext))
   2130c:	e0ffb504 	addi	r3,fp,-300
   21310:	e0bfb304 	addi	r2,fp,-308
   21314:	180b883a 	mov	r5,r3
   21318:	1009883a 	mov	r4,r2
   2131c:	0020ea40 	call	20ea4 <Fat_FileBrowseNext>
   21320:	103ff71e 	bne	r2,zero,21300 <_gp+0xfffe5d54>
            nCount++;
    }
    
    return nCount;
   21324:	e0bfb217 	ldw	r2,-312(fp)
}
   21328:	e037883a 	mov	sp,fp
   2132c:	dfc00117 	ldw	ra,4(sp)
   21330:	df000017 	ldw	fp,0(sp)
   21334:	dec00204 	addi	sp,sp,8
   21338:	f800283a 	ret

0002133c <fatSameLongFilename>:

bool fatSameLongFilename(alt_u16 *p1, alt_u16 *p2){
   2133c:	defff804 	addi	sp,sp,-32
   21340:	dfc00715 	stw	ra,28(sp)
   21344:	df000615 	stw	fp,24(sp)
   21348:	df000604 	addi	fp,sp,24
   2134c:	e13ffe15 	stw	r4,-8(fp)
   21350:	e17fff15 	stw	r5,-4(fp)
    char* name = (char*) malloc(50 * sizeof(char*));
   21354:	01003204 	movi	r4,200
   21358:	002ed240 	call	2ed24 <malloc>
   2135c:	e0bffc15 	stw	r2,-16(fp)
    p2 = (char*) p2;
    int i = 0;
   21360:	e03ffa15 	stw	zero,-24(fp)
    alt_u8 *pData8 = (alt_u8*) p1;
   21364:	e0bffe17 	ldw	r2,-8(fp)
   21368:	e0bffb15 	stw	r2,-20(fp)
    while(*p1) {
   2136c:	00002306 	br	213fc <fatSameLongFilename+0xc0>
        if (*pData8)
   21370:	e0bffb17 	ldw	r2,-20(fp)
   21374:	10800003 	ldbu	r2,0(r2)
   21378:	10803fcc 	andi	r2,r2,255
   2137c:	10000926 	beq	r2,zero,213a4 <fatSameLongFilename+0x68>
            name[i++] = *pData8;
   21380:	e0bffa17 	ldw	r2,-24(fp)
   21384:	10c00044 	addi	r3,r2,1
   21388:	e0fffa15 	stw	r3,-24(fp)
   2138c:	1007883a 	mov	r3,r2
   21390:	e0bffc17 	ldw	r2,-16(fp)
   21394:	10c5883a 	add	r2,r2,r3
   21398:	e0fffb17 	ldw	r3,-20(fp)
   2139c:	18c00003 	ldbu	r3,0(r3)
   213a0:	10c00005 	stb	r3,0(r2)
        pData8++;
   213a4:	e0bffb17 	ldw	r2,-20(fp)
   213a8:	10800044 	addi	r2,r2,1
   213ac:	e0bffb15 	stw	r2,-20(fp)
        if (*pData8)
   213b0:	e0bffb17 	ldw	r2,-20(fp)
   213b4:	10800003 	ldbu	r2,0(r2)
   213b8:	10803fcc 	andi	r2,r2,255
   213bc:	10000926 	beq	r2,zero,213e4 <fatSameLongFilename+0xa8>
            name[i++] = *pData8;
   213c0:	e0bffa17 	ldw	r2,-24(fp)
   213c4:	10c00044 	addi	r3,r2,1
   213c8:	e0fffa15 	stw	r3,-24(fp)
   213cc:	1007883a 	mov	r3,r2
   213d0:	e0bffc17 	ldw	r2,-16(fp)
   213d4:	10c5883a 	add	r2,r2,r3
   213d8:	e0fffb17 	ldw	r3,-20(fp)
   213dc:	18c00003 	ldbu	r3,0(r3)
   213e0:	10c00005 	stb	r3,0(r2)
        pData8++;
   213e4:	e0bffb17 	ldw	r2,-20(fp)
   213e8:	10800044 	addi	r2,r2,1
   213ec:	e0bffb15 	stw	r2,-20(fp)
        p1++;
   213f0:	e0bffe17 	ldw	r2,-8(fp)
   213f4:	10800084 	addi	r2,r2,2
   213f8:	e0bffe15 	stw	r2,-8(fp)
bool fatSameLongFilename(alt_u16 *p1, alt_u16 *p2){
    char* name = (char*) malloc(50 * sizeof(char*));
    p2 = (char*) p2;
    int i = 0;
    alt_u8 *pData8 = (alt_u8*) p1;
    while(*p1) {
   213fc:	e0bffe17 	ldw	r2,-8(fp)
   21400:	1080000b 	ldhu	r2,0(r2)
   21404:	10bfffcc 	andi	r2,r2,65535
   21408:	103fd91e 	bne	r2,zero,21370 <_gp+0xfffe5dc4>
        if (*pData8)
            name[i++] = *pData8;
        pData8++;
        p1++;
    }
    name[i] = '\0';
   2140c:	e0bffa17 	ldw	r2,-24(fp)
   21410:	e0fffc17 	ldw	r3,-16(fp)
   21414:	1885883a 	add	r2,r3,r2
   21418:	10000005 	stb	zero,0(r2)
    int res = strcmpi(name, p2);
   2141c:	e17fff17 	ldw	r5,-4(fp)
   21420:	e13ffc17 	ldw	r4,-16(fp)
   21424:	002f3bc0 	call	2f3bc <strcasecmp>
   21428:	e0bffd15 	stw	r2,-12(fp)
    
    free(name);
   2142c:	e13ffc17 	ldw	r4,-16(fp)
   21430:	002ed380 	call	2ed38 <free>
    return res == 0 ? TRUE : FALSE;
   21434:	e0bffd17 	ldw	r2,-12(fp)
   21438:	1005003a 	cmpeq	r2,r2,zero
   2143c:	10803fcc 	andi	r2,r2,255
}
   21440:	e037883a 	mov	sp,fp
   21444:	dfc00117 	ldw	ra,4(sp)
   21448:	df000017 	ldw	fp,0(sp)
   2144c:	dec00204 	addi	sp,sp,8
   21450:	f800283a 	ret

00021454 <fatComposeShortFilename>:


void fatComposeShortFilename(FAT_DIRECTORY *pDir, char *szFilename){
   21454:	defffb04 	addi	sp,sp,-20
   21458:	df000415 	stw	fp,16(sp)
   2145c:	df000404 	addi	fp,sp,16
   21460:	e13ffe15 	stw	r4,-8(fp)
   21464:	e17fff15 	stw	r5,-4(fp)
    int i,nPos=0;
   21468:	e03ffd15 	stw	zero,-12(fp)
    
    i=0;
   2146c:	e03ffc15 	stw	zero,-16(fp)
    while(i < 8 && pDir->Name[i] != 0 && pDir->Name[i] != ' ')
   21470:	00000d06 	br	214a8 <fatComposeShortFilename+0x54>
        szFilename[nPos++] = pDir->Name[i++];
   21474:	e0bffd17 	ldw	r2,-12(fp)
   21478:	10c00044 	addi	r3,r2,1
   2147c:	e0fffd15 	stw	r3,-12(fp)
   21480:	1007883a 	mov	r3,r2
   21484:	e0bfff17 	ldw	r2,-4(fp)
   21488:	10c7883a 	add	r3,r2,r3
   2148c:	e0bffc17 	ldw	r2,-16(fp)
   21490:	11000044 	addi	r4,r2,1
   21494:	e13ffc15 	stw	r4,-16(fp)
   21498:	e13ffe17 	ldw	r4,-8(fp)
   2149c:	2085883a 	add	r2,r4,r2
   214a0:	10800003 	ldbu	r2,0(r2)
   214a4:	18800005 	stb	r2,0(r3)

void fatComposeShortFilename(FAT_DIRECTORY *pDir, char *szFilename){
    int i,nPos=0;
    
    i=0;
    while(i < 8 && pDir->Name[i] != 0 && pDir->Name[i] != ' ')
   214a8:	e0bffc17 	ldw	r2,-16(fp)
   214ac:	10800208 	cmpgei	r2,r2,8
   214b0:	1000111e 	bne	r2,zero,214f8 <fatComposeShortFilename+0xa4>
   214b4:	e0fffe17 	ldw	r3,-8(fp)
   214b8:	e0bffc17 	ldw	r2,-16(fp)
   214bc:	1885883a 	add	r2,r3,r2
   214c0:	10800003 	ldbu	r2,0(r2)
   214c4:	10803fcc 	andi	r2,r2,255
   214c8:	1080201c 	xori	r2,r2,128
   214cc:	10bfe004 	addi	r2,r2,-128
   214d0:	10000926 	beq	r2,zero,214f8 <fatComposeShortFilename+0xa4>
   214d4:	e0fffe17 	ldw	r3,-8(fp)
   214d8:	e0bffc17 	ldw	r2,-16(fp)
   214dc:	1885883a 	add	r2,r3,r2
   214e0:	10800003 	ldbu	r2,0(r2)
   214e4:	10803fcc 	andi	r2,r2,255
   214e8:	1080201c 	xori	r2,r2,128
   214ec:	10bfe004 	addi	r2,r2,-128
   214f0:	10800818 	cmpnei	r2,r2,32
   214f4:	103fdf1e 	bne	r2,zero,21474 <_gp+0xfffe5ec8>
        szFilename[nPos++] = pDir->Name[i++];
    
    if (pDir->Attribute & (ATTR_ARCHIVE | ATTR_DIRECTORY)){
   214f8:	e0bffe17 	ldw	r2,-8(fp)
   214fc:	108002c3 	ldbu	r2,11(r2)
   21500:	10803fcc 	andi	r2,r2,255
   21504:	10800c0c 	andi	r2,r2,48
   21508:	10003326 	beq	r2,zero,215d8 <fatComposeShortFilename+0x184>
        if (pDir->Attribute & (ATTR_ARCHIVE | ATTR_DIRECTORY))     
   2150c:	e0bffe17 	ldw	r2,-8(fp)
   21510:	108002c3 	ldbu	r2,11(r2)
   21514:	10803fcc 	andi	r2,r2,255
   21518:	10800c0c 	andi	r2,r2,48
   2151c:	10000826 	beq	r2,zero,21540 <fatComposeShortFilename+0xec>
            szFilename[nPos++] = '.';   
   21520:	e0bffd17 	ldw	r2,-12(fp)
   21524:	10c00044 	addi	r3,r2,1
   21528:	e0fffd15 	stw	r3,-12(fp)
   2152c:	1007883a 	mov	r3,r2
   21530:	e0bfff17 	ldw	r2,-4(fp)
   21534:	10c5883a 	add	r2,r2,r3
   21538:	00c00b84 	movi	r3,46
   2153c:	10c00005 	stb	r3,0(r2)
        i=0;
   21540:	e03ffc15 	stw	zero,-16(fp)
        while(i < 3 && pDir->Extension[i] != 0 && pDir->Extension[i] != ' ')
   21544:	00000e06 	br	21580 <fatComposeShortFilename+0x12c>
            szFilename[nPos++] = pDir->Extension[i++];
   21548:	e0bffd17 	ldw	r2,-12(fp)
   2154c:	10c00044 	addi	r3,r2,1
   21550:	e0fffd15 	stw	r3,-12(fp)
   21554:	1007883a 	mov	r3,r2
   21558:	e0bfff17 	ldw	r2,-4(fp)
   2155c:	10c7883a 	add	r3,r2,r3
   21560:	e0bffc17 	ldw	r2,-16(fp)
   21564:	11000044 	addi	r4,r2,1
   21568:	e13ffc15 	stw	r4,-16(fp)
   2156c:	e13ffe17 	ldw	r4,-8(fp)
   21570:	2085883a 	add	r2,r4,r2
   21574:	10800204 	addi	r2,r2,8
   21578:	10800003 	ldbu	r2,0(r2)
   2157c:	18800005 	stb	r2,0(r3)
    
    if (pDir->Attribute & (ATTR_ARCHIVE | ATTR_DIRECTORY)){
        if (pDir->Attribute & (ATTR_ARCHIVE | ATTR_DIRECTORY))     
            szFilename[nPos++] = '.';   
        i=0;
        while(i < 3 && pDir->Extension[i] != 0 && pDir->Extension[i] != ' ')
   21580:	e0bffc17 	ldw	r2,-16(fp)
   21584:	108000c8 	cmpgei	r2,r2,3
   21588:	1000131e 	bne	r2,zero,215d8 <fatComposeShortFilename+0x184>
   2158c:	e0fffe17 	ldw	r3,-8(fp)
   21590:	e0bffc17 	ldw	r2,-16(fp)
   21594:	1885883a 	add	r2,r3,r2
   21598:	10800204 	addi	r2,r2,8
   2159c:	10800003 	ldbu	r2,0(r2)
   215a0:	10803fcc 	andi	r2,r2,255
   215a4:	1080201c 	xori	r2,r2,128
   215a8:	10bfe004 	addi	r2,r2,-128
   215ac:	10000a26 	beq	r2,zero,215d8 <fatComposeShortFilename+0x184>
   215b0:	e0fffe17 	ldw	r3,-8(fp)
   215b4:	e0bffc17 	ldw	r2,-16(fp)
   215b8:	1885883a 	add	r2,r3,r2
   215bc:	10800204 	addi	r2,r2,8
   215c0:	10800003 	ldbu	r2,0(r2)
   215c4:	10803fcc 	andi	r2,r2,255
   215c8:	1080201c 	xori	r2,r2,128
   215cc:	10bfe004 	addi	r2,r2,-128
   215d0:	10800818 	cmpnei	r2,r2,32
   215d4:	103fdc1e 	bne	r2,zero,21548 <_gp+0xfffe5f9c>
            szFilename[nPos++] = pDir->Extension[i++];
    }            
    szFilename[nPos++] = 0;
   215d8:	e0bffd17 	ldw	r2,-12(fp)
   215dc:	10c00044 	addi	r3,r2,1
   215e0:	e0fffd15 	stw	r3,-12(fp)
   215e4:	1007883a 	mov	r3,r2
   215e8:	e0bfff17 	ldw	r2,-4(fp)
   215ec:	10c5883a 	add	r2,r2,r3
   215f0:	10000005 	stb	zero,0(r2)
}
   215f4:	0001883a 	nop
   215f8:	e037883a 	mov	sp,fp
   215fc:	df000017 	ldw	fp,0(sp)
   21600:	dec00104 	addi	sp,sp,4
   21604:	f800283a 	ret

00021608 <Fat_FileExist>:





bool Fat_FileExist(FAT_HANDLE Fat, const char *pFilename){
   21608:	deffaf04 	addi	sp,sp,-324
   2160c:	dfc05015 	stw	ra,320(sp)
   21610:	df004f15 	stw	fp,316(sp)
   21614:	df004f04 	addi	fp,sp,316
   21618:	e13ffe15 	stw	r4,-8(fp)
   2161c:	e17fff15 	stw	r5,-4(fp)
    bool bFind = FALSE;
   21620:	e03fb115 	stw	zero,-316(fp)
    FAT_BROWSE_HANDLE hBrowse;     
    FILE_CONTEXT FileContext;
    if (Fat_FileBrowseBegin(Fat, &hBrowse)){
   21624:	e0bfb204 	addi	r2,fp,-312
   21628:	100b883a 	mov	r5,r2
   2162c:	e13ffe17 	ldw	r4,-8(fp)
   21630:	0020e380 	call	20e38 <Fat_FileBrowseBegin>
   21634:	10001a26 	beq	r2,zero,216a0 <Fat_FileExist+0x98>
        while (!bFind && Fat_FileBrowseNext(&hBrowse, &FileContext)){
   21638:	00000f06 	br	21678 <Fat_FileExist+0x70>
            if (FileContext.bLongFilename){
   2163c:	e0bff417 	ldw	r2,-48(fp)
   21640:	10000626 	beq	r2,zero,2165c <Fat_FileExist+0x54>
                bFind = fatSameLongFilename((alt_u16 *)FileContext.szName, (alt_u16 *)pFilename);
   21644:	e0bfb404 	addi	r2,fp,-304
   21648:	e17fff17 	ldw	r5,-4(fp)
   2164c:	1009883a 	mov	r4,r2
   21650:	002133c0 	call	2133c <fatSameLongFilename>
   21654:	e0bfb115 	stw	r2,-316(fp)
   21658:	00000706 	br	21678 <Fat_FileExist+0x70>
            }else{
                if (strcmpi(FileContext.szName, pFilename) == 0)
   2165c:	e0bfb404 	addi	r2,fp,-304
   21660:	e17fff17 	ldw	r5,-4(fp)
   21664:	1009883a 	mov	r4,r2
   21668:	002f3bc0 	call	2f3bc <strcasecmp>
   2166c:	1000021e 	bne	r2,zero,21678 <Fat_FileExist+0x70>
                    bFind = TRUE;
   21670:	00800044 	movi	r2,1
   21674:	e0bfb115 	stw	r2,-316(fp)
bool Fat_FileExist(FAT_HANDLE Fat, const char *pFilename){
    bool bFind = FALSE;
    FAT_BROWSE_HANDLE hBrowse;     
    FILE_CONTEXT FileContext;
    if (Fat_FileBrowseBegin(Fat, &hBrowse)){
        while (!bFind && Fat_FileBrowseNext(&hBrowse, &FileContext)){
   21678:	e0bfb117 	ldw	r2,-316(fp)
   2167c:	1000061e 	bne	r2,zero,21698 <Fat_FileExist+0x90>
   21680:	e0ffb404 	addi	r3,fp,-304
   21684:	e0bfb204 	addi	r2,fp,-312
   21688:	180b883a 	mov	r5,r3
   2168c:	1009883a 	mov	r4,r2
   21690:	0020ea40 	call	20ea4 <Fat_FileBrowseNext>
   21694:	103fe91e 	bne	r2,zero,2163c <_gp+0xfffe6090>
            }else{
                if (strcmpi(FileContext.szName, pFilename) == 0)
                    bFind = TRUE;
            }    
        } // while 
        Fat_FileClose(Fat); 
   21698:	e13ffe17 	ldw	r4,-8(fp)
   2169c:	0021de40 	call	21de4 <Fat_FileClose>
    }
    return bFind;            
   216a0:	e0bfb117 	ldw	r2,-316(fp)
}    
   216a4:	e037883a 	mov	sp,fp
   216a8:	dfc00117 	ldw	ra,4(sp)
   216ac:	df000017 	ldw	fp,0(sp)
   216b0:	dec00204 	addi	sp,sp,8
   216b4:	f800283a 	ret

000216b8 <Fat_FileOpen>:
 
// File Access
FAT_FILE_HANDLE Fat_FileOpen(FAT_HANDLE Fat, const char *pFilename){
   216b8:	deffae04 	addi	sp,sp,-328
   216bc:	dfc05115 	stw	ra,324(sp)
   216c0:	df005015 	stw	fp,320(sp)
   216c4:	df005004 	addi	fp,sp,320
   216c8:	e13ffe15 	stw	r4,-8(fp)
   216cc:	e17fff15 	stw	r5,-4(fp)
    bool bFind = FALSE;
   216d0:	e03fb015 	stw	zero,-320(fp)
    FAT_BROWSE_HANDLE hBrowse;     
    FILE_CONTEXT FileContext;
    FAT_FILE_INFO *pFile = 0;
   216d4:	e03fb115 	stw	zero,-316(fp)
    
    if (Fat_FileBrowseBegin(Fat, &hBrowse)){
   216d8:	e0bfb204 	addi	r2,fp,-312
   216dc:	100b883a 	mov	r5,r2
   216e0:	e13ffe17 	ldw	r4,-8(fp)
   216e4:	0020e380 	call	20e38 <Fat_FileBrowseBegin>
   216e8:	10003826 	beq	r2,zero,217cc <Fat_FileOpen+0x114>
        while (!bFind && Fat_FileBrowseNext(&hBrowse, &FileContext)){
   216ec:	00000f06 	br	2172c <Fat_FileOpen+0x74>
            if (FileContext.bLongFilename){
   216f0:	e0bff417 	ldw	r2,-48(fp)
   216f4:	10000626 	beq	r2,zero,21710 <Fat_FileOpen+0x58>
                bFind = fatSameLongFilename((alt_u16 *)FileContext.szName, (alt_u16 *)pFilename);
   216f8:	e0bfb404 	addi	r2,fp,-304
   216fc:	e17fff17 	ldw	r5,-4(fp)
   21700:	1009883a 	mov	r4,r2
   21704:	002133c0 	call	2133c <fatSameLongFilename>
   21708:	e0bfb015 	stw	r2,-320(fp)
   2170c:	00000706 	br	2172c <Fat_FileOpen+0x74>
            }else{
                if (strcmpi(FileContext.szName, pFilename) == 0)
   21710:	e0bfb404 	addi	r2,fp,-304
   21714:	e17fff17 	ldw	r5,-4(fp)
   21718:	1009883a 	mov	r4,r2
   2171c:	002f3bc0 	call	2f3bc <strcasecmp>
   21720:	1000021e 	bne	r2,zero,2172c <Fat_FileOpen+0x74>
                    bFind = TRUE;
   21724:	00800044 	movi	r2,1
   21728:	e0bfb015 	stw	r2,-320(fp)
    FAT_BROWSE_HANDLE hBrowse;     
    FILE_CONTEXT FileContext;
    FAT_FILE_INFO *pFile = 0;
    
    if (Fat_FileBrowseBegin(Fat, &hBrowse)){
        while (!bFind && Fat_FileBrowseNext(&hBrowse, &FileContext)){
   2172c:	e0bfb017 	ldw	r2,-320(fp)
   21730:	1000061e 	bne	r2,zero,2174c <Fat_FileOpen+0x94>
   21734:	e0ffb404 	addi	r3,fp,-304
   21738:	e0bfb204 	addi	r2,fp,-312
   2173c:	180b883a 	mov	r5,r3
   21740:	1009883a 	mov	r4,r2
   21744:	0020ea40 	call	20ea4 <Fat_FileBrowseNext>
   21748:	103fe91e 	bne	r2,zero,216f0 <_gp+0xfffe6144>
                if (strcmpi(FileContext.szName, pFilename) == 0)
                    bFind = TRUE;
            }    
        } // while 
        
        if (bFind){
   2174c:	e0bfb017 	ldw	r2,-320(fp)
   21750:	10001e26 	beq	r2,zero,217cc <Fat_FileOpen+0x114>
            pFile = malloc(sizeof(FAT_FILE_INFO));
   21754:	01005004 	movi	r4,320
   21758:	002ed240 	call	2ed24 <malloc>
   2175c:	e0bfb115 	stw	r2,-316(fp)
            if (pFile){
   21760:	e0bfb117 	ldw	r2,-316(fp)
   21764:	10001926 	beq	r2,zero,217cc <Fat_FileOpen+0x114>
                pFile->OpenAttribute = FILE_OPEN_READ; 
   21768:	e0bfb117 	ldw	r2,-316(fp)
   2176c:	00c00044 	movi	r3,1
   21770:	10c00115 	stw	r3,4(r2)
                pFile->SeekPos = 0;
   21774:	e0bfb117 	ldw	r2,-316(fp)
   21778:	10000215 	stw	zero,8(r2)
                pFile->Directory = FileContext;
   2177c:	e0bfb117 	ldw	r2,-316(fp)
   21780:	10800504 	addi	r2,r2,20
   21784:	e0ffb404 	addi	r3,fp,-304
   21788:	01004a04 	movi	r4,296
   2178c:	200d883a 	mov	r6,r4
   21790:	180b883a 	mov	r5,r3
   21794:	1009883a 	mov	r4,r2
   21798:	002ed4c0 	call	2ed4c <memcpy>
                pFile->IsOpened = TRUE;
   2179c:	e0bfb117 	ldw	r2,-316(fp)
   217a0:	00c00044 	movi	r3,1
   217a4:	10c00015 	stw	r3,0(r2)
                pFile->Cluster = FileContext.FirstLogicalCluster;
   217a8:	e0bffc8b 	ldhu	r2,-14(fp)
   217ac:	10ffffcc 	andi	r3,r2,65535
   217b0:	e0bfb117 	ldw	r2,-316(fp)
   217b4:	10c00315 	stw	r3,12(r2)
                pFile->ClusterSeq = 0;
   217b8:	e0bfb117 	ldw	r2,-316(fp)
   217bc:	10000415 	stw	zero,16(r2)
                pFile->Fat = Fat;
   217c0:	e0bfb117 	ldw	r2,-316(fp)
   217c4:	e0fffe17 	ldw	r3,-8(fp)
   217c8:	10c04f15 	stw	r3,316(r2)
            }    
        }    
    }  

    
    return (FAT_FILE_HANDLE)pFile;  
   217cc:	e0bfb117 	ldw	r2,-316(fp)
}
   217d0:	e037883a 	mov	sp,fp
   217d4:	dfc00117 	ldw	ra,4(sp)
   217d8:	df000017 	ldw	fp,0(sp)
   217dc:	dec00204 	addi	sp,sp,8
   217e0:	f800283a 	ret

000217e4 <Fat_FileSize>:


unsigned int Fat_FileSize(FAT_FILE_HANDLE hFileHandle){
   217e4:	defffd04 	addi	sp,sp,-12
   217e8:	df000215 	stw	fp,8(sp)
   217ec:	df000204 	addi	fp,sp,8
   217f0:	e13fff15 	stw	r4,-4(fp)
    FAT_FILE_INFO *f = (FAT_FILE_INFO *)hFileHandle;
   217f4:	e0bfff17 	ldw	r2,-4(fp)
   217f8:	e0bffe15 	stw	r2,-8(fp)
    if (f->IsOpened)
   217fc:	e0bffe17 	ldw	r2,-8(fp)
   21800:	10800017 	ldw	r2,0(r2)
   21804:	10000326 	beq	r2,zero,21814 <Fat_FileSize+0x30>
        return f->Directory.FileSize;
   21808:	e0bffe17 	ldw	r2,-8(fp)
   2180c:	10804e17 	ldw	r2,312(r2)
   21810:	00000106 	br	21818 <Fat_FileSize+0x34>
    return 0;        
   21814:	0005883a 	mov	r2,zero
}
   21818:	e037883a 	mov	sp,fp
   2181c:	df000017 	ldw	fp,0(sp)
   21820:	dec00104 	addi	sp,sp,4
   21824:	f800283a 	ret

00021828 <Fat_FileRead>:


bool Fat_FileRead(FAT_FILE_HANDLE hFileHandle, void *pBuffer, const int nBufferSize){
   21828:	deffef04 	addi	sp,sp,-68
   2182c:	dfc01015 	stw	ra,64(sp)
   21830:	df000f15 	stw	fp,60(sp)
   21834:	df000f04 	addi	fp,sp,60
   21838:	e13ffd15 	stw	r4,-12(fp)
   2183c:	e17ffe15 	stw	r5,-8(fp)
   21840:	e1bfff15 	stw	r6,-4(fp)
    FAT_FILE_INFO *f = (FAT_FILE_INFO *)hFileHandle;
   21844:	e0bffd17 	ldw	r2,-12(fp)
   21848:	e0bff915 	stw	r2,-28(fp)
    VOLUME_INFO *pVol;
    alt_u32 Pos, PhysicalSecter, NextCluster, Cluster;
    alt_u32 BytesPerCluster, nReadCount=0, nClusterSeq;
   2184c:	e03ff415 	stw	zero,-48(fp)
    int s;
    bool bSuccess= TRUE;
   21850:	00800044 	movi	r2,1
   21854:	e0bff715 	stw	r2,-36(fp)
    
    if (!f || !f->Fat)
   21858:	e0bff917 	ldw	r2,-28(fp)
   2185c:	10000326 	beq	r2,zero,2186c <Fat_FileRead+0x44>
   21860:	e0bff917 	ldw	r2,-28(fp)
   21864:	10804f17 	ldw	r2,316(r2)
   21868:	1000021e 	bne	r2,zero,21874 <Fat_FileRead+0x4c>
        return FALSE;
   2186c:	0005883a 	mov	r2,zero
   21870:	00011706 	br	21cd0 <Fat_FileRead+0x4a8>
    pVol = (VOLUME_INFO *)f->Fat;        
   21874:	e0bff917 	ldw	r2,-28(fp)
   21878:	10804f17 	ldw	r2,316(r2)
   2187c:	e0bffa15 	stw	r2,-24(fp)
    
    if (!f->IsOpened){
   21880:	e0bff917 	ldw	r2,-28(fp)
   21884:	10800017 	ldw	r2,0(r2)
   21888:	1000071e 	bne	r2,zero,218a8 <Fat_FileRead+0x80>
        FAT_DEBUG(("[FAT] Fat_FileRead, file not opened\r\n"));
   2188c:	014000f4 	movhi	r5,3
   21890:	2947ac04 	addi	r5,r5,7856
   21894:	010000f4 	movhi	r4,3
   21898:	2107b604 	addi	r4,r4,7896
   2189c:	002f00c0 	call	2f00c <printf>
        return bSuccess;
   218a0:	e0bff717 	ldw	r2,-36(fp)
   218a4:	00010a06 	br	21cd0 <Fat_FileRead+0x4a8>
    }        
        
    BytesPerCluster = pVol->nBytesPerCluster; //gVolumeInfo.BPB_BytsPerSec * gVolumeInfo.BPB_SecPerCluster;  
   218a8:	e0bffa17 	ldw	r2,-24(fp)
   218ac:	10800c17 	ldw	r2,48(r2)
   218b0:	e0bffb15 	stw	r2,-20(fp)
    Pos = f->SeekPos;
   218b4:	e0bff917 	ldw	r2,-28(fp)
   218b8:	10800217 	ldw	r2,8(r2)
   218bc:	e0bff115 	stw	r2,-60(fp)
    if (BytesPerCluster == 32768){
   218c0:	e0fffb17 	ldw	r3,-20(fp)
   218c4:	00a00014 	movui	r2,32768
   218c8:	18800a1e 	bne	r3,r2,218f4 <Fat_FileRead+0xcc>
        nClusterSeq = Pos >> 15;
   218cc:	e0bff117 	ldw	r2,-60(fp)
   218d0:	1004d3fa 	srli	r2,r2,15
   218d4:	e0bff515 	stw	r2,-44(fp)
        Pos -= (f->ClusterSeq << 15);
   218d8:	e0bff917 	ldw	r2,-28(fp)
   218dc:	10800417 	ldw	r2,16(r2)
   218e0:	100493fa 	slli	r2,r2,15
   218e4:	e0fff117 	ldw	r3,-60(fp)
   218e8:	1885c83a 	sub	r2,r3,r2
   218ec:	e0bff115 	stw	r2,-60(fp)
   218f0:	00002706 	br	21990 <Fat_FileRead+0x168>
    }else if (BytesPerCluster == 16384){
   218f4:	e0bffb17 	ldw	r2,-20(fp)
   218f8:	10900018 	cmpnei	r2,r2,16384
   218fc:	10000a1e 	bne	r2,zero,21928 <Fat_FileRead+0x100>
        nClusterSeq = Pos >> 14;
   21900:	e0bff117 	ldw	r2,-60(fp)
   21904:	1004d3ba 	srli	r2,r2,14
   21908:	e0bff515 	stw	r2,-44(fp)
        Pos -= (f->ClusterSeq << 14);
   2190c:	e0bff917 	ldw	r2,-28(fp)
   21910:	10800417 	ldw	r2,16(r2)
   21914:	100493ba 	slli	r2,r2,14
   21918:	e0fff117 	ldw	r3,-60(fp)
   2191c:	1885c83a 	sub	r2,r3,r2
   21920:	e0bff115 	stw	r2,-60(fp)
   21924:	00001a06 	br	21990 <Fat_FileRead+0x168>
    }else if (BytesPerCluster == 2048){
   21928:	e0bffb17 	ldw	r2,-20(fp)
   2192c:	10820018 	cmpnei	r2,r2,2048
   21930:	10000a1e 	bne	r2,zero,2195c <Fat_FileRead+0x134>
        nClusterSeq = Pos >> 11;
   21934:	e0bff117 	ldw	r2,-60(fp)
   21938:	1004d2fa 	srli	r2,r2,11
   2193c:	e0bff515 	stw	r2,-44(fp)
        Pos -= (f->ClusterSeq << 11);
   21940:	e0bff917 	ldw	r2,-28(fp)
   21944:	10800417 	ldw	r2,16(r2)
   21948:	100492fa 	slli	r2,r2,11
   2194c:	e0fff117 	ldw	r3,-60(fp)
   21950:	1885c83a 	sub	r2,r3,r2
   21954:	e0bff115 	stw	r2,-60(fp)
   21958:	00000d06 	br	21990 <Fat_FileRead+0x168>
    }else{        
        nClusterSeq = Pos/BytesPerCluster;
   2195c:	e17ffb17 	ldw	r5,-20(fp)
   21960:	e13ff117 	ldw	r4,-60(fp)
   21964:	002b81c0 	call	2b81c <__udivsi3>
   21968:	e0bff515 	stw	r2,-44(fp)
        Pos -= f->ClusterSeq*BytesPerCluster;
   2196c:	e0bff917 	ldw	r2,-28(fp)
   21970:	10800417 	ldw	r2,16(r2)
   21974:	e17ffb17 	ldw	r5,-20(fp)
   21978:	1009883a 	mov	r4,r2
   2197c:	002b8d80 	call	2b8d8 <__mulsi3>
   21980:	1007883a 	mov	r3,r2
   21984:	e0bff117 	ldw	r2,-60(fp)
   21988:	10c5c83a 	sub	r2,r2,r3
   2198c:	e0bff115 	stw	r2,-60(fp)
    }    
        
       
    Cluster = f->Cluster;
   21990:	e0bff917 	ldw	r2,-28(fp)
   21994:	10800317 	ldw	r2,12(r2)
   21998:	e0bff315 	stw	r2,-52(fp)
    if (nClusterSeq != f->ClusterSeq){
   2199c:	e0bff917 	ldw	r2,-28(fp)
   219a0:	10c00417 	ldw	r3,16(r2)
   219a4:	e0bff517 	ldw	r2,-44(fp)
   219a8:	1880bb26 	beq	r3,r2,21c98 <Fat_FileRead+0x470>
        Cluster = f->Cluster;  //11/20/2007, richard
   219ac:	e0bff917 	ldw	r2,-28(fp)
   219b0:	10800317 	ldw	r2,12(r2)
   219b4:	e0bff315 	stw	r2,-52(fp)
        // move to first clustor for reading
        while (Pos >= BytesPerCluster && bSuccess){
   219b8:	00001a06 	br	21a24 <Fat_FileRead+0x1fc>
            // go to next cluster
            NextCluster = fatNextCluster(pVol, Cluster); 
   219bc:	e17ff317 	ldw	r5,-52(fp)
   219c0:	e13ffa17 	ldw	r4,-24(fp)
   219c4:	00221780 	call	22178 <fatNextCluster>
   219c8:	e0bffc15 	stw	r2,-16(fp)
            if (NextCluster == 0){
   219cc:	e0bffc17 	ldw	r2,-16(fp)
   219d0:	1000061e 	bne	r2,zero,219ec <Fat_FileRead+0x1c4>
                bSuccess = FALSE;
   219d4:	e03ff715 	stw	zero,-36(fp)
                FAT_DEBUG(("[FAT] Fat_FileRead, no next Cluster, current Cluster=%d\r\n", Cluster));
   219d8:	e17ff317 	ldw	r5,-52(fp)
   219dc:	010000f4 	movhi	r4,3
   219e0:	2107b604 	addi	r4,r4,7896
   219e4:	002f00c0 	call	2f00c <printf>
   219e8:	00000206 	br	219f4 <Fat_FileRead+0x1cc>
            }else{
                Cluster = NextCluster;
   219ec:	e0bffc17 	ldw	r2,-16(fp)
   219f0:	e0bff315 	stw	r2,-52(fp)
            }        
            Pos -= BytesPerCluster;
   219f4:	e0fff117 	ldw	r3,-60(fp)
   219f8:	e0bffb17 	ldw	r2,-20(fp)
   219fc:	1885c83a 	sub	r2,r3,r2
   21a00:	e0bff115 	stw	r2,-60(fp)
            f->Cluster = Cluster;
   21a04:	e0bff917 	ldw	r2,-28(fp)
   21a08:	e0fff317 	ldw	r3,-52(fp)
   21a0c:	10c00315 	stw	r3,12(r2)
            f->ClusterSeq++; 
   21a10:	e0bff917 	ldw	r2,-28(fp)
   21a14:	10800417 	ldw	r2,16(r2)
   21a18:	10c00044 	addi	r3,r2,1
   21a1c:	e0bff917 	ldw	r2,-28(fp)
   21a20:	10c00415 	stw	r3,16(r2)
       
    Cluster = f->Cluster;
    if (nClusterSeq != f->ClusterSeq){
        Cluster = f->Cluster;  //11/20/2007, richard
        // move to first clustor for reading
        while (Pos >= BytesPerCluster && bSuccess){
   21a24:	e0fff117 	ldw	r3,-60(fp)
   21a28:	e0bffb17 	ldw	r2,-20(fp)
   21a2c:	18809a36 	bltu	r3,r2,21c98 <Fat_FileRead+0x470>
   21a30:	e0bff717 	ldw	r2,-36(fp)
   21a34:	103fe11e 	bne	r2,zero,219bc <_gp+0xfffe6410>
            f->ClusterSeq++; 
        }
    }            
    
    // reading
    while(nReadCount < nBufferSize && bSuccess){
   21a38:	00009706 	br	21c98 <Fat_FileRead+0x470>
        if (pVol->BPB_SecPerCluster == 32)
   21a3c:	e0bffa17 	ldw	r2,-24(fp)
   21a40:	10800717 	ldw	r2,28(r2)
   21a44:	10800818 	cmpnei	r2,r2,32
   21a48:	1000081e 	bne	r2,zero,21a6c <Fat_FileRead+0x244>
            PhysicalSecter = ((Cluster-2) << 5) + pVol->DataEntrySecter; // -2: FAT0 & FAT1 are reserved
   21a4c:	e0bff317 	ldw	r2,-52(fp)
   21a50:	10bfff84 	addi	r2,r2,-2
   21a54:	1006917a 	slli	r3,r2,5
   21a58:	e0bffa17 	ldw	r2,-24(fp)
   21a5c:	10800f17 	ldw	r2,60(r2)
   21a60:	1885883a 	add	r2,r3,r2
   21a64:	e0bff215 	stw	r2,-56(fp)
   21a68:	00001806 	br	21acc <Fat_FileRead+0x2a4>
        else if (pVol->BPB_SecPerCluster == 64)
   21a6c:	e0bffa17 	ldw	r2,-24(fp)
   21a70:	10800717 	ldw	r2,28(r2)
   21a74:	10801018 	cmpnei	r2,r2,64
   21a78:	1000081e 	bne	r2,zero,21a9c <Fat_FileRead+0x274>
            PhysicalSecter = ((Cluster-2) << 6) + pVol->DataEntrySecter; // -2: FAT0 & FAT1 are reserved
   21a7c:	e0bff317 	ldw	r2,-52(fp)
   21a80:	10bfff84 	addi	r2,r2,-2
   21a84:	100691ba 	slli	r3,r2,6
   21a88:	e0bffa17 	ldw	r2,-24(fp)
   21a8c:	10800f17 	ldw	r2,60(r2)
   21a90:	1885883a 	add	r2,r3,r2
   21a94:	e0bff215 	stw	r2,-56(fp)
   21a98:	00000c06 	br	21acc <Fat_FileRead+0x2a4>
        else
            PhysicalSecter = (Cluster-2)*pVol->BPB_SecPerCluster + pVol->DataEntrySecter; // -2: FAT0 & FAT1 are reserved
   21a9c:	e0bff317 	ldw	r2,-52(fp)
   21aa0:	10ffff84 	addi	r3,r2,-2
   21aa4:	e0bffa17 	ldw	r2,-24(fp)
   21aa8:	10800717 	ldw	r2,28(r2)
   21aac:	100b883a 	mov	r5,r2
   21ab0:	1809883a 	mov	r4,r3
   21ab4:	002b8d80 	call	2b8d8 <__mulsi3>
   21ab8:	1007883a 	mov	r3,r2
   21abc:	e0bffa17 	ldw	r2,-24(fp)
   21ac0:	10800f17 	ldw	r2,60(r2)
   21ac4:	1885883a 	add	r2,r3,r2
   21ac8:	e0bff215 	stw	r2,-56(fp)
        for(s=0;s<pVol->BPB_SecPerCluster && nReadCount < nBufferSize && bSuccess;s++){
   21acc:	e03ff615 	stw	zero,-40(fp)
   21ad0:	00004e06 	br	21c0c <Fat_FileRead+0x3e4>
            if (Pos >= pVol->BPB_BytsPerSec){
   21ad4:	e0bffa17 	ldw	r2,-24(fp)
   21ad8:	10800617 	ldw	r2,24(r2)
   21adc:	e0fff117 	ldw	r3,-60(fp)
   21ae0:	18800636 	bltu	r3,r2,21afc <Fat_FileRead+0x2d4>
                Pos -= pVol->BPB_BytsPerSec;
   21ae4:	e0bffa17 	ldw	r2,-24(fp)
   21ae8:	10800617 	ldw	r2,24(r2)
   21aec:	e0fff117 	ldw	r3,-60(fp)
   21af0:	1885c83a 	sub	r2,r3,r2
   21af4:	e0bff115 	stw	r2,-60(fp)
   21af8:	00003e06 	br	21bf4 <Fat_FileRead+0x3cc>
            }else{
                // read secter data
                bSuccess = fatReadSecter(pVol, PhysicalSecter);
   21afc:	e17ff217 	ldw	r5,-56(fp)
   21b00:	e13ffa17 	ldw	r4,-24(fp)
   21b04:	0022ae40 	call	22ae4 <fatReadSecter>
   21b08:	e0bff715 	stw	r2,-36(fp)
                
                if (bSuccess){
   21b0c:	e0bff717 	ldw	r2,-36(fp)
   21b10:	10003826 	beq	r2,zero,21bf4 <Fat_FileRead+0x3cc>
                    // copy data to user buffer
                
                    int nCopyCount;
                    nCopyCount = pVol->BPB_BytsPerSec;
   21b14:	e0bffa17 	ldw	r2,-24(fp)
   21b18:	10800617 	ldw	r2,24(r2)
   21b1c:	e0bff815 	stw	r2,-32(fp)
                    if (Pos)
   21b20:	e0bff117 	ldw	r2,-60(fp)
   21b24:	10000426 	beq	r2,zero,21b38 <Fat_FileRead+0x310>
                        nCopyCount -= Pos;
   21b28:	e0fff817 	ldw	r3,-32(fp)
   21b2c:	e0bff117 	ldw	r2,-60(fp)
   21b30:	1885c83a 	sub	r2,r3,r2
   21b34:	e0bff815 	stw	r2,-32(fp)
                    if (nCopyCount > (nBufferSize-nReadCount))
   21b38:	e0ffff17 	ldw	r3,-4(fp)
   21b3c:	e0bff417 	ldw	r2,-48(fp)
   21b40:	1887c83a 	sub	r3,r3,r2
   21b44:	e0bff817 	ldw	r2,-32(fp)
   21b48:	1880042e 	bgeu	r3,r2,21b5c <Fat_FileRead+0x334>
                        nCopyCount = nBufferSize-nReadCount;
   21b4c:	e0ffff17 	ldw	r3,-4(fp)
   21b50:	e0bff417 	ldw	r2,-48(fp)
   21b54:	1885c83a 	sub	r2,r3,r2
   21b58:	e0bff815 	stw	r2,-32(fp)
                    if (nCopyCount == 512){
   21b5c:	e0bff817 	ldw	r2,-32(fp)
   21b60:	10808018 	cmpnei	r2,r2,512
   21b64:	1000111e 	bne	r2,zero,21bac <Fat_FileRead+0x384>
                        memcpy((char *)pBuffer+nReadCount, pVol->Secter_Data, 512);
   21b68:	e0fffe17 	ldw	r3,-8(fp)
   21b6c:	e0bff417 	ldw	r2,-48(fp)
   21b70:	1887883a 	add	r3,r3,r2
   21b74:	e0bffa17 	ldw	r2,-24(fp)
   21b78:	10801004 	addi	r2,r2,64
   21b7c:	01808004 	movi	r6,512
   21b80:	100b883a 	mov	r5,r2
   21b84:	1809883a 	mov	r4,r3
   21b88:	002ed4c0 	call	2ed4c <memcpy>
                        nReadCount += nCopyCount;
   21b8c:	e0bff817 	ldw	r2,-32(fp)
   21b90:	e0fff417 	ldw	r3,-48(fp)
   21b94:	1885883a 	add	r2,r3,r2
   21b98:	e0bff415 	stw	r2,-48(fp)
                        if (Pos > 0)
   21b9c:	e0bff117 	ldw	r2,-60(fp)
   21ba0:	10001426 	beq	r2,zero,21bf4 <Fat_FileRead+0x3cc>
                            Pos = 0;
   21ba4:	e03ff115 	stw	zero,-60(fp)
   21ba8:	00001206 	br	21bf4 <Fat_FileRead+0x3cc>
                    }else{
                        memcpy((void *)((char *)pBuffer+nReadCount), pVol->Secter_Data+Pos,nCopyCount);
   21bac:	e0fffe17 	ldw	r3,-8(fp)
   21bb0:	e0bff417 	ldw	r2,-48(fp)
   21bb4:	1889883a 	add	r4,r3,r2
   21bb8:	e0bffa17 	ldw	r2,-24(fp)
   21bbc:	10c01004 	addi	r3,r2,64
   21bc0:	e0bff117 	ldw	r2,-60(fp)
   21bc4:	1885883a 	add	r2,r3,r2
   21bc8:	e0fff817 	ldw	r3,-32(fp)
   21bcc:	180d883a 	mov	r6,r3
   21bd0:	100b883a 	mov	r5,r2
   21bd4:	002ed4c0 	call	2ed4c <memcpy>
                        nReadCount += nCopyCount;
   21bd8:	e0bff817 	ldw	r2,-32(fp)
   21bdc:	e0fff417 	ldw	r3,-48(fp)
   21be0:	1885883a 	add	r2,r3,r2
   21be4:	e0bff415 	stw	r2,-48(fp)
                        if (Pos > 0)
   21be8:	e0bff117 	ldw	r2,-60(fp)
   21bec:	10000126 	beq	r2,zero,21bf4 <Fat_FileRead+0x3cc>
                            Pos = 0;
   21bf0:	e03ff115 	stw	zero,-60(fp)
                    }         
                }    // if bSuccess
                    
            }
            PhysicalSecter++;
   21bf4:	e0bff217 	ldw	r2,-56(fp)
   21bf8:	10800044 	addi	r2,r2,1
   21bfc:	e0bff215 	stw	r2,-56(fp)
            PhysicalSecter = ((Cluster-2) << 5) + pVol->DataEntrySecter; // -2: FAT0 & FAT1 are reserved
        else if (pVol->BPB_SecPerCluster == 64)
            PhysicalSecter = ((Cluster-2) << 6) + pVol->DataEntrySecter; // -2: FAT0 & FAT1 are reserved
        else
            PhysicalSecter = (Cluster-2)*pVol->BPB_SecPerCluster + pVol->DataEntrySecter; // -2: FAT0 & FAT1 are reserved
        for(s=0;s<pVol->BPB_SecPerCluster && nReadCount < nBufferSize && bSuccess;s++){
   21c00:	e0bff617 	ldw	r2,-40(fp)
   21c04:	10800044 	addi	r2,r2,1
   21c08:	e0bff615 	stw	r2,-40(fp)
   21c0c:	e0bffa17 	ldw	r2,-24(fp)
   21c10:	10800717 	ldw	r2,28(r2)
   21c14:	e0fff617 	ldw	r3,-40(fp)
   21c18:	1880052e 	bgeu	r3,r2,21c30 <Fat_FileRead+0x408>
   21c1c:	e0bfff17 	ldw	r2,-4(fp)
   21c20:	e0fff417 	ldw	r3,-48(fp)
   21c24:	1880022e 	bgeu	r3,r2,21c30 <Fat_FileRead+0x408>
   21c28:	e0bff717 	ldw	r2,-36(fp)
   21c2c:	103fa91e 	bne	r2,zero,21ad4 <_gp+0xfffe6528>
            }
            PhysicalSecter++;
        }    
            
        // next cluster
        if (nReadCount < nBufferSize){
   21c30:	e0bfff17 	ldw	r2,-4(fp)
   21c34:	e0fff417 	ldw	r3,-48(fp)
   21c38:	1880172e 	bgeu	r3,r2,21c98 <Fat_FileRead+0x470>
            NextCluster = fatNextCluster(pVol, Cluster); 
   21c3c:	e17ff317 	ldw	r5,-52(fp)
   21c40:	e13ffa17 	ldw	r4,-24(fp)
   21c44:	00221780 	call	22178 <fatNextCluster>
   21c48:	e0bffc15 	stw	r2,-16(fp)
            if (NextCluster == 0){
   21c4c:	e0bffc17 	ldw	r2,-16(fp)
   21c50:	1000071e 	bne	r2,zero,21c70 <Fat_FileRead+0x448>
                bSuccess = FALSE;
   21c54:	e03ff715 	stw	zero,-36(fp)
                FAT_DEBUG(("[FAT] Fat_FileRead, no next cluster\r\n"));
   21c58:	014000f4 	movhi	r5,3
   21c5c:	2947ba04 	addi	r5,r5,7912
   21c60:	010000f4 	movhi	r4,3
   21c64:	2107b604 	addi	r4,r4,7896
   21c68:	002f00c0 	call	2f00c <printf>
   21c6c:	00000206 	br	21c78 <Fat_FileRead+0x450>
            }else{
                Cluster = NextCluster;
   21c70:	e0bffc17 	ldw	r2,-16(fp)
   21c74:	e0bff315 	stw	r2,-52(fp)
            }    
            //    
            f->ClusterSeq++; 
   21c78:	e0bff917 	ldw	r2,-28(fp)
   21c7c:	10800417 	ldw	r2,16(r2)
   21c80:	10c00044 	addi	r3,r2,1
   21c84:	e0bff917 	ldw	r2,-28(fp)
   21c88:	10c00415 	stw	r3,16(r2)
            f->Cluster = Cluster;
   21c8c:	e0bff917 	ldw	r2,-28(fp)
   21c90:	e0fff317 	ldw	r3,-52(fp)
   21c94:	10c00315 	stw	r3,12(r2)
            f->ClusterSeq++; 
        }
    }            
    
    // reading
    while(nReadCount < nBufferSize && bSuccess){
   21c98:	e0bfff17 	ldw	r2,-4(fp)
   21c9c:	e0fff417 	ldw	r3,-48(fp)
   21ca0:	1880022e 	bgeu	r3,r2,21cac <Fat_FileRead+0x484>
   21ca4:	e0bff717 	ldw	r2,-36(fp)
   21ca8:	103f641e 	bne	r2,zero,21a3c <_gp+0xfffe6490>
            f->ClusterSeq++; 
            f->Cluster = Cluster;
        }                    
    }
    
    if (bSuccess){
   21cac:	e0bff717 	ldw	r2,-36(fp)
   21cb0:	10000626 	beq	r2,zero,21ccc <Fat_FileRead+0x4a4>
        f->SeekPos += nBufferSize;
   21cb4:	e0bff917 	ldw	r2,-28(fp)
   21cb8:	10c00217 	ldw	r3,8(r2)
   21cbc:	e0bfff17 	ldw	r2,-4(fp)
   21cc0:	1887883a 	add	r3,r3,r2
   21cc4:	e0bff917 	ldw	r2,-28(fp)
   21cc8:	10c00215 	stw	r3,8(r2)
    }        
        
    
    return bSuccess;
   21ccc:	e0bff717 	ldw	r2,-36(fp)
}
   21cd0:	e037883a 	mov	sp,fp
   21cd4:	dfc00117 	ldw	ra,4(sp)
   21cd8:	df000017 	ldw	fp,0(sp)
   21cdc:	dec00204 	addi	sp,sp,8
   21ce0:	f800283a 	ret

00021ce4 <Fat_FileSeek>:


bool Fat_FileSeek(FAT_FILE_HANDLE hFileHandle, const FAT_SEEK_POS SeekPos, const int nOffset){
   21ce4:	defff904 	addi	sp,sp,-28
   21ce8:	df000615 	stw	fp,24(sp)
   21cec:	df000604 	addi	fp,sp,24
   21cf0:	e13ffd15 	stw	r4,-12(fp)
   21cf4:	e17ffe15 	stw	r5,-8(fp)
   21cf8:	e1bfff15 	stw	r6,-4(fp)
    FAT_FILE_INFO *f = (FAT_FILE_INFO *)hFileHandle;
   21cfc:	e0bffd17 	ldw	r2,-12(fp)
   21d00:	e0bffb15 	stw	r2,-20(fp)
    VOLUME_INFO *pVol;
    bool bSuccess= TRUE;
   21d04:	00800044 	movi	r2,1
   21d08:	e0bffa15 	stw	r2,-24(fp)

    if (!f || !f->Fat)
   21d0c:	e0bffb17 	ldw	r2,-20(fp)
   21d10:	10000326 	beq	r2,zero,21d20 <Fat_FileSeek+0x3c>
   21d14:	e0bffb17 	ldw	r2,-20(fp)
   21d18:	10804f17 	ldw	r2,316(r2)
   21d1c:	1000021e 	bne	r2,zero,21d28 <Fat_FileSeek+0x44>
        return FALSE;
   21d20:	0005883a 	mov	r2,zero
   21d24:	00002b06 	br	21dd4 <Fat_FileSeek+0xf0>
    pVol = (VOLUME_INFO *)f->Fat;        
   21d28:	e0bffb17 	ldw	r2,-20(fp)
   21d2c:	10804f17 	ldw	r2,316(r2)
   21d30:	e0bffc15 	stw	r2,-16(fp)
    
    if (!f->IsOpened)
   21d34:	e0bffb17 	ldw	r2,-20(fp)
   21d38:	10800017 	ldw	r2,0(r2)
   21d3c:	1000021e 	bne	r2,zero,21d48 <Fat_FileSeek+0x64>
        return FALSE;
   21d40:	0005883a 	mov	r2,zero
   21d44:	00002306 	br	21dd4 <Fat_FileSeek+0xf0>
        
    switch(SeekPos){
   21d48:	e0bffe17 	ldw	r2,-8(fp)
   21d4c:	10c00060 	cmpeqi	r3,r2,1
   21d50:	1800081e 	bne	r3,zero,21d74 <Fat_FileSeek+0x90>
   21d54:	0080032e 	bgeu	zero,r2,21d64 <Fat_FileSeek+0x80>
   21d58:	108000a0 	cmpeqi	r2,r2,2
   21d5c:	10000c1e 	bne	r2,zero,21d90 <Fat_FileSeek+0xac>
   21d60:	00001206 	br	21dac <Fat_FileSeek+0xc8>
        case FILE_SEEK_BEGIN: 
            f->SeekPos = nOffset; 
   21d64:	e0ffff17 	ldw	r3,-4(fp)
   21d68:	e0bffb17 	ldw	r2,-20(fp)
   21d6c:	10c00215 	stw	r3,8(r2)
            break;
   21d70:	00001006 	br	21db4 <Fat_FileSeek+0xd0>
        case FILE_SEEK_CURRENT: 
            f->SeekPos += nOffset; 
   21d74:	e0bffb17 	ldw	r2,-20(fp)
   21d78:	10c00217 	ldw	r3,8(r2)
   21d7c:	e0bfff17 	ldw	r2,-4(fp)
   21d80:	1887883a 	add	r3,r3,r2
   21d84:	e0bffb17 	ldw	r2,-20(fp)
   21d88:	10c00215 	stw	r3,8(r2)
            break;
   21d8c:	00000906 	br	21db4 <Fat_FileSeek+0xd0>
        case FILE_SEEK_END: 
            f->SeekPos = f->Directory.FileSize+nOffset; 
   21d90:	e0bffb17 	ldw	r2,-20(fp)
   21d94:	10c04e17 	ldw	r3,312(r2)
   21d98:	e0bfff17 	ldw	r2,-4(fp)
   21d9c:	1887883a 	add	r3,r3,r2
   21da0:	e0bffb17 	ldw	r2,-20(fp)
   21da4:	10c00215 	stw	r3,8(r2)
            break;
   21da8:	00000206 	br	21db4 <Fat_FileSeek+0xd0>
        default:
            bSuccess = FALSE;
   21dac:	e03ffa15 	stw	zero,-24(fp)
            break;    
   21db0:	0001883a 	nop
              
    }
    f->Cluster = f->Directory.FirstLogicalCluster;
   21db4:	e0bffb17 	ldw	r2,-20(fp)
   21db8:	10804d8b 	ldhu	r2,310(r2)
   21dbc:	10ffffcc 	andi	r3,r2,65535
   21dc0:	e0bffb17 	ldw	r2,-20(fp)
   21dc4:	10c00315 	stw	r3,12(r2)
    f->ClusterSeq = 0;
   21dc8:	e0bffb17 	ldw	r2,-20(fp)
   21dcc:	10000415 	stw	zero,16(r2)
    
    return bSuccess;
   21dd0:	e0bffa17 	ldw	r2,-24(fp)
    
}
   21dd4:	e037883a 	mov	sp,fp
   21dd8:	df000017 	ldw	fp,0(sp)
   21ddc:	dec00104 	addi	sp,sp,4
   21de0:	f800283a 	ret

00021de4 <Fat_FileClose>:

void Fat_FileClose(FAT_FILE_HANDLE hFileHandle){
   21de4:	defffc04 	addi	sp,sp,-16
   21de8:	dfc00315 	stw	ra,12(sp)
   21dec:	df000215 	stw	fp,8(sp)
   21df0:	df000204 	addi	fp,sp,8
   21df4:	e13fff15 	stw	r4,-4(fp)
    FAT_FILE_INFO *f = (FAT_FILE_INFO *)hFileHandle;
   21df8:	e0bfff17 	ldw	r2,-4(fp)
   21dfc:	e0bffe15 	stw	r2,-8(fp)
    if (!f)
   21e00:	e0bffe17 	ldw	r2,-8(fp)
   21e04:	10000326 	beq	r2,zero,21e14 <Fat_FileClose+0x30>
        return;
        
    free(f);        
   21e08:	e13ffe17 	ldw	r4,-8(fp)
   21e0c:	002ed380 	call	2ed38 <free>
   21e10:	00000106 	br	21e18 <Fat_FileClose+0x34>
}

void Fat_FileClose(FAT_FILE_HANDLE hFileHandle){
    FAT_FILE_INFO *f = (FAT_FILE_INFO *)hFileHandle;
    if (!f)
        return;
   21e14:	0001883a 	nop
        
    free(f);        
}
   21e18:	e037883a 	mov	sp,fp
   21e1c:	dfc00117 	ldw	ra,4(sp)
   21e20:	df000017 	ldw	fp,0(sp)
   21e24:	dec00204 	addi	sp,sp,8
   21e28:	f800283a 	ret

00021e2c <Fat_SpeedTest>:



float Fat_SpeedTest(FAT_HANDLE hFat, alt_u32 TestDurInMs){
   21e2c:	deff7304 	addi	sp,sp,-564
   21e30:	dfc08c15 	stw	ra,560(sp)
   21e34:	df008b15 	stw	fp,556(sp)
   21e38:	dc008a15 	stw	r16,552(sp)
   21e3c:	df008b04 	addi	fp,sp,556
   21e40:	e13ffd15 	stw	r4,-12(fp)
   21e44:	e17ffe15 	stw	r5,-8(fp)
    bool bSuccess = TRUE;
   21e48:	00800044 	movi	r2,1
   21e4c:	e0bf7515 	stw	r2,-556(fp)
    alt_u32 time_start, time_finish, time_elapsed, TotalReadBytes=0;
   21e50:	e03f7615 	stw	zero,-552(fp)
    int nSecter = 0;
   21e54:	e03f7715 	stw	zero,-548(fp)
    float fMegaBytePerSec = 0;
   21e58:	e03f7815 	stw	zero,-544(fp)
    char szBlock[512];
    VOLUME_INFO *pVol = (VOLUME_INFO *)hFat;
   21e5c:	e0bffd17 	ldw	r2,-12(fp)
   21e60:	e0bf7915 	stw	r2,-540(fp)
    if (!pVol)
   21e64:	e0bf7917 	ldw	r2,-540(fp)
   21e68:	1000021e 	bne	r2,zero,21e74 <Fat_SpeedTest+0x48>
        return 0;
   21e6c:	0005883a 	mov	r2,zero
   21e70:	00005a06 	br	21fdc <Fat_SpeedTest+0x1b0>
 * alt_nticks() returns the elapsed number of system clock ticks since reset.
 */

static ALT_INLINE alt_u32 ALT_ALWAYS_INLINE alt_nticks (void)
{
  return _alt_nticks;
   21e74:	d0a0de17 	ldw	r2,-31880(gp)
    time_start = alt_nticks();
   21e78:	e0bf7a15 	stw	r2,-536(fp)
   21e7c:	d420de17 	ldw	r16,-31880(gp)
    time_finish = alt_nticks() + TestDurInMs * 1000 / alt_ticks_per_second();
   21e80:	0140fa04 	movi	r5,1000
   21e84:	e13ffe17 	ldw	r4,-8(fp)
   21e88:	002b8d80 	call	2b8d8 <__mulsi3>
   21e8c:	1007883a 	mov	r3,r2
 * Obtain the system clock rate in ticks/s. 
 */

static ALT_INLINE alt_u32 ALT_ALWAYS_INLINE alt_ticks_per_second (void)
{
  return _alt_tick_rate;
   21e90:	d0a0dd17 	ldw	r2,-31884(gp)
   21e94:	100b883a 	mov	r5,r2
   21e98:	1809883a 	mov	r4,r3
   21e9c:	002b81c0 	call	2b81c <__udivsi3>
   21ea0:	8085883a 	add	r2,r16,r2
   21ea4:	e0bf7b15 	stw	r2,-532(fp)
    while(alt_nticks() < time_finish && bSuccess){
   21ea8:	00001106 	br	21ef0 <Fat_SpeedTest+0xc4>
        bSuccess = pVol->ReadBlock512(pVol->DiskHandle, nSecter, szBlock);
   21eac:	e0bf7917 	ldw	r2,-540(fp)
   21eb0:	10800117 	ldw	r2,4(r2)
   21eb4:	e0ff7917 	ldw	r3,-540(fp)
   21eb8:	18c00017 	ldw	r3,0(r3)
   21ebc:	e13f7717 	ldw	r4,-548(fp)
   21ec0:	e17f7d04 	addi	r5,fp,-524
   21ec4:	280d883a 	mov	r6,r5
   21ec8:	200b883a 	mov	r5,r4
   21ecc:	1809883a 	mov	r4,r3
   21ed0:	103ee83a 	callr	r2
   21ed4:	e0bf7515 	stw	r2,-556(fp)
        nSecter++;
   21ed8:	e0bf7717 	ldw	r2,-548(fp)
   21edc:	10800044 	addi	r2,r2,1
   21ee0:	e0bf7715 	stw	r2,-548(fp)
        TotalReadBytes += sizeof(szBlock);
   21ee4:	e0bf7617 	ldw	r2,-552(fp)
   21ee8:	10808004 	addi	r2,r2,512
   21eec:	e0bf7615 	stw	r2,-552(fp)
 * alt_nticks() returns the elapsed number of system clock ticks since reset.
 */

static ALT_INLINE alt_u32 ALT_ALWAYS_INLINE alt_nticks (void)
{
  return _alt_nticks;
   21ef0:	d0e0de17 	ldw	r3,-31880(gp)
    VOLUME_INFO *pVol = (VOLUME_INFO *)hFat;
    if (!pVol)
        return 0;
    time_start = alt_nticks();
    time_finish = alt_nticks() + TestDurInMs * 1000 / alt_ticks_per_second();
    while(alt_nticks() < time_finish && bSuccess){
   21ef4:	e0bf7b17 	ldw	r2,-532(fp)
   21ef8:	1880022e 	bgeu	r3,r2,21f04 <Fat_SpeedTest+0xd8>
   21efc:	e0bf7517 	ldw	r2,-556(fp)
   21f00:	103fea1e 	bne	r2,zero,21eac <_gp+0xfffe6900>
        bSuccess = pVol->ReadBlock512(pVol->DiskHandle, nSecter, szBlock);
        nSecter++;
        TotalReadBytes += sizeof(szBlock);
        
    }        
    if (bSuccess){
   21f04:	e0bf7517 	ldw	r2,-556(fp)
   21f08:	10003326 	beq	r2,zero,21fd8 <Fat_SpeedTest+0x1ac>
   21f0c:	d0e0de17 	ldw	r3,-31880(gp)
        time_elapsed = alt_nticks() - time_start;
   21f10:	e0bf7a17 	ldw	r2,-536(fp)
   21f14:	1885c83a 	sub	r2,r3,r2
   21f18:	e0bf7c15 	stw	r2,-528(fp)
        fMegaBytePerSec = (float)TotalReadBytes * (float)alt_ticks_per_second() / (float)time_elapsed / 1024.0 / 1024.0;
   21f1c:	e13f7617 	ldw	r4,-552(fp)
   21f20:	002c1700 	call	2c170 <__floatunsisf>
   21f24:	1021883a 	mov	r16,r2
 * Obtain the system clock rate in ticks/s. 
 */

static ALT_INLINE alt_u32 ALT_ALWAYS_INLINE alt_ticks_per_second (void)
{
  return _alt_tick_rate;
   21f28:	d0a0dd17 	ldw	r2,-31884(gp)
   21f2c:	1009883a 	mov	r4,r2
   21f30:	002c1700 	call	2c170 <__floatunsisf>
   21f34:	1007883a 	mov	r3,r2
   21f38:	180b883a 	mov	r5,r3
   21f3c:	8009883a 	mov	r4,r16
   21f40:	002bd400 	call	2bd40 <__mulsf3>
   21f44:	1007883a 	mov	r3,r2
   21f48:	1821883a 	mov	r16,r3
   21f4c:	e13f7c17 	ldw	r4,-528(fp)
   21f50:	002c1700 	call	2c170 <__floatunsisf>
   21f54:	1007883a 	mov	r3,r2
   21f58:	180b883a 	mov	r5,r3
   21f5c:	8009883a 	mov	r4,r16
   21f60:	002b9000 	call	2b900 <__divsf3>
   21f64:	1007883a 	mov	r3,r2
   21f68:	1805883a 	mov	r2,r3
   21f6c:	1009883a 	mov	r4,r2
   21f70:	002e9f80 	call	2e9f8 <__extendsfdf2>
   21f74:	1011883a 	mov	r8,r2
   21f78:	1813883a 	mov	r9,r3
   21f7c:	000d883a 	mov	r6,zero
   21f80:	01d02434 	movhi	r7,16528
   21f84:	4009883a 	mov	r4,r8
   21f88:	480b883a 	mov	r5,r9
   21f8c:	002cb0c0 	call	2cb0c <__divdf3>
   21f90:	1009883a 	mov	r4,r2
   21f94:	180b883a 	mov	r5,r3
   21f98:	2005883a 	mov	r2,r4
   21f9c:	2807883a 	mov	r3,r5
   21fa0:	000d883a 	mov	r6,zero
   21fa4:	01d02434 	movhi	r7,16528
   21fa8:	1009883a 	mov	r4,r2
   21fac:	180b883a 	mov	r5,r3
   21fb0:	002cb0c0 	call	2cb0c <__divdf3>
   21fb4:	1009883a 	mov	r4,r2
   21fb8:	180b883a 	mov	r5,r3
   21fbc:	2005883a 	mov	r2,r4
   21fc0:	2807883a 	mov	r3,r5
   21fc4:	1009883a 	mov	r4,r2
   21fc8:	180b883a 	mov	r5,r3
   21fcc:	002eb080 	call	2eb08 <__truncdfsf2>
   21fd0:	1007883a 	mov	r3,r2
   21fd4:	e0ff7815 	stw	r3,-544(fp)
    }        
    return fMegaBytePerSec;
   21fd8:	e0bf7817 	ldw	r2,-544(fp)
   21fdc:	1007883a 	mov	r3,r2
    
   
}
   21fe0:	1805883a 	mov	r2,r3
   21fe4:	e6ffff04 	addi	sp,fp,-4
   21fe8:	dfc00217 	ldw	ra,8(sp)
   21fec:	df000117 	ldw	fp,4(sp)
   21ff0:	dc000017 	ldw	r16,0(sp)
   21ff4:	dec00304 	addi	sp,sp,12
   21ff8:	f800283a 	ret

00021ffc <fat16ClusterType>:
//extern VOLUME_INFO gVolumeInfo;




CLUSTER_TYPE fat16ClusterType(alt_u32 Fat){
   21ffc:	defffd04 	addi	sp,sp,-12
   22000:	df000215 	stw	fp,8(sp)
   22004:	df000204 	addi	fp,sp,8
   22008:	e13fff15 	stw	r4,-4(fp)
    CLUSTER_TYPE Type;
    Fat = Fat & 0xFFFF; // 16 bits
   2200c:	e0bfff17 	ldw	r2,-4(fp)
   22010:	10bfffcc 	andi	r2,r2,65535
   22014:	e0bfff15 	stw	r2,-4(fp)
    
    if (Fat > 0 && Fat < 0xFFF0)
   22018:	e0bfff17 	ldw	r2,-4(fp)
   2201c:	10000626 	beq	r2,zero,22038 <fat16ClusterType+0x3c>
   22020:	e0bfff17 	ldw	r2,-4(fp)
   22024:	10bffc28 	cmpgeui	r2,r2,65520
   22028:	1000031e 	bne	r2,zero,22038 <fat16ClusterType+0x3c>
        Type = CLUSTER_NEXT_INFILE;
   2202c:	00800104 	movi	r2,4
   22030:	e0bffe15 	stw	r2,-8(fp)
   22034:	00001806 	br	22098 <fat16ClusterType+0x9c>
    else if (Fat >= 0xFFF8) // && Fat <= (unsigned short)0xFFFF)
   22038:	e0bfff17 	ldw	r2,-4(fp)
   2203c:	10bffe30 	cmpltui	r2,r2,65528
   22040:	1000031e 	bne	r2,zero,22050 <fat16ClusterType+0x54>
        Type = CLUSTER_LAST_INFILE;
   22044:	008000c4 	movi	r2,3
   22048:	e0bffe15 	stw	r2,-8(fp)
   2204c:	00001206 	br	22098 <fat16ClusterType+0x9c>
    else if (Fat == (alt_u16)0x00)
   22050:	e0bfff17 	ldw	r2,-4(fp)
   22054:	1000021e 	bne	r2,zero,22060 <fat16ClusterType+0x64>
        Type = CLUSTER_UNUSED;
   22058:	e03ffe15 	stw	zero,-8(fp)
   2205c:	00000e06 	br	22098 <fat16ClusterType+0x9c>
    else if (Fat >= 0xFFF0 && Fat <= 0xFFF6)
   22060:	e0bfff17 	ldw	r2,-4(fp)
   22064:	10bffc30 	cmpltui	r2,r2,65520
   22068:	1000061e 	bne	r2,zero,22084 <fat16ClusterType+0x88>
   2206c:	e0bfff17 	ldw	r2,-4(fp)
   22070:	10bffde8 	cmpgeui	r2,r2,65527
   22074:	1000031e 	bne	r2,zero,22084 <fat16ClusterType+0x88>
        Type = CLUSTER_RESERVED;
   22078:	00800044 	movi	r2,1
   2207c:	e0bffe15 	stw	r2,-8(fp)
   22080:	00000506 	br	22098 <fat16ClusterType+0x9c>
    else if (Fat == 0xFFF7)
   22084:	e0ffff17 	ldw	r3,-4(fp)
   22088:	00bffdd4 	movui	r2,65527
   2208c:	1880021e 	bne	r3,r2,22098 <fat16ClusterType+0x9c>
        Type = CLUSTER_BAD;
   22090:	00800084 	movi	r2,2
   22094:	e0bffe15 	stw	r2,-8(fp)
        
    return Type;        
   22098:	e0bffe17 	ldw	r2,-8(fp)
         
}
   2209c:	e037883a 	mov	sp,fp
   220a0:	df000017 	ldw	fp,0(sp)
   220a4:	dec00104 	addi	sp,sp,4
   220a8:	f800283a 	ret

000220ac <fat32ClusterType>:

CLUSTER_TYPE fat32ClusterType(alt_u32 Fat){
   220ac:	defffd04 	addi	sp,sp,-12
   220b0:	df000215 	stw	fp,8(sp)
   220b4:	df000204 	addi	fp,sp,8
   220b8:	e13fff15 	stw	r4,-4(fp)
    CLUSTER_TYPE Type;
    Fat = Fat & 0xFFFFFFF; // 28 bits
   220bc:	e0ffff17 	ldw	r3,-4(fp)
   220c0:	00840034 	movhi	r2,4096
   220c4:	10bfffc4 	addi	r2,r2,-1
   220c8:	1884703a 	and	r2,r3,r2
   220cc:	e0bfff15 	stw	r2,-4(fp)
    
    if (Fat > 0 && Fat < 0xFFFFFF0)
   220d0:	e0bfff17 	ldw	r2,-4(fp)
   220d4:	10000726 	beq	r2,zero,220f4 <fat32ClusterType+0x48>
   220d8:	e0ffff17 	ldw	r3,-4(fp)
   220dc:	00840034 	movhi	r2,4096
   220e0:	10bffbc4 	addi	r2,r2,-17
   220e4:	10c00336 	bltu	r2,r3,220f4 <fat32ClusterType+0x48>
        Type = CLUSTER_NEXT_INFILE;
   220e8:	00800104 	movi	r2,4
   220ec:	e0bffe15 	stw	r2,-8(fp)
   220f0:	00001c06 	br	22164 <fat32ClusterType+0xb8>
    else if (Fat >= 0xFFFFFF8) // && Fat <= (unsigned short)0xFFFF)
   220f4:	e0ffff17 	ldw	r3,-4(fp)
   220f8:	00840034 	movhi	r2,4096
   220fc:	10bffdc4 	addi	r2,r2,-9
   22100:	10c0032e 	bgeu	r2,r3,22110 <fat32ClusterType+0x64>
        Type = CLUSTER_LAST_INFILE;
   22104:	008000c4 	movi	r2,3
   22108:	e0bffe15 	stw	r2,-8(fp)
   2210c:	00001506 	br	22164 <fat32ClusterType+0xb8>
    else if (Fat == (alt_u32)0x00)
   22110:	e0bfff17 	ldw	r2,-4(fp)
   22114:	1000021e 	bne	r2,zero,22120 <fat32ClusterType+0x74>
        Type = CLUSTER_UNUSED;
   22118:	e03ffe15 	stw	zero,-8(fp)
   2211c:	00001106 	br	22164 <fat32ClusterType+0xb8>
    else if (Fat >= 0xFFFFFF0 && Fat <= 0xFFFFFF6)
   22120:	e0ffff17 	ldw	r3,-4(fp)
   22124:	00840034 	movhi	r2,4096
   22128:	10bffbc4 	addi	r2,r2,-17
   2212c:	10c0072e 	bgeu	r2,r3,2214c <fat32ClusterType+0xa0>
   22130:	e0ffff17 	ldw	r3,-4(fp)
   22134:	00840034 	movhi	r2,4096
   22138:	10bffd84 	addi	r2,r2,-10
   2213c:	10c00336 	bltu	r2,r3,2214c <fat32ClusterType+0xa0>
        Type = CLUSTER_RESERVED;
   22140:	00800044 	movi	r2,1
   22144:	e0bffe15 	stw	r2,-8(fp)
   22148:	00000606 	br	22164 <fat32ClusterType+0xb8>
    else if (Fat == 0xFFFFFF7)
   2214c:	e0ffff17 	ldw	r3,-4(fp)
   22150:	00840034 	movhi	r2,4096
   22154:	10bffdc4 	addi	r2,r2,-9
   22158:	1880021e 	bne	r3,r2,22164 <fat32ClusterType+0xb8>
        Type = CLUSTER_BAD;
   2215c:	00800084 	movi	r2,2
   22160:	e0bffe15 	stw	r2,-8(fp)
        
    return Type;        
   22164:	e0bffe17 	ldw	r2,-8(fp)
         
}
   22168:	e037883a 	mov	sp,fp
   2216c:	df000017 	ldw	fp,0(sp)
   22170:	dec00104 	addi	sp,sp,4
   22174:	f800283a 	ret

00022178 <fatNextCluster>:

alt_u32 fatNextCluster(VOLUME_INFO *pVol, alt_u32 ThisCluster){
   22178:	defff604 	addi	sp,sp,-40
   2217c:	dfc00915 	stw	ra,36(sp)
   22180:	df000815 	stw	fp,32(sp)
   22184:	dc000715 	stw	r16,28(sp)
   22188:	df000804 	addi	fp,sp,32
   2218c:	e13ffd15 	stw	r4,-12(fp)
   22190:	e17ffe15 	stw	r5,-8(fp)
    if (ClusterType != CLUSTER_NEXT_INFILE && ClusterType != CLUSTER_LAST_INFILE){
        NextCluster = 0;  // invalid cluster
    }        
#else
    alt_32 nFatEntryPerSecter;
    const alt_32 nFatEntrySize = (pVol->Partition_Type == PARTITION_FAT16)?2:4; // 2 byte for FAT16
   22194:	e0bffd17 	ldw	r2,-12(fp)
   22198:	10800317 	ldw	r2,12(r2)
   2219c:	10800198 	cmpnei	r2,r2,6
   221a0:	1000021e 	bne	r2,zero,221ac <fatNextCluster+0x34>
   221a4:	00800084 	movi	r2,2
   221a8:	00000106 	br	221b0 <fatNextCluster+0x38>
   221ac:	00800104 	movi	r2,4
   221b0:	e0bffa15 	stw	r2,-24(fp)
    alt_u32 Secter;
   // char szBlock[512];
    nFatEntryPerSecter = pVol->BPB_BytsPerSec/nFatEntrySize; 
   221b4:	e0bffd17 	ldw	r2,-12(fp)
   221b8:	10800617 	ldw	r2,24(r2)
   221bc:	e0fffa17 	ldw	r3,-24(fp)
   221c0:	180b883a 	mov	r5,r3
   221c4:	1009883a 	mov	r4,r2
   221c8:	002b81c0 	call	2b81c <__udivsi3>
   221cc:	e0bffb15 	stw	r2,-20(fp)
    Secter = pVol->FatEntrySecter + (ThisCluster*nFatEntrySize)/pVol->BPB_BytsPerSec;
   221d0:	e0bffd17 	ldw	r2,-12(fp)
   221d4:	14000d17 	ldw	r16,52(r2)
   221d8:	e0bffa17 	ldw	r2,-24(fp)
   221dc:	e17ffe17 	ldw	r5,-8(fp)
   221e0:	1009883a 	mov	r4,r2
   221e4:	002b8d80 	call	2b8d8 <__mulsi3>
   221e8:	1007883a 	mov	r3,r2
   221ec:	e0bffd17 	ldw	r2,-12(fp)
   221f0:	10800617 	ldw	r2,24(r2)
   221f4:	100b883a 	mov	r5,r2
   221f8:	1809883a 	mov	r4,r3
   221fc:	002b81c0 	call	2b81c <__udivsi3>
   22200:	8085883a 	add	r2,r16,r2
   22204:	e0bffc15 	stw	r2,-16(fp)
    //if (pVol->ReadBlock512(pVol->DiskHandle, Secter,szBlock)){
    if (fatReadSecter(pVol, Secter)){
   22208:	e17ffc17 	ldw	r5,-16(fp)
   2220c:	e13ffd17 	ldw	r4,-12(fp)
   22210:	0022ae40 	call	22ae4 <fatReadSecter>
   22214:	10003526 	beq	r2,zero,222ec <fatNextCluster+0x174>
    	if (pVol->Partition_Type == PARTITION_FAT32 || pVol->Partition_Type == PARTITION_FAT32_CHS){
   22218:	e0bffd17 	ldw	r2,-12(fp)
   2221c:	10800317 	ldw	r2,12(r2)
   22220:	10800320 	cmpeqi	r2,r2,12
   22224:	1000041e 	bne	r2,zero,22238 <fatNextCluster+0xc0>
   22228:	e0bffd17 	ldw	r2,-12(fp)
   2222c:	10800317 	ldw	r2,12(r2)
   22230:	108002d8 	cmpnei	r2,r2,11
   22234:	1000131e 	bne	r2,zero,22284 <fatNextCluster+0x10c>
            NextCluster = *(alt_u32*)(pVol->Secter_Data + (ThisCluster%nFatEntryPerSecter)*nFatEntrySize); 
   22238:	e0bffd17 	ldw	r2,-12(fp)
   2223c:	14001004 	addi	r16,r2,64
   22240:	e0fffb17 	ldw	r3,-20(fp)
   22244:	e0bffe17 	ldw	r2,-8(fp)
   22248:	180b883a 	mov	r5,r3
   2224c:	1009883a 	mov	r4,r2
   22250:	002b8800 	call	2b880 <__umodsi3>
   22254:	1007883a 	mov	r3,r2
   22258:	e0bffa17 	ldw	r2,-24(fp)
   2225c:	100b883a 	mov	r5,r2
   22260:	1809883a 	mov	r4,r3
   22264:	002b8d80 	call	2b8d8 <__mulsi3>
   22268:	8085883a 	add	r2,r16,r2
   2226c:	10800017 	ldw	r2,0(r2)
   22270:	e0bff915 	stw	r2,-28(fp)
            ClusterType = fat32ClusterType(NextCluster);
   22274:	e13ff917 	ldw	r4,-28(fp)
   22278:	00220ac0 	call	220ac <fat32ClusterType>
   2227c:	e0bff815 	stw	r2,-32(fp)
   22280:	00001306 	br	222d0 <fatNextCluster+0x158>
        }else{
            NextCluster = *(alt_u16 *)(pVol->Secter_Data + (ThisCluster%nFatEntryPerSecter)*nFatEntrySize); 
   22284:	e0bffd17 	ldw	r2,-12(fp)
   22288:	14001004 	addi	r16,r2,64
   2228c:	e0fffb17 	ldw	r3,-20(fp)
   22290:	e0bffe17 	ldw	r2,-8(fp)
   22294:	180b883a 	mov	r5,r3
   22298:	1009883a 	mov	r4,r2
   2229c:	002b8800 	call	2b880 <__umodsi3>
   222a0:	1007883a 	mov	r3,r2
   222a4:	e0bffa17 	ldw	r2,-24(fp)
   222a8:	100b883a 	mov	r5,r2
   222ac:	1809883a 	mov	r4,r3
   222b0:	002b8d80 	call	2b8d8 <__mulsi3>
   222b4:	8085883a 	add	r2,r16,r2
   222b8:	1080000b 	ldhu	r2,0(r2)
   222bc:	10bfffcc 	andi	r2,r2,65535
   222c0:	e0bff915 	stw	r2,-28(fp)
            ClusterType = fat16ClusterType(NextCluster);
   222c4:	e13ff917 	ldw	r4,-28(fp)
   222c8:	0021ffc0 	call	21ffc <fat16ClusterType>
   222cc:	e0bff815 	stw	r2,-32(fp)
        }    
        if (ClusterType != CLUSTER_NEXT_INFILE && ClusterType != CLUSTER_LAST_INFILE)
   222d0:	e0bff817 	ldw	r2,-32(fp)
   222d4:	10800120 	cmpeqi	r2,r2,4
   222d8:	1000041e 	bne	r2,zero,222ec <fatNextCluster+0x174>
   222dc:	e0bff817 	ldw	r2,-32(fp)
   222e0:	108000e0 	cmpeqi	r2,r2,3
   222e4:	1000011e 	bne	r2,zero,222ec <fatNextCluster+0x174>
            NextCluster = 0;  // invalid cluster
   222e8:	e03ff915 	stw	zero,-28(fp)
    }                
    
    
    return NextCluster;
   222ec:	e0bff917 	ldw	r2,-28(fp)

#endif    
    
    return NextCluster;
}
   222f0:	e6ffff04 	addi	sp,fp,-4
   222f4:	dfc00217 	ldw	ra,8(sp)
   222f8:	df000117 	ldw	fp,4(sp)
   222fc:	dc000017 	ldw	r16,0(sp)
   22300:	dec00304 	addi	sp,sp,12
   22304:	f800283a 	ret

00022308 <fatFindUnusedCluster>:

alt_u32 fatFindUnusedCluster(VOLUME_INFO *pVol){
   22308:	defff304 	addi	sp,sp,-52
   2230c:	dfc00c15 	stw	ra,48(sp)
   22310:	df000b15 	stw	fp,44(sp)
   22314:	dc000a15 	stw	r16,40(sp)
   22318:	df000b04 	addi	fp,sp,44
   2231c:	e13ffe15 	stw	r4,-8(fp)
    CLUSTER_TYPE ClusterType;
    alt_u32 UnusedCluster=-1, ThisCluster = 2, ClusterEntryValue;
   22320:	00bfffc4 	movi	r2,-1
   22324:	e0bff615 	stw	r2,-40(fp)
   22328:	00800084 	movi	r2,2
   2232c:	e0bff715 	stw	r2,-36(fp)
    void *pFatEntry;

    const alt_32 nFatEntrySize = (pVol->Partition_Type == PARTITION_FAT16)?2:4; // 2 byte for FAT16
   22330:	e0bffe17 	ldw	r2,-8(fp)
   22334:	10800317 	ldw	r2,12(r2)
   22338:	10800198 	cmpnei	r2,r2,6
   2233c:	1000021e 	bne	r2,zero,22348 <fatFindUnusedCluster+0x40>
   22340:	00800084 	movi	r2,2
   22344:	00000106 	br	2234c <fatFindUnusedCluster+0x44>
   22348:	00800104 	movi	r2,4
   2234c:	e0bff915 	stw	r2,-28(fp)
    const alt_32 nFatEntryPerSecter = pVol->BPB_BytsPerSec/nFatEntrySize;
   22350:	e0bffe17 	ldw	r2,-8(fp)
   22354:	10800617 	ldw	r2,24(r2)
   22358:	e0fff917 	ldw	r3,-28(fp)
   2235c:	180b883a 	mov	r5,r3
   22360:	1009883a 	mov	r4,r2
   22364:	002b81c0 	call	2b81c <__udivsi3>
   22368:	e0bffa15 	stw	r2,-24(fp)
    alt_u32 Secter;
    bool bDone = FALSE;
   2236c:	e03ff815 	stw	zero,-32(fp)

    while(!bDone){     
   22370:	00004206 	br	2247c <fatFindUnusedCluster+0x174>
        Secter = pVol->FatEntrySecter + (ThisCluster*nFatEntrySize)/pVol->BPB_BytsPerSec;
   22374:	e0bffe17 	ldw	r2,-8(fp)
   22378:	14000d17 	ldw	r16,52(r2)
   2237c:	e0bff917 	ldw	r2,-28(fp)
   22380:	e17ff717 	ldw	r5,-36(fp)
   22384:	1009883a 	mov	r4,r2
   22388:	002b8d80 	call	2b8d8 <__mulsi3>
   2238c:	1007883a 	mov	r3,r2
   22390:	e0bffe17 	ldw	r2,-8(fp)
   22394:	10800617 	ldw	r2,24(r2)
   22398:	100b883a 	mov	r5,r2
   2239c:	1809883a 	mov	r4,r3
   223a0:	002b81c0 	call	2b81c <__udivsi3>
   223a4:	8085883a 	add	r2,r16,r2
   223a8:	e0bffb15 	stw	r2,-20(fp)
        if (fatReadSecter(pVol, Secter)){
   223ac:	e17ffb17 	ldw	r5,-20(fp)
   223b0:	e13ffe17 	ldw	r4,-8(fp)
   223b4:	0022ae40 	call	22ae4 <fatReadSecter>
   223b8:	10002b26 	beq	r2,zero,22468 <fatFindUnusedCluster+0x160>
            pFatEntry = (pVol->Secter_Data + (ThisCluster%nFatEntryPerSecter)*nFatEntrySize);
   223bc:	e0bffe17 	ldw	r2,-8(fp)
   223c0:	14001004 	addi	r16,r2,64
   223c4:	e0fffa17 	ldw	r3,-24(fp)
   223c8:	e0bff717 	ldw	r2,-36(fp)
   223cc:	180b883a 	mov	r5,r3
   223d0:	1009883a 	mov	r4,r2
   223d4:	002b8800 	call	2b880 <__umodsi3>
   223d8:	1007883a 	mov	r3,r2
   223dc:	e0bff917 	ldw	r2,-28(fp)
   223e0:	100b883a 	mov	r5,r2
   223e4:	1809883a 	mov	r4,r3
   223e8:	002b8d80 	call	2b8d8 <__mulsi3>
   223ec:	8085883a 	add	r2,r16,r2
   223f0:	e0bffc15 	stw	r2,-16(fp)
            if (pVol->Partition_Type == PARTITION_FAT32 || pVol->Partition_Type == PARTITION_FAT32_CHS){
   223f4:	e0bffe17 	ldw	r2,-8(fp)
   223f8:	10800317 	ldw	r2,12(r2)
   223fc:	10800320 	cmpeqi	r2,r2,12
   22400:	1000041e 	bne	r2,zero,22414 <fatFindUnusedCluster+0x10c>
   22404:	e0bffe17 	ldw	r2,-8(fp)
   22408:	10800317 	ldw	r2,12(r2)
   2240c:	108002d8 	cmpnei	r2,r2,11
   22410:	1000071e 	bne	r2,zero,22430 <fatFindUnusedCluster+0x128>
                ClusterEntryValue = *(alt_u32*)pFatEntry; 
   22414:	e0bffc17 	ldw	r2,-16(fp)
   22418:	10800017 	ldw	r2,0(r2)
   2241c:	e0bffd15 	stw	r2,-12(fp)
                ClusterType = fat32ClusterType(ClusterEntryValue);
   22420:	e13ffd17 	ldw	r4,-12(fp)
   22424:	00220ac0 	call	220ac <fat32ClusterType>
   22428:	e0bff515 	stw	r2,-44(fp)
   2242c:	00000706 	br	2244c <fatFindUnusedCluster+0x144>
            }else{
                ClusterEntryValue = *(alt_u16 *)pFatEntry; 
   22430:	e0bffc17 	ldw	r2,-16(fp)
   22434:	1080000b 	ldhu	r2,0(r2)
   22438:	10bfffcc 	andi	r2,r2,65535
   2243c:	e0bffd15 	stw	r2,-12(fp)
                ClusterType = fat16ClusterType(ClusterEntryValue);
   22440:	e13ffd17 	ldw	r4,-12(fp)
   22444:	0021ffc0 	call	21ffc <fat16ClusterType>
   22448:	e0bff515 	stw	r2,-44(fp)
            }    
            if (ClusterType == CLUSTER_UNUSED){
   2244c:	e0bff517 	ldw	r2,-44(fp)
   22450:	1000071e 	bne	r2,zero,22470 <fatFindUnusedCluster+0x168>
                UnusedCluster = ThisCluster;  // invalid cluster
   22454:	e0bff717 	ldw	r2,-36(fp)
   22458:	e0bff615 	stw	r2,-40(fp)
                bDone = TRUE;
   2245c:	00800044 	movi	r2,1
   22460:	e0bff815 	stw	r2,-32(fp)
   22464:	00000206 	br	22470 <fatFindUnusedCluster+0x168>
            }    
        }else{
            bDone = TRUE;
   22468:	00800044 	movi	r2,1
   2246c:	e0bff815 	stw	r2,-32(fp)
        }     
        ThisCluster++;           
   22470:	e0bff717 	ldw	r2,-36(fp)
   22474:	10800044 	addi	r2,r2,1
   22478:	e0bff715 	stw	r2,-36(fp)
    const alt_32 nFatEntrySize = (pVol->Partition_Type == PARTITION_FAT16)?2:4; // 2 byte for FAT16
    const alt_32 nFatEntryPerSecter = pVol->BPB_BytsPerSec/nFatEntrySize;
    alt_u32 Secter;
    bool bDone = FALSE;

    while(!bDone){     
   2247c:	e0bff817 	ldw	r2,-32(fp)
   22480:	103fbc26 	beq	r2,zero,22374 <_gp+0xfffe6dc8>
            bDone = TRUE;
        }     
        ThisCluster++;           
    }                
    
    return UnusedCluster;
   22484:	e0bff617 	ldw	r2,-40(fp)

}
   22488:	e6ffff04 	addi	sp,fp,-4
   2248c:	dfc00217 	ldw	ra,8(sp)
   22490:	df000117 	ldw	fp,4(sp)
   22494:	dc000017 	ldw	r16,0(sp)
   22498:	dec00304 	addi	sp,sp,12
   2249c:	f800283a 	ret

000224a0 <fatDelClusterList>:


bool fatDelClusterList(VOLUME_INFO *pVol, alt_u32 StartCluster){
   224a0:	defff204 	addi	sp,sp,-56
   224a4:	dfc00d15 	stw	ra,52(sp)
   224a8:	df000c15 	stw	fp,48(sp)
   224ac:	dc000b15 	stw	r16,44(sp)
   224b0:	df000c04 	addi	fp,sp,48
   224b4:	e13ffd15 	stw	r4,-12(fp)
   224b8:	e17ffe15 	stw	r5,-8(fp)
    CLUSTER_TYPE ClusterType;
    bool bSuccess = TRUE;
   224bc:	00800044 	movi	r2,1
   224c0:	e0bff515 	stw	r2,-44(fp)
    bool bDone = FALSE;
   224c4:	e03ff615 	stw	zero,-40(fp)
    alt_u32 ClusterIndex, Secter, ClusterEntryValue;
    void *pFatEntryValue;
    
    
    const int nFatEntrySize = (pVol->Partition_Type == PARTITION_FAT16)?2:4; // 2 byte for FAT16
   224c8:	e0bffd17 	ldw	r2,-12(fp)
   224cc:	10800317 	ldw	r2,12(r2)
   224d0:	10800198 	cmpnei	r2,r2,6
   224d4:	1000021e 	bne	r2,zero,224e0 <fatDelClusterList+0x40>
   224d8:	00800084 	movi	r2,2
   224dc:	00000106 	br	224e4 <fatDelClusterList+0x44>
   224e0:	00800104 	movi	r2,4
   224e4:	e0bff715 	stw	r2,-36(fp)
    const int nFatEntryPerSecter = pVol->BPB_BytsPerSec/nFatEntrySize;
   224e8:	e0bffd17 	ldw	r2,-12(fp)
   224ec:	10800617 	ldw	r2,24(r2)
   224f0:	e0fff717 	ldw	r3,-36(fp)
   224f4:	180b883a 	mov	r5,r3
   224f8:	1009883a 	mov	r4,r2
   224fc:	002b81c0 	call	2b81c <__udivsi3>
   22500:	e0bff815 	stw	r2,-32(fp)
     
    ClusterIndex = StartCluster;
   22504:	e0bffe17 	ldw	r2,-8(fp)
   22508:	e0bff915 	stw	r2,-28(fp)
    while(bSuccess && !bDone){
   2250c:	00005f06 	br	2268c <fatDelClusterList+0x1ec>
        // read FAT Table
        Secter = pVol->FatEntrySecter + (ClusterIndex*nFatEntrySize)/pVol->BPB_BytsPerSec;
   22510:	e0bffd17 	ldw	r2,-12(fp)
   22514:	14000d17 	ldw	r16,52(r2)
   22518:	e0bff717 	ldw	r2,-36(fp)
   2251c:	e17ff917 	ldw	r5,-28(fp)
   22520:	1009883a 	mov	r4,r2
   22524:	002b8d80 	call	2b8d8 <__mulsi3>
   22528:	1007883a 	mov	r3,r2
   2252c:	e0bffd17 	ldw	r2,-12(fp)
   22530:	10800617 	ldw	r2,24(r2)
   22534:	100b883a 	mov	r5,r2
   22538:	1809883a 	mov	r4,r3
   2253c:	002b81c0 	call	2b81c <__udivsi3>
   22540:	8085883a 	add	r2,r16,r2
   22544:	e0bffa15 	stw	r2,-24(fp)
        bSuccess = fatReadSecter(pVol, Secter);
   22548:	e17ffa17 	ldw	r5,-24(fp)
   2254c:	e13ffd17 	ldw	r4,-12(fp)
   22550:	0022ae40 	call	22ae4 <fatReadSecter>
   22554:	e0bff515 	stw	r2,-44(fp)
        if (bSuccess){
   22558:	e0bff517 	ldw	r2,-44(fp)
   2255c:	10004b26 	beq	r2,zero,2268c <fatDelClusterList+0x1ec>
            // get the value of FAT entry
            pFatEntryValue = (pVol->Secter_Data + (ClusterIndex%nFatEntryPerSecter)*nFatEntrySize);
   22560:	e0bffd17 	ldw	r2,-12(fp)
   22564:	14001004 	addi	r16,r2,64
   22568:	e0fff817 	ldw	r3,-32(fp)
   2256c:	e0bff917 	ldw	r2,-28(fp)
   22570:	180b883a 	mov	r5,r3
   22574:	1009883a 	mov	r4,r2
   22578:	002b8800 	call	2b880 <__umodsi3>
   2257c:	1007883a 	mov	r3,r2
   22580:	e0bff717 	ldw	r2,-36(fp)
   22584:	100b883a 	mov	r5,r2
   22588:	1809883a 	mov	r4,r3
   2258c:	002b8d80 	call	2b8d8 <__mulsi3>
   22590:	8085883a 	add	r2,r16,r2
   22594:	e0bffb15 	stw	r2,-20(fp)
            if (pVol->Partition_Type == PARTITION_FAT32 || pVol->Partition_Type == PARTITION_FAT32_CHS){
   22598:	e0bffd17 	ldw	r2,-12(fp)
   2259c:	10800317 	ldw	r2,12(r2)
   225a0:	10800320 	cmpeqi	r2,r2,12
   225a4:	1000041e 	bne	r2,zero,225b8 <fatDelClusterList+0x118>
   225a8:	e0bffd17 	ldw	r2,-12(fp)
   225ac:	10800317 	ldw	r2,12(r2)
   225b0:	108002d8 	cmpnei	r2,r2,11
   225b4:	1000071e 	bne	r2,zero,225d4 <fatDelClusterList+0x134>
                ClusterEntryValue = *(alt_u32 *)pFatEntryValue; 
   225b8:	e0bffb17 	ldw	r2,-20(fp)
   225bc:	10800017 	ldw	r2,0(r2)
   225c0:	e0bffc15 	stw	r2,-16(fp)
                ClusterType = fat32ClusterType(ClusterEntryValue);
   225c4:	e13ffc17 	ldw	r4,-16(fp)
   225c8:	00220ac0 	call	220ac <fat32ClusterType>
   225cc:	e0bff415 	stw	r2,-48(fp)
   225d0:	00000706 	br	225f0 <fatDelClusterList+0x150>
            }else{
                ClusterEntryValue = *(alt_u16 *)pFatEntryValue; //(pVol->Secter_Data + (ThisCluster%nFatEntryPerSecter)*nFatEntrySize); 
   225d4:	e0bffb17 	ldw	r2,-20(fp)
   225d8:	1080000b 	ldhu	r2,0(r2)
   225dc:	10bfffcc 	andi	r2,r2,65535
   225e0:	e0bffc15 	stw	r2,-16(fp)
                ClusterType = fat16ClusterType(ClusterEntryValue);
   225e4:	e13ffc17 	ldw	r4,-16(fp)
   225e8:	0021ffc0 	call	21ffc <fat16ClusterType>
   225ec:	e0bff415 	stw	r2,-48(fp)
            }
                
            if (ClusterType != CLUSTER_NEXT_INFILE && ClusterType != CLUSTER_LAST_INFILE){
   225f0:	e0bff417 	ldw	r2,-48(fp)
   225f4:	10800120 	cmpeqi	r2,r2,4
   225f8:	1000071e 	bne	r2,zero,22618 <fatDelClusterList+0x178>
   225fc:	e0bff417 	ldw	r2,-48(fp)
   22600:	108000e0 	cmpeqi	r2,r2,3
   22604:	1000041e 	bne	r2,zero,22618 <fatDelClusterList+0x178>
                bDone = TRUE;
   22608:	00800044 	movi	r2,1
   2260c:	e0bff615 	stw	r2,-40(fp)
                bSuccess = FALSE;
   22610:	e03ff515 	stw	zero,-44(fp)
   22614:	00001d06 	br	2268c <fatDelClusterList+0x1ec>
            }else{
                if (ClusterType == CLUSTER_LAST_INFILE)
   22618:	e0bff417 	ldw	r2,-48(fp)
   2261c:	108000d8 	cmpnei	r2,r2,3
   22620:	1000021e 	bne	r2,zero,2262c <fatDelClusterList+0x18c>
                    bDone = TRUE; // the last cluster
   22624:	00800044 	movi	r2,1
   22628:	e0bff615 	stw	r2,-40(fp)
                // update
                if (pVol->Partition_Type == PARTITION_FAT32 || pVol->Partition_Type == PARTITION_FAT32_CHS)
   2262c:	e0bffd17 	ldw	r2,-12(fp)
   22630:	10800317 	ldw	r2,12(r2)
   22634:	10800320 	cmpeqi	r2,r2,12
   22638:	1000041e 	bne	r2,zero,2264c <fatDelClusterList+0x1ac>
   2263c:	e0bffd17 	ldw	r2,-12(fp)
   22640:	10800317 	ldw	r2,12(r2)
   22644:	108002d8 	cmpnei	r2,r2,11
   22648:	1000031e 	bne	r2,zero,22658 <fatDelClusterList+0x1b8>
                    *(alt_u32 *)pFatEntryValue = CLUSTER_UNUSED;
   2264c:	e0bffb17 	ldw	r2,-20(fp)
   22650:	10000015 	stw	zero,0(r2)
   22654:	00000206 	br	22660 <fatDelClusterList+0x1c0>
                else 
                    *(alt_u16 *)pFatEntryValue = CLUSTER_UNUSED;
   22658:	e0bffb17 	ldw	r2,-20(fp)
   2265c:	1000000d 	sth	zero,0(r2)
                //write back FAT Table
                bSuccess = pVol->WriteBlock512(pVol->DiskHandle, pVol->Secter_Index, pVol->Secter_Data);
   22660:	e0bffd17 	ldw	r2,-12(fp)
   22664:	10800217 	ldw	r2,8(r2)
   22668:	e0fffd17 	ldw	r3,-12(fp)
   2266c:	19000017 	ldw	r4,0(r3)
   22670:	e0fffd17 	ldw	r3,-12(fp)
   22674:	19409017 	ldw	r5,576(r3)
   22678:	e0fffd17 	ldw	r3,-12(fp)
   2267c:	18c01004 	addi	r3,r3,64
   22680:	180d883a 	mov	r6,r3
   22684:	103ee83a 	callr	r2
   22688:	e0bff515 	stw	r2,-44(fp)
    
    const int nFatEntrySize = (pVol->Partition_Type == PARTITION_FAT16)?2:4; // 2 byte for FAT16
    const int nFatEntryPerSecter = pVol->BPB_BytsPerSec/nFatEntrySize;
     
    ClusterIndex = StartCluster;
    while(bSuccess && !bDone){
   2268c:	e0bff517 	ldw	r2,-44(fp)
   22690:	10000226 	beq	r2,zero,2269c <fatDelClusterList+0x1fc>
   22694:	e0bff617 	ldw	r2,-40(fp)
   22698:	103f9d26 	beq	r2,zero,22510 <_gp+0xfffe6f64>
            }    
        }                
    }  // while                
    
    
    return bSuccess;
   2269c:	e0bff517 	ldw	r2,-44(fp)

}
   226a0:	e6ffff04 	addi	sp,fp,-4
   226a4:	dfc00217 	ldw	ra,8(sp)
   226a8:	df000117 	ldw	fp,4(sp)
   226ac:	dc000017 	ldw	r16,0(sp)
   226b0:	dec00304 	addi	sp,sp,12
   226b4:	f800283a 	ret

000226b8 <fatDumpDate>:


void fatDumpDate(unsigned short Date){
   226b8:	defffb04 	addi	sp,sp,-20
   226bc:	df000415 	stw	fp,16(sp)
   226c0:	df000404 	addi	fp,sp,16
   226c4:	2005883a 	mov	r2,r4
   226c8:	e0bfff0d 	sth	r2,-4(fp)
    int Year, Month, Day;
    Year = ((Date >> 9) & 0x1F) + 1980;
   226cc:	e0bfff0b 	ldhu	r2,-4(fp)
   226d0:	1004d27a 	srli	r2,r2,9
   226d4:	10bfffcc 	andi	r2,r2,65535
   226d8:	108007cc 	andi	r2,r2,31
   226dc:	1081ef04 	addi	r2,r2,1980
   226e0:	e0bffc15 	stw	r2,-16(fp)
    Month = ((Date >> 5) & 0xF);
   226e4:	e0bfff0b 	ldhu	r2,-4(fp)
   226e8:	1004d17a 	srli	r2,r2,5
   226ec:	10bfffcc 	andi	r2,r2,65535
   226f0:	108003cc 	andi	r2,r2,15
   226f4:	e0bffd15 	stw	r2,-12(fp)
    Day = ((Date >> 0) & 0x1F);
   226f8:	e0bfff0b 	ldhu	r2,-4(fp)
   226fc:	108007cc 	andi	r2,r2,31
   22700:	e0bffe15 	stw	r2,-8(fp)
    FAT_DEBUG(("%d,%d,%d", Year, Month, Day)); 
}
   22704:	0001883a 	nop
   22708:	e037883a 	mov	sp,fp
   2270c:	df000017 	ldw	fp,0(sp)
   22710:	dec00104 	addi	sp,sp,4
   22714:	f800283a 	ret

00022718 <fatDumpTime>:

void fatDumpTime(unsigned short Date){
   22718:	defffb04 	addi	sp,sp,-20
   2271c:	df000415 	stw	fp,16(sp)
   22720:	df000404 	addi	fp,sp,16
   22724:	2005883a 	mov	r2,r4
   22728:	e0bfff0d 	sth	r2,-4(fp)
    int H,M,S;
    H = ((Date >> 9) & 0x1F);
   2272c:	e0bfff0b 	ldhu	r2,-4(fp)
   22730:	1004d27a 	srli	r2,r2,9
   22734:	10bfffcc 	andi	r2,r2,65535
   22738:	108007cc 	andi	r2,r2,31
   2273c:	e0bffc15 	stw	r2,-16(fp)
    M = ((Date >> 5) & 0x3F);
   22740:	e0bfff0b 	ldhu	r2,-4(fp)
   22744:	1004d17a 	srli	r2,r2,5
   22748:	10bfffcc 	andi	r2,r2,65535
   2274c:	10800fcc 	andi	r2,r2,63
   22750:	e0bffd15 	stw	r2,-12(fp)
    S = ((Date >> 0) & 0x1F)*2;
   22754:	e0bfff0b 	ldhu	r2,-4(fp)
   22758:	108007cc 	andi	r2,r2,31
   2275c:	1085883a 	add	r2,r2,r2
   22760:	e0bffe15 	stw	r2,-8(fp)
    FAT_DEBUG(("%d:%d:%d", H, M, S));     
}
   22764:	0001883a 	nop
   22768:	e037883a 	mov	sp,fp
   2276c:	df000017 	ldw	fp,0(sp)
   22770:	dec00104 	addi	sp,sp,4
   22774:	f800283a 	ret

00022778 <fatIsLastDir>:

bool fatIsLastDir(FAT_DIRECTORY *pDir){
   22778:	defffe04 	addi	sp,sp,-8
   2277c:	df000115 	stw	fp,4(sp)
   22780:	df000104 	addi	fp,sp,4
   22784:	e13fff15 	stw	r4,-4(fp)
    if (pDir->Name[0] == REMAINED_UNUSED_DIR_ENTRY)  // 0x00
   22788:	e0bfff17 	ldw	r2,-4(fp)
   2278c:	10800003 	ldbu	r2,0(r2)
   22790:	10803fcc 	andi	r2,r2,255
   22794:	1080201c 	xori	r2,r2,128
   22798:	10bfe004 	addi	r2,r2,-128
   2279c:	1000021e 	bne	r2,zero,227a8 <fatIsLastDir+0x30>
        return TRUE;
   227a0:	00800044 	movi	r2,1
   227a4:	00000106 	br	227ac <fatIsLastDir+0x34>
    return FALSE;        
   227a8:	0005883a 	mov	r2,zero
}
   227ac:	e037883a 	mov	sp,fp
   227b0:	df000017 	ldw	fp,0(sp)
   227b4:	dec00104 	addi	sp,sp,4
   227b8:	f800283a 	ret

000227bc <fatIsValidDir>:


bool fatIsValidDir(FAT_DIRECTORY *pDir){
   227bc:	defff704 	addi	sp,sp,-36
   227c0:	dfc00815 	stw	ra,32(sp)
   227c4:	df000715 	stw	fp,28(sp)
   227c8:	df000704 	addi	fp,sp,28
   227cc:	e13fff15 	stw	r4,-4(fp)
    char szTest[] = {0x00, 0xE5, 0x22, 0x2A, 0x2B, 0x2C, 0x2E, 0x2F, 0x3A, 0x3B, 0x3C, 0x3E, 0x3F, 0x5B, 0x5C, 0x5D, 0x7C};
   227d0:	008000f4 	movhi	r2,3
   227d4:	1087c404 	addi	r2,r2,7952
   227d8:	e0fffa04 	addi	r3,fp,-24
   227dc:	1009883a 	mov	r4,r2
   227e0:	00800444 	movi	r2,17
   227e4:	100d883a 	mov	r6,r2
   227e8:	200b883a 	mov	r5,r4
   227ec:	1809883a 	mov	r4,r3
   227f0:	002ed4c0 	call	2ed4c <memcpy>
    int i;
    
    for(i=0;i<sizeof(szTest)/sizeof(szTest[0]);i++){
   227f4:	e03ff915 	stw	zero,-28(fp)
   227f8:	00001206 	br	22844 <fatIsValidDir+0x88>
        if (pDir->Name[0] == szTest[i]){
   227fc:	e0bfff17 	ldw	r2,-4(fp)
   22800:	11000003 	ldbu	r4,0(r2)
   22804:	e0fffa04 	addi	r3,fp,-24
   22808:	e0bff917 	ldw	r2,-28(fp)
   2280c:	1885883a 	add	r2,r3,r2
   22810:	10800003 	ldbu	r2,0(r2)
   22814:	20c03fcc 	andi	r3,r4,255
   22818:	18c0201c 	xori	r3,r3,128
   2281c:	18ffe004 	addi	r3,r3,-128
   22820:	10803fcc 	andi	r2,r2,255
   22824:	1080201c 	xori	r2,r2,128
   22828:	10bfe004 	addi	r2,r2,-128
   2282c:	1880021e 	bne	r3,r2,22838 <fatIsValidDir+0x7c>
            return FALSE;
   22830:	0005883a 	mov	r2,zero
   22834:	00000706 	br	22854 <fatIsValidDir+0x98>

bool fatIsValidDir(FAT_DIRECTORY *pDir){
    char szTest[] = {0x00, 0xE5, 0x22, 0x2A, 0x2B, 0x2C, 0x2E, 0x2F, 0x3A, 0x3B, 0x3C, 0x3E, 0x3F, 0x5B, 0x5C, 0x5D, 0x7C};
    int i;
    
    for(i=0;i<sizeof(szTest)/sizeof(szTest[0]);i++){
   22838:	e0bff917 	ldw	r2,-28(fp)
   2283c:	10800044 	addi	r2,r2,1
   22840:	e0bff915 	stw	r2,-28(fp)
   22844:	e0bff917 	ldw	r2,-28(fp)
   22848:	10800470 	cmpltui	r2,r2,17
   2284c:	103feb1e 	bne	r2,zero,227fc <_gp+0xfffe7250>
        if (pDir->Name[0] == szTest[i]){
            return FALSE;
        }
    }    
    return TRUE;
   22850:	00800044 	movi	r2,1
    
}
   22854:	e037883a 	mov	sp,fp
   22858:	dfc00117 	ldw	ra,4(sp)
   2285c:	df000017 	ldw	fp,0(sp)
   22860:	dec00204 	addi	sp,sp,8
   22864:	f800283a 	ret

00022868 <fatIsUnusedDir>:

bool fatIsUnusedDir(FAT_DIRECTORY *pDir){
   22868:	defffe04 	addi	sp,sp,-8
   2286c:	df000115 	stw	fp,4(sp)
   22870:	df000104 	addi	fp,sp,4
   22874:	e13fff15 	stw	r4,-4(fp)
    if (pDir->Name[0] == (alt_8)UNUSED_DIR_ENTRY)
   22878:	e0bfff17 	ldw	r2,-4(fp)
   2287c:	10800003 	ldbu	r2,0(r2)
   22880:	10803fcc 	andi	r2,r2,255
   22884:	1080201c 	xori	r2,r2,128
   22888:	10bfe004 	addi	r2,r2,-128
   2288c:	10bff958 	cmpnei	r2,r2,-27
   22890:	1000021e 	bne	r2,zero,2289c <fatIsUnusedDir+0x34>
        return TRUE;
   22894:	00800044 	movi	r2,1
   22898:	00000106 	br	228a0 <fatIsUnusedDir+0x38>
    return FALSE; 
   2289c:	0005883a 	mov	r2,zero
}
   228a0:	e037883a 	mov	sp,fp
   228a4:	df000017 	ldw	fp,0(sp)
   228a8:	dec00104 	addi	sp,sp,4
   228ac:	f800283a 	ret

000228b0 <fatDump>:

// debug
void fatDump(FAT_DIRECTORY *pDir){
   228b0:	defff804 	addi	sp,sp,-32
   228b4:	dfc00715 	stw	ra,28(sp)
   228b8:	df000615 	stw	fp,24(sp)
   228bc:	df000604 	addi	fp,sp,24
   228c0:	e13fff15 	stw	r4,-4(fp)
    char szInvalidName[] = {0x22, 0x2A, 0x2B, 0x2C, 0x2E, 0x2F, 0x3A, 0x3B, 0x3C, 0x3E, 0x3F, 0x5B, 0x5C, 0x5D, 0x7C};
   228c4:	008000f4 	movhi	r2,3
   228c8:	1087c844 	addi	r2,r2,7969
   228cc:	e0fffb04 	addi	r3,fp,-20
   228d0:	1009883a 	mov	r4,r2
   228d4:	008003c4 	movi	r2,15
   228d8:	100d883a 	mov	r6,r2
   228dc:	200b883a 	mov	r5,r4
   228e0:	1809883a 	mov	r4,r3
   228e4:	002ed4c0 	call	2ed4c <memcpy>
    int i;
    if (pDir->Name[0] == (char)0xE5){
   228e8:	e0bfff17 	ldw	r2,-4(fp)
   228ec:	10800003 	ldbu	r2,0(r2)
   228f0:	10803fcc 	andi	r2,r2,255
   228f4:	1080201c 	xori	r2,r2,128
   228f8:	10bfe004 	addi	r2,r2,-128
   228fc:	10bff958 	cmpnei	r2,r2,-27
   22900:	10004a26 	beq	r2,zero,22a2c <fatDump+0x17c>
        FAT_DEBUG(("the directory entry is free.\n"));
        return;
    }
    if (pDir->Name[0] == 0x00){
   22904:	e0bfff17 	ldw	r2,-4(fp)
   22908:	10800003 	ldbu	r2,0(r2)
   2290c:	10803fcc 	andi	r2,r2,255
   22910:	1080201c 	xori	r2,r2,128
   22914:	10bfe004 	addi	r2,r2,-128
   22918:	10004626 	beq	r2,zero,22a34 <fatDump+0x184>
        FAT_DEBUG(("the directory entry is free, and there are no allocated directory entries after tis one.\n"));
        return;
    }
    
    if (pDir->Name[0] <= 0x20 && pDir->Name[0] != 0x05){
   2291c:	e0bfff17 	ldw	r2,-4(fp)
   22920:	10800003 	ldbu	r2,0(r2)
   22924:	10803fcc 	andi	r2,r2,255
   22928:	1080201c 	xori	r2,r2,128
   2292c:	10bfe004 	addi	r2,r2,-128
   22930:	10800848 	cmpgei	r2,r2,33
   22934:	1000071e 	bne	r2,zero,22954 <fatDump+0xa4>
   22938:	e0bfff17 	ldw	r2,-4(fp)
   2293c:	10800003 	ldbu	r2,0(r2)
   22940:	10803fcc 	andi	r2,r2,255
   22944:	1080201c 	xori	r2,r2,128
   22948:	10bfe004 	addi	r2,r2,-128
   2294c:	10800160 	cmpeqi	r2,r2,5
   22950:	10003a26 	beq	r2,zero,22a3c <fatDump+0x18c>
        FAT_DEBUG(("Invalid file name.\n"));
        return;
    }
    
    for(i=0;i<sizeof(szInvalidName)/sizeof(szInvalidName[0]);i++){
   22954:	e03ffa15 	stw	zero,-24(fp)
   22958:	00001006 	br	2299c <fatDump+0xec>
        if (pDir->Name[0] == szInvalidName[i]){
   2295c:	e0bfff17 	ldw	r2,-4(fp)
   22960:	11000003 	ldbu	r4,0(r2)
   22964:	e0fffb04 	addi	r3,fp,-20
   22968:	e0bffa17 	ldw	r2,-24(fp)
   2296c:	1885883a 	add	r2,r3,r2
   22970:	10800003 	ldbu	r2,0(r2)
   22974:	20c03fcc 	andi	r3,r4,255
   22978:	18c0201c 	xori	r3,r3,128
   2297c:	18ffe004 	addi	r3,r3,-128
   22980:	10803fcc 	andi	r2,r2,255
   22984:	1080201c 	xori	r2,r2,128
   22988:	10bfe004 	addi	r2,r2,-128
   2298c:	18802d26 	beq	r3,r2,22a44 <fatDump+0x194>
    if (pDir->Name[0] <= 0x20 && pDir->Name[0] != 0x05){
        FAT_DEBUG(("Invalid file name.\n"));
        return;
    }
    
    for(i=0;i<sizeof(szInvalidName)/sizeof(szInvalidName[0]);i++){
   22990:	e0bffa17 	ldw	r2,-24(fp)
   22994:	10800044 	addi	r2,r2,1
   22998:	e0bffa15 	stw	r2,-24(fp)
   2299c:	e0bffa17 	ldw	r2,-24(fp)
   229a0:	108003f0 	cmpltui	r2,r2,15
   229a4:	103fed1e 	bne	r2,zero,2295c <_gp+0xfffe73b0>
        FAT_DEBUG(("  Directory\n"));
    if (pDir->Attribute & ATTR_ARCHIVE)
        FAT_DEBUG(("  Archive\n"));
    if (pDir->Attribute & ATTR_LONG_NAME)
        FAT_DEBUG(("  Long Name\n"));
    FAT_DEBUG(("CreateTime:")); fatDumpTime(pDir->CreateTime);FAT_DEBUG(("\n"));
   229a8:	e0bfff17 	ldw	r2,-4(fp)
   229ac:	10c00383 	ldbu	r3,14(r2)
   229b0:	108003c3 	ldbu	r2,15(r2)
   229b4:	1004923a 	slli	r2,r2,8
   229b8:	10c4b03a 	or	r2,r2,r3
   229bc:	10bfffcc 	andi	r2,r2,65535
   229c0:	1009883a 	mov	r4,r2
   229c4:	00227180 	call	22718 <fatDumpTime>
    FAT_DEBUG(("CreateDate:")); fatDumpDate(pDir->LastAccessDate);FAT_DEBUG(("\n"));
   229c8:	e0bfff17 	ldw	r2,-4(fp)
   229cc:	10c00483 	ldbu	r3,18(r2)
   229d0:	108004c3 	ldbu	r2,19(r2)
   229d4:	1004923a 	slli	r2,r2,8
   229d8:	10c4b03a 	or	r2,r2,r3
   229dc:	10bfffcc 	andi	r2,r2,65535
   229e0:	1009883a 	mov	r4,r2
   229e4:	00226b80 	call	226b8 <fatDumpDate>
    FAT_DEBUG(("ClusterHi:%04Xh\n", pDir->FirstLogicalClusterHi));
    FAT_DEBUG(("LastWriteTime:")); fatDumpTime(pDir->LastWriteTime);FAT_DEBUG(("\n"));
   229e8:	e0bfff17 	ldw	r2,-4(fp)
   229ec:	10c00583 	ldbu	r3,22(r2)
   229f0:	108005c3 	ldbu	r2,23(r2)
   229f4:	1004923a 	slli	r2,r2,8
   229f8:	10c4b03a 	or	r2,r2,r3
   229fc:	10bfffcc 	andi	r2,r2,65535
   22a00:	1009883a 	mov	r4,r2
   22a04:	00227180 	call	22718 <fatDumpTime>
    FAT_DEBUG(("LastWriteDate:")); fatDumpDate(pDir->LastWriteDate);FAT_DEBUG(("\n"));
   22a08:	e0bfff17 	ldw	r2,-4(fp)
   22a0c:	10c00603 	ldbu	r3,24(r2)
   22a10:	10800643 	ldbu	r2,25(r2)
   22a14:	1004923a 	slli	r2,r2,8
   22a18:	10c4b03a 	or	r2,r2,r3
   22a1c:	10bfffcc 	andi	r2,r2,65535
   22a20:	1009883a 	mov	r4,r2
   22a24:	00226b80 	call	226b8 <fatDumpDate>
   22a28:	00000706 	br	22a48 <fatDump+0x198>
void fatDump(FAT_DIRECTORY *pDir){
    char szInvalidName[] = {0x22, 0x2A, 0x2B, 0x2C, 0x2E, 0x2F, 0x3A, 0x3B, 0x3C, 0x3E, 0x3F, 0x5B, 0x5C, 0x5D, 0x7C};
    int i;
    if (pDir->Name[0] == (char)0xE5){
        FAT_DEBUG(("the directory entry is free.\n"));
        return;
   22a2c:	0001883a 	nop
   22a30:	00000506 	br	22a48 <fatDump+0x198>
    }
    if (pDir->Name[0] == 0x00){
        FAT_DEBUG(("the directory entry is free, and there are no allocated directory entries after tis one.\n"));
        return;
   22a34:	0001883a 	nop
   22a38:	00000306 	br	22a48 <fatDump+0x198>
    }
    
    if (pDir->Name[0] <= 0x20 && pDir->Name[0] != 0x05){
        FAT_DEBUG(("Invalid file name.\n"));
        return;
   22a3c:	0001883a 	nop
   22a40:	00000106 	br	22a48 <fatDump+0x198>
    }
    
    for(i=0;i<sizeof(szInvalidName)/sizeof(szInvalidName[0]);i++){
        if (pDir->Name[0] == szInvalidName[i]){
            FAT_DEBUG(("Invalid file name.\n"));
            return;
   22a44:	0001883a 	nop
    FAT_DEBUG(("ClusterHi:%04Xh\n", pDir->FirstLogicalClusterHi));
    FAT_DEBUG(("LastWriteTime:")); fatDumpTime(pDir->LastWriteTime);FAT_DEBUG(("\n"));
    FAT_DEBUG(("LastWriteDate:")); fatDumpDate(pDir->LastWriteDate);FAT_DEBUG(("\n"));
    FAT_DEBUG(("Cluster:%04Xh(%d)\n", pDir->FirstLogicalCluster,pDir->FirstLogicalCluster));
    FAT_DEBUG(("File Size:%08Xh(%ld)\n", pDir->FileSize, (long)pDir->FileSize));
}
   22a48:	e037883a 	mov	sp,fp
   22a4c:	dfc00117 	ldw	ra,4(sp)
   22a50:	df000017 	ldw	fp,0(sp)
   22a54:	dec00204 	addi	sp,sp,8
   22a58:	f800283a 	ret

00022a5c <fatArray2Value>:


unsigned int fatArray2Value(unsigned char *pValue, unsigned int nNum){
   22a5c:	defffa04 	addi	sp,sp,-24
   22a60:	df000515 	stw	fp,20(sp)
   22a64:	df000504 	addi	fp,sp,20
   22a68:	e13ffe15 	stw	r4,-8(fp)
   22a6c:	e17fff15 	stw	r5,-4(fp)
    alt_u8 *pMSB = (pValue + nNum - 1);
   22a70:	e0bfff17 	ldw	r2,-4(fp)
   22a74:	10bfffc4 	addi	r2,r2,-1
   22a78:	e0fffe17 	ldw	r3,-8(fp)
   22a7c:	1885883a 	add	r2,r3,r2
   22a80:	e0bffb15 	stw	r2,-20(fp)
    alt_u32 nValue;
    int i;
    for(i=0;i<nNum;i++){
   22a84:	e03ffd15 	stw	zero,-12(fp)
   22a88:	00000e06 	br	22ac4 <fatArray2Value+0x68>
        nValue <<= 8;
   22a8c:	e0bffc17 	ldw	r2,-16(fp)
   22a90:	1004923a 	slli	r2,r2,8
   22a94:	e0bffc15 	stw	r2,-16(fp)
        nValue |= *pMSB--;
   22a98:	e0bffb17 	ldw	r2,-20(fp)
   22a9c:	10ffffc4 	addi	r3,r2,-1
   22aa0:	e0fffb15 	stw	r3,-20(fp)
   22aa4:	10800003 	ldbu	r2,0(r2)
   22aa8:	10803fcc 	andi	r2,r2,255
   22aac:	e0fffc17 	ldw	r3,-16(fp)
   22ab0:	1884b03a 	or	r2,r3,r2
   22ab4:	e0bffc15 	stw	r2,-16(fp)

unsigned int fatArray2Value(unsigned char *pValue, unsigned int nNum){
    alt_u8 *pMSB = (pValue + nNum - 1);
    alt_u32 nValue;
    int i;
    for(i=0;i<nNum;i++){
   22ab8:	e0bffd17 	ldw	r2,-12(fp)
   22abc:	10800044 	addi	r2,r2,1
   22ac0:	e0bffd15 	stw	r2,-12(fp)
   22ac4:	e0fffd17 	ldw	r3,-12(fp)
   22ac8:	e0bfff17 	ldw	r2,-4(fp)
   22acc:	18bfef36 	bltu	r3,r2,22a8c <_gp+0xfffe74e0>
        nValue <<= 8;
        nValue |= *pMSB--;
        
    }
    
    return nValue;
   22ad0:	e0bffc17 	ldw	r2,-16(fp)
}
   22ad4:	e037883a 	mov	sp,fp
   22ad8:	df000017 	ldw	fp,0(sp)
   22adc:	dec00104 	addi	sp,sp,4
   22ae0:	f800283a 	ret

00022ae4 <fatReadSecter>:

//=================================================================================
//// add in v2.0
bool fatReadSecter(VOLUME_INFO *pVol, alt_u32 nSecter){
   22ae4:	defffb04 	addi	sp,sp,-20
   22ae8:	dfc00415 	stw	ra,16(sp)
   22aec:	df000315 	stw	fp,12(sp)
   22af0:	df000304 	addi	fp,sp,12
   22af4:	e13ffe15 	stw	r4,-8(fp)
   22af8:	e17fff15 	stw	r5,-4(fp)
    bool bSuccess = TRUE;
   22afc:	00800044 	movi	r2,1
   22b00:	e0bffd15 	stw	r2,-12(fp)
    if (nSecter != pVol->Secter_Index){
   22b04:	e0bffe17 	ldw	r2,-8(fp)
   22b08:	10c09017 	ldw	r3,576(r2)
   22b0c:	e0bfff17 	ldw	r2,-4(fp)
   22b10:	18801226 	beq	r3,r2,22b5c <fatReadSecter+0x78>
        if (!pVol->ReadBlock512(pVol->DiskHandle, nSecter, pVol->Secter_Data)){
   22b14:	e0bffe17 	ldw	r2,-8(fp)
   22b18:	10800117 	ldw	r2,4(r2)
   22b1c:	e0fffe17 	ldw	r3,-8(fp)
   22b20:	19000017 	ldw	r4,0(r3)
   22b24:	e0fffe17 	ldw	r3,-8(fp)
   22b28:	18c01004 	addi	r3,r3,64
   22b2c:	180d883a 	mov	r6,r3
   22b30:	e17fff17 	ldw	r5,-4(fp)
   22b34:	103ee83a 	callr	r2
   22b38:	1000051e 	bne	r2,zero,22b50 <fatReadSecter+0x6c>
            pVol->Secter_Index = -1;
   22b3c:	e0bffe17 	ldw	r2,-8(fp)
   22b40:	00ffffc4 	movi	r3,-1
   22b44:	10c09015 	stw	r3,576(r2)
            bSuccess = FALSE;
   22b48:	e03ffd15 	stw	zero,-12(fp)
   22b4c:	00000306 	br	22b5c <fatReadSecter+0x78>
        }else{
            pVol->Secter_Index = nSecter;
   22b50:	e0bffe17 	ldw	r2,-8(fp)
   22b54:	e0ffff17 	ldw	r3,-4(fp)
   22b58:	10c09015 	stw	r3,576(r2)
        }
    }
    return bSuccess;          
   22b5c:	e0bffd17 	ldw	r2,-12(fp)
}     
   22b60:	e037883a 	mov	sp,fp
   22b64:	dfc00117 	ldw	ra,4(sp)
   22b68:	df000017 	ldw	fp,0(sp)
   22b6c:	dec00204 	addi	sp,sp,8
   22b70:	f800283a 	ret

00022b74 <fatFindDirectory>:

//=================================================================================
//// add in v2.0
FAT_DIRECTORY* fatFindDirectory(VOLUME_INFO *pVol, alt_u32 nDirectoryIndex){
   22b74:	defff804 	addi	sp,sp,-32
   22b78:	dfc00715 	stw	ra,28(sp)
   22b7c:	df000615 	stw	fp,24(sp)
   22b80:	df000604 	addi	fp,sp,24
   22b84:	e13ffe15 	stw	r4,-8(fp)
   22b88:	e17fff15 	stw	r5,-4(fp)
    FAT_DIRECTORY *pDir=NULL;
   22b8c:	e03ffa15 	stw	zero,-24(fp)
    alt_u32 nSecterOffset, nSecter, nByteOffset;
             
    nSecterOffset = (sizeof(FAT_DIRECTORY)*nDirectoryIndex)/pVol->BPB_BytsPerSec;
   22b90:	e0bfff17 	ldw	r2,-4(fp)
   22b94:	1006917a 	slli	r3,r2,5
   22b98:	e0bffe17 	ldw	r2,-8(fp)
   22b9c:	10800617 	ldw	r2,24(r2)
   22ba0:	100b883a 	mov	r5,r2
   22ba4:	1809883a 	mov	r4,r3
   22ba8:	002b81c0 	call	2b81c <__udivsi3>
   22bac:	e0bffb15 	stw	r2,-20(fp)
    nSecter = pVol->RootDirectoryEntrySecter + nSecterOffset;
   22bb0:	e0bffe17 	ldw	r2,-8(fp)
   22bb4:	10c00e17 	ldw	r3,56(r2)
   22bb8:	e0bffb17 	ldw	r2,-20(fp)
   22bbc:	1885883a 	add	r2,r3,r2
   22bc0:	e0bffc15 	stw	r2,-16(fp)
        // read sector
    if (fatReadSecter(pVol, nSecter)){
   22bc4:	e17ffc17 	ldw	r5,-16(fp)
   22bc8:	e13ffe17 	ldw	r4,-8(fp)
   22bcc:	0022ae40 	call	22ae4 <fatReadSecter>
   22bd0:	10000d26 	beq	r2,zero,22c08 <fatFindDirectory+0x94>
        nByteOffset = (sizeof(FAT_DIRECTORY)*nDirectoryIndex)%pVol->BPB_BytsPerSec; 
   22bd4:	e0bfff17 	ldw	r2,-4(fp)
   22bd8:	1006917a 	slli	r3,r2,5
   22bdc:	e0bffe17 	ldw	r2,-8(fp)
   22be0:	10800617 	ldw	r2,24(r2)
   22be4:	100b883a 	mov	r5,r2
   22be8:	1809883a 	mov	r4,r3
   22bec:	002b8800 	call	2b880 <__umodsi3>
   22bf0:	e0bffd15 	stw	r2,-12(fp)
        pDir = (FAT_DIRECTORY *)(pVol->Secter_Data + nByteOffset);
   22bf4:	e0bffe17 	ldw	r2,-8(fp)
   22bf8:	10c01004 	addi	r3,r2,64
   22bfc:	e0bffd17 	ldw	r2,-12(fp)
   22c00:	1885883a 	add	r2,r3,r2
   22c04:	e0bffa15 	stw	r2,-24(fp)
    }        
        
    return pDir;        
   22c08:	e0bffa17 	ldw	r2,-24(fp)
}
   22c0c:	e037883a 	mov	sp,fp
   22c10:	dfc00117 	ldw	ra,4(sp)
   22c14:	df000017 	ldw	fp,0(sp)
   22c18:	dec00204 	addi	sp,sp,8
   22c1c:	f800283a 	ret

00022c20 <fatFindUnusedDirectory>:

//=================================================================================
//// add in v2.0
alt_u32 fatFindUnusedDirectory(VOLUME_INFO *pVol){
   22c20:	defff604 	addi	sp,sp,-40
   22c24:	dfc00915 	stw	ra,36(sp)
   22c28:	df000815 	stw	fp,32(sp)
   22c2c:	df000804 	addi	fp,sp,32
   22c30:	e13fff15 	stw	r4,-4(fp)
    alt_u32 Dir = -1;
   22c34:	00bfffc4 	movi	r2,-1
   22c38:	e0bff815 	stw	r2,-32(fp)
    FAT_DIRECTORY *pDir=NULL;
   22c3c:	e03ffb15 	stw	zero,-20(fp)
    alt_u32 nSecterOffset, nSecter, nByteOffset;
    alt_u32 nDirectoryIndex = 2; //??? start from ?
   22c40:	00800084 	movi	r2,2
   22c44:	e0bff915 	stw	r2,-28(fp)
    bool bDone = FALSE;
   22c48:	e03ffa15 	stw	zero,-24(fp)
             
    while(!bDone){             
   22c4c:	00003006 	br	22d10 <fatFindUnusedDirectory+0xf0>
        nSecterOffset = (sizeof(FAT_DIRECTORY)*nDirectoryIndex)/pVol->BPB_BytsPerSec;
   22c50:	e0bff917 	ldw	r2,-28(fp)
   22c54:	1006917a 	slli	r3,r2,5
   22c58:	e0bfff17 	ldw	r2,-4(fp)
   22c5c:	10800617 	ldw	r2,24(r2)
   22c60:	100b883a 	mov	r5,r2
   22c64:	1809883a 	mov	r4,r3
   22c68:	002b81c0 	call	2b81c <__udivsi3>
   22c6c:	e0bffc15 	stw	r2,-16(fp)
        nSecter = pVol->RootDirectoryEntrySecter + nSecterOffset;
   22c70:	e0bfff17 	ldw	r2,-4(fp)
   22c74:	10c00e17 	ldw	r3,56(r2)
   22c78:	e0bffc17 	ldw	r2,-16(fp)
   22c7c:	1885883a 	add	r2,r3,r2
   22c80:	e0bffd15 	stw	r2,-12(fp)
            // read sector
        if (fatReadSecter(pVol, nSecter)){
   22c84:	e17ffd17 	ldw	r5,-12(fp)
   22c88:	e13fff17 	ldw	r4,-4(fp)
   22c8c:	0022ae40 	call	22ae4 <fatReadSecter>
   22c90:	10001e26 	beq	r2,zero,22d0c <fatFindUnusedDirectory+0xec>
            nByteOffset = (sizeof(FAT_DIRECTORY)*nDirectoryIndex)%pVol->BPB_BytsPerSec; 
   22c94:	e0bff917 	ldw	r2,-28(fp)
   22c98:	1006917a 	slli	r3,r2,5
   22c9c:	e0bfff17 	ldw	r2,-4(fp)
   22ca0:	10800617 	ldw	r2,24(r2)
   22ca4:	100b883a 	mov	r5,r2
   22ca8:	1809883a 	mov	r4,r3
   22cac:	002b8800 	call	2b880 <__umodsi3>
   22cb0:	e0bffe15 	stw	r2,-8(fp)
            pDir = (FAT_DIRECTORY *)(pVol->Secter_Data + nByteOffset);
   22cb4:	e0bfff17 	ldw	r2,-4(fp)
   22cb8:	10c01004 	addi	r3,r2,64
   22cbc:	e0bffe17 	ldw	r2,-8(fp)
   22cc0:	1885883a 	add	r2,r3,r2
   22cc4:	e0bffb15 	stw	r2,-20(fp)
            if (fatIsLastDir(pDir) || fatIsUnusedDir(pDir)){
   22cc8:	e13ffb17 	ldw	r4,-20(fp)
   22ccc:	00227780 	call	22778 <fatIsLastDir>
   22cd0:	1000031e 	bne	r2,zero,22ce0 <fatFindUnusedDirectory+0xc0>
   22cd4:	e13ffb17 	ldw	r4,-20(fp)
   22cd8:	00228680 	call	22868 <fatIsUnusedDir>
   22cdc:	10000726 	beq	r2,zero,22cfc <fatFindUnusedDirectory+0xdc>
                bDone = TRUE;
   22ce0:	00800044 	movi	r2,1
   22ce4:	e0bffa15 	stw	r2,-24(fp)
                if (fatIsUnusedDir(pDir))
   22ce8:	e13ffb17 	ldw	r4,-20(fp)
   22cec:	00228680 	call	22868 <fatIsUnusedDir>
   22cf0:	10000226 	beq	r2,zero,22cfc <fatFindUnusedDirectory+0xdc>
                    Dir = nDirectoryIndex;
   22cf4:	e0bff917 	ldw	r2,-28(fp)
   22cf8:	e0bff815 	stw	r2,-32(fp)
            }
            nDirectoryIndex++;        
   22cfc:	e0bff917 	ldw	r2,-28(fp)
   22d00:	10800044 	addi	r2,r2,1
   22d04:	e0bff915 	stw	r2,-28(fp)
   22d08:	00000106 	br	22d10 <fatFindUnusedDirectory+0xf0>
        }else{
                bDone = FALSE;
   22d0c:	e03ffa15 	stw	zero,-24(fp)
    FAT_DIRECTORY *pDir=NULL;
    alt_u32 nSecterOffset, nSecter, nByteOffset;
    alt_u32 nDirectoryIndex = 2; //??? start from ?
    bool bDone = FALSE;
             
    while(!bDone){             
   22d10:	e0bffa17 	ldw	r2,-24(fp)
   22d14:	103fce26 	beq	r2,zero,22c50 <_gp+0xfffe76a4>
        }else{
                bDone = FALSE;
        }
    }             
    
    return Dir;      
   22d18:	e0bff817 	ldw	r2,-32(fp)
}
   22d1c:	e037883a 	mov	sp,fp
   22d20:	dfc00117 	ldw	ra,4(sp)
   22d24:	df000017 	ldw	fp,0(sp)
   22d28:	dec00204 	addi	sp,sp,8
   22d2c:	f800283a 	ret

00022d30 <fatMount>:

//=================================================================================
bool fatMount(VOLUME_INFO *pVol){
   22d30:	deff7604 	addi	sp,sp,-552
   22d34:	dfc08915 	stw	ra,548(sp)
   22d38:	df008815 	stw	fp,544(sp)
   22d3c:	dc008715 	stw	r16,540(sp)
   22d40:	df008804 	addi	fp,sp,544
   22d44:	e13ffe15 	stw	r4,-8(fp)
    bool bSuccess = TRUE;
   22d48:	00800044 	movi	r2,1
   22d4c:	e0bf7815 	stw	r2,-544(fp)
    // 1DEh( 16 bytes): 3nd Partition Entry
    // 1EEh( 16 bytes): 4nd Partition Entry
    // 1FEh(  2 bytes): Executable Maker (55h AAh)
    
    // read first block (secotor 0), BPB(BIOS Parameter Block) or called as boot sector or reserved sector
    if (!pVol->ReadBlock512(pVol->DiskHandle, 0, szBlock)){
   22d50:	e0bffe17 	ldw	r2,-8(fp)
   22d54:	10800117 	ldw	r2,4(r2)
   22d58:	e0fffe17 	ldw	r3,-8(fp)
   22d5c:	18c00017 	ldw	r3,0(r3)
   22d60:	e13f7e04 	addi	r4,fp,-520
   22d64:	200d883a 	mov	r6,r4
   22d68:	000b883a 	mov	r5,zero
   22d6c:	1809883a 	mov	r4,r3
   22d70:	103ee83a 	callr	r2
   22d74:	1000021e 	bne	r2,zero,22d80 <fatMount+0x50>
    //if (!pVol->ReadBlock512(pVol->DiskHandle, 8192, szBlock)){
        FAT_DEBUG(("Read section 0 error.\n"));
        return FALSE;
   22d78:	0005883a 	mov	r2,zero
   22d7c:	0000cd06 	br	230b4 <fatMount+0x384>
        return FALSE;
    }
    */
        
    // check file system 
    FirstPartitionEntry = 0x1BE;
   22d80:	00806f84 	movi	r2,446
   22d84:	e0bf7915 	stw	r2,-540(fp)
    PartitionType = szBlock[FirstPartitionEntry + 4];
   22d88:	e0bf7917 	ldw	r2,-540(fp)
   22d8c:	10800104 	addi	r2,r2,4
   22d90:	e0ff7e04 	addi	r3,fp,-520
   22d94:	1885883a 	add	r2,r3,r2
   22d98:	10800003 	ldbu	r2,0(r2)
   22d9c:	10803fcc 	andi	r2,r2,255
   22da0:	e0bf7a15 	stw	r2,-536(fp)
    if (PartitionType == PARTITION_FAT16){
   22da4:	e0bf7a17 	ldw	r2,-536(fp)
   22da8:	108001a0 	cmpeqi	r2,r2,6
   22dac:	1000081e 	bne	r2,zero,22dd0 <fatMount+0xa0>
        FAT_DEBUG(("FAT16\n"));
    }else if (PartitionType == PARTITION_FAT32 || PartitionType == PARTITION_FAT32_CHS){
   22db0:	e0bf7a17 	ldw	r2,-536(fp)
   22db4:	10800320 	cmpeqi	r2,r2,12
   22db8:	1000051e 	bne	r2,zero,22dd0 <fatMount+0xa0>
   22dbc:	e0bf7a17 	ldw	r2,-536(fp)
   22dc0:	108002e0 	cmpeqi	r2,r2,11
   22dc4:	1000021e 	bne	r2,zero,22dd0 <fatMount+0xa0>
        FAT_DEBUG(("FAT32\n"));
    }else{        
        FAT_DEBUG(("the partition type(%d) is not supported.\n", PartitionType));
        return FALSE; // only support FAT16 in this example
   22dc8:	0005883a 	mov	r2,zero
   22dcc:	0000b906 	br	230b4 <fatMount+0x384>
    }       
    pVol->Partition_Type = PartitionType; 
   22dd0:	e0ff7a17 	ldw	r3,-536(fp)
   22dd4:	e0bffe17 	ldw	r2,-8(fp)
   22dd8:	10c00315 	stw	r3,12(r2)
    // 2.2 Find the first section of partition 1                    
    FirstSectionInVolume1 = fatArray2Value(&szBlock[FirstPartitionEntry + 8],4);
   22ddc:	e0bf7917 	ldw	r2,-540(fp)
   22de0:	10800204 	addi	r2,r2,8
   22de4:	e0ff7e04 	addi	r3,fp,-520
   22de8:	1885883a 	add	r2,r3,r2
   22dec:	01400104 	movi	r5,4
   22df0:	1009883a 	mov	r4,r2
   22df4:	0022a5c0 	call	22a5c <fatArray2Value>
   22df8:	e0bf7b15 	stw	r2,-532(fp)
                            //szBlock[FirstPartitionEntry + 8 + 1]*256 + 
                            //szBlock[FirstPartitionEntry + 8];        
    
    //3 Parsing the Volume Boot Record(BR)
    //3.1  Read the Volume Boot Record(BR)
    if (!pVol->ReadBlock512(pVol->DiskHandle, FirstSectionInVolume1, szBlock)){
   22dfc:	e0bffe17 	ldw	r2,-8(fp)
   22e00:	10800117 	ldw	r2,4(r2)
   22e04:	e0fffe17 	ldw	r3,-8(fp)
   22e08:	18c00017 	ldw	r3,0(r3)
   22e0c:	e13f7b17 	ldw	r4,-532(fp)
   22e10:	e17f7e04 	addi	r5,fp,-520
   22e14:	280d883a 	mov	r6,r5
   22e18:	200b883a 	mov	r5,r4
   22e1c:	1809883a 	mov	r4,r3
   22e20:	103ee83a 	callr	r2
   22e24:	1000021e 	bne	r2,zero,22e30 <fatMount+0x100>
        FAT_DEBUG(("Read first sector in volume one fail.\n"));
        return FALSE;
   22e28:	0005883a 	mov	r2,zero
   22e2c:	0000a106 	br	230b4 <fatMount+0x384>
    }        
    pVol->PartitionStartSecter = FirstSectionInVolume1;     
   22e30:	e0ff7b17 	ldw	r3,-532(fp)
   22e34:	e0bffe17 	ldw	r2,-8(fp)
   22e38:	10c00515 	stw	r3,20(r2)
    pVol->BPB_BytsPerSec = szBlock[0x0B+1]*256 + szBlock[0x0B];
   22e3c:	e0bf8103 	ldbu	r2,-508(fp)
   22e40:	10803fcc 	andi	r2,r2,255
   22e44:	1006923a 	slli	r3,r2,8
   22e48:	e0bf80c3 	ldbu	r2,-509(fp)
   22e4c:	10803fcc 	andi	r2,r2,255
   22e50:	1885883a 	add	r2,r3,r2
   22e54:	1007883a 	mov	r3,r2
   22e58:	e0bffe17 	ldw	r2,-8(fp)
   22e5c:	10c00615 	stw	r3,24(r2)
    pVol->BPB_SecPerCluster = szBlock[0x0D];
   22e60:	e0bf8143 	ldbu	r2,-507(fp)
   22e64:	10c03fcc 	andi	r3,r2,255
   22e68:	e0bffe17 	ldw	r2,-8(fp)
   22e6c:	10c00715 	stw	r3,28(r2)
    pVol->BPB_RsvdSecCnt = szBlock[0x0E + 1]*256 + szBlock[0x0E]; 
   22e70:	e0bf81c3 	ldbu	r2,-505(fp)
   22e74:	10803fcc 	andi	r2,r2,255
   22e78:	1006923a 	slli	r3,r2,8
   22e7c:	e0bf8183 	ldbu	r2,-506(fp)
   22e80:	10803fcc 	andi	r2,r2,255
   22e84:	1885883a 	add	r2,r3,r2
   22e88:	1007883a 	mov	r3,r2
   22e8c:	e0bffe17 	ldw	r2,-8(fp)
   22e90:	10c00815 	stw	r3,32(r2)
    pVol->BPB_NumFATs = szBlock[0x10];
   22e94:	e0bf8203 	ldbu	r2,-504(fp)
   22e98:	10c03fcc 	andi	r3,r2,255
   22e9c:	e0bffe17 	ldw	r2,-8(fp)
   22ea0:	10c00915 	stw	r3,36(r2)
    pVol->BPB_RootEntCnt = szBlock[0x11+1]*256 + szBlock[0x11]; 
   22ea4:	e0bf8283 	ldbu	r2,-502(fp)
   22ea8:	10803fcc 	andi	r2,r2,255
   22eac:	1006923a 	slli	r3,r2,8
   22eb0:	e0bf8243 	ldbu	r2,-503(fp)
   22eb4:	10803fcc 	andi	r2,r2,255
   22eb8:	1885883a 	add	r2,r3,r2
   22ebc:	1007883a 	mov	r3,r2
   22ec0:	e0bffe17 	ldw	r2,-8(fp)
   22ec4:	10c00a15 	stw	r3,40(r2)
    pVol->BPB_FATSz = szBlock[0x16+1]*256 + szBlock[0x16];
   22ec8:	e0bf83c3 	ldbu	r2,-497(fp)
   22ecc:	10803fcc 	andi	r2,r2,255
   22ed0:	1006923a 	slli	r3,r2,8
   22ed4:	e0bf8383 	ldbu	r2,-498(fp)
   22ed8:	10803fcc 	andi	r2,r2,255
   22edc:	1885883a 	add	r2,r3,r2
   22ee0:	1007883a 	mov	r3,r2
   22ee4:	e0bffe17 	ldw	r2,-8(fp)
   22ee8:	10c00b15 	stw	r3,44(r2)
    
    // add for v2.0
    pVol->Secter_Index = -1;
   22eec:	e0bffe17 	ldw	r2,-8(fp)
   22ef0:	00ffffc4 	movi	r3,-1
   22ef4:	10c09015 	stw	r3,576(r2)
    memset(pVol->Secter_Data, 0, MY_SECTER_SIZE); // 512 bytes
   22ef8:	e0bffe17 	ldw	r2,-8(fp)
   22efc:	10801004 	addi	r2,r2,64
   22f00:	01808004 	movi	r6,512
   22f04:	000b883a 	mov	r5,zero
   22f08:	1009883a 	mov	r4,r2
   22f0c:	002ed740 	call	2ed74 <memset>
    
    if (pVol->Partition_Type == PARTITION_FAT32 || pVol->Partition_Type == PARTITION_FAT32_CHS){
   22f10:	e0bffe17 	ldw	r2,-8(fp)
   22f14:	10800317 	ldw	r2,12(r2)
   22f18:	10800320 	cmpeqi	r2,r2,12
   22f1c:	1000041e 	bne	r2,zero,22f30 <fatMount+0x200>
   22f20:	e0bffe17 	ldw	r2,-8(fp)
   22f24:	10800317 	ldw	r2,12(r2)
   22f28:	108002d8 	cmpnei	r2,r2,11
   22f2c:	1000081e 	bne	r2,zero,22f50 <fatMount+0x220>
        pVol->BPB_FATSz = fatArray2Value(&szBlock[0x24], 4);  // BPB_FATSz32
   22f30:	e0bf7e04 	addi	r2,fp,-520
   22f34:	10800904 	addi	r2,r2,36
   22f38:	01400104 	movi	r5,4
   22f3c:	1009883a 	mov	r4,r2
   22f40:	0022a5c0 	call	22a5c <fatArray2Value>
   22f44:	1007883a 	mov	r3,r2
   22f48:	e0bffe17 	ldw	r2,-8(fp)
   22f4c:	10c00b15 	stw	r3,44(r2)
        //pVol->BPB_RootEntCnt = fatArray2Value(&szBlock[0x2C], 4);  // BPB_RootClus            
    }
    
    if (pVol->BPB_BytsPerSec != MY_SECTER_SIZE){
   22f50:	e0bffe17 	ldw	r2,-8(fp)
   22f54:	10800617 	ldw	r2,24(r2)
   22f58:	10808020 	cmpeqi	r2,r2,512
   22f5c:	1000021e 	bne	r2,zero,22f68 <fatMount+0x238>
        FAT_DEBUG(("This program only supports FAT BPB_BytsPerSec == %d\n", MY_SECTER_SIZE));
        return FALSE; // only support FAT16 in this example
   22f60:	0005883a 	mov	r2,zero
   22f64:	00005306 	br	230b4 <fatMount+0x384>
    FAT_DEBUG(("Number of Copyies of FAT: %02Xh(%d)\n", gVolumeInfo.BPB_NumFATs, gVolumeInfo.BPB_NumFATs));
    FAT_DEBUG(("Maxmun Root Directory Entries: %04Xh(%d)\n", gVolumeInfo.BPB_RootEntCnt, gVolumeInfo.BPB_RootEntCnt));
    FAT_DEBUG(("Sectors Per FAT: %04Xh(%d)\n", gVolumeInfo.BPB_FATSz, gVolumeInfo.BPB_FATSz));
#endif    
    //
    pVol->FatEntrySecter = pVol->PartitionStartSecter + pVol->BPB_RsvdSecCnt;
   22f68:	e0bffe17 	ldw	r2,-8(fp)
   22f6c:	10c00517 	ldw	r3,20(r2)
   22f70:	e0bffe17 	ldw	r2,-8(fp)
   22f74:	10800817 	ldw	r2,32(r2)
   22f78:	1887883a 	add	r3,r3,r2
   22f7c:	e0bffe17 	ldw	r2,-8(fp)
   22f80:	10c00d15 	stw	r3,52(r2)
    pVol->RootDirectoryEntrySecter = pVol->FatEntrySecter + pVol->BPB_NumFATs * pVol->BPB_FATSz;
   22f84:	e0bffe17 	ldw	r2,-8(fp)
   22f88:	14000d17 	ldw	r16,52(r2)
   22f8c:	e0bffe17 	ldw	r2,-8(fp)
   22f90:	10c00917 	ldw	r3,36(r2)
   22f94:	e0bffe17 	ldw	r2,-8(fp)
   22f98:	10800b17 	ldw	r2,44(r2)
   22f9c:	100b883a 	mov	r5,r2
   22fa0:	1809883a 	mov	r4,r3
   22fa4:	002b8d80 	call	2b8d8 <__mulsi3>
   22fa8:	8087883a 	add	r3,r16,r2
   22fac:	e0bffe17 	ldw	r2,-8(fp)
   22fb0:	10c00e15 	stw	r3,56(r2)
    pVol->DataEntrySecter = pVol->RootDirectoryEntrySecter + ((pVol->BPB_RootEntCnt*32)+(pVol->BPB_BytsPerSec-1))/pVol->BPB_BytsPerSec;
   22fb4:	e0bffe17 	ldw	r2,-8(fp)
   22fb8:	14000e17 	ldw	r16,56(r2)
   22fbc:	e0bffe17 	ldw	r2,-8(fp)
   22fc0:	10800a17 	ldw	r2,40(r2)
   22fc4:	1006917a 	slli	r3,r2,5
   22fc8:	e0bffe17 	ldw	r2,-8(fp)
   22fcc:	10800617 	ldw	r2,24(r2)
   22fd0:	1885883a 	add	r2,r3,r2
   22fd4:	10ffffc4 	addi	r3,r2,-1
   22fd8:	e0bffe17 	ldw	r2,-8(fp)
   22fdc:	10800617 	ldw	r2,24(r2)
   22fe0:	100b883a 	mov	r5,r2
   22fe4:	1809883a 	mov	r4,r3
   22fe8:	002b81c0 	call	2b81c <__udivsi3>
   22fec:	8087883a 	add	r3,r16,r2
   22ff0:	e0bffe17 	ldw	r2,-8(fp)
   22ff4:	10c00f15 	stw	r3,60(r2)
    printf("ENTRY SECTOR: %d\r\n", pVol->FatEntrySecter);
   22ff8:	e0bffe17 	ldw	r2,-8(fp)
   22ffc:	10800d17 	ldw	r2,52(r2)
   23000:	100b883a 	mov	r5,r2
   23004:	010000f4 	movhi	r4,3
   23008:	2107cc04 	addi	r4,r4,7984
   2300c:	002f00c0 	call	2f00c <printf>
    printf("ROOT DIR SECTOR: %d\r\n", pVol->RootDirectoryEntrySecter);
   23010:	e0bffe17 	ldw	r2,-8(fp)
   23014:	10800e17 	ldw	r2,56(r2)
   23018:	100b883a 	mov	r5,r2
   2301c:	010000f4 	movhi	r4,3
   23020:	2107d104 	addi	r4,r4,8004
   23024:	002f00c0 	call	2f00c <printf>
    printf("DATA SECTOR: %d\r\n", pVol->DataEntrySecter);
   23028:	e0bffe17 	ldw	r2,-8(fp)
   2302c:	10800f17 	ldw	r2,60(r2)
   23030:	100b883a 	mov	r5,r2
   23034:	010000f4 	movhi	r4,3
   23038:	2107d704 	addi	r4,r4,8028
   2303c:	002f00c0 	call	2f00c <printf>
    
    // read FAT table into memory
    pVol->nBytesPerCluster = pVol->BPB_BytsPerSec * pVol->BPB_SecPerCluster;
   23040:	e0bffe17 	ldw	r2,-8(fp)
   23044:	10c00617 	ldw	r3,24(r2)
   23048:	e0bffe17 	ldw	r2,-8(fp)
   2304c:	10800717 	ldw	r2,28(r2)
   23050:	100b883a 	mov	r5,r2
   23054:	1809883a 	mov	r4,r3
   23058:	002b8d80 	call	2b8d8 <__mulsi3>
   2305c:	1007883a 	mov	r3,r2
   23060:	e0bffe17 	ldw	r2,-8(fp)
   23064:	10c00c15 	stw	r3,48(r2)
    nFatTableSecterNum = pVol->BPB_NumFATs * pVol->BPB_FATSz;
   23068:	e0bffe17 	ldw	r2,-8(fp)
   2306c:	10c00917 	ldw	r3,36(r2)
   23070:	e0bffe17 	ldw	r2,-8(fp)
   23074:	10800b17 	ldw	r2,44(r2)
   23078:	100b883a 	mov	r5,r2
   2307c:	1809883a 	mov	r4,r3
   23080:	002b8d80 	call	2b8d8 <__mulsi3>
   23084:	e0bf7c15 	stw	r2,-528(fp)
    nFatTableSize = nFatTableSecterNum * pVol->BPB_BytsPerSec;
   23088:	e0bffe17 	ldw	r2,-8(fp)
   2308c:	10800617 	ldw	r2,24(r2)
   23090:	e0ff7c17 	ldw	r3,-528(fp)
   23094:	180b883a 	mov	r5,r3
   23098:	1009883a 	mov	r4,r2
   2309c:	002b8d80 	call	2b8d8 <__mulsi3>
   230a0:	e0bf7d15 	stw	r2,-524(fp)
    if (bSuccess){
        FAT_DEBUG(("Fat_Mount success\n"));
    }else{        
        FAT_DEBUG(("Fat_Mount fail\n"));
    }        
    pVol->bMount = bSuccess;
   230a4:	e0bffe17 	ldw	r2,-8(fp)
   230a8:	e0ff7817 	ldw	r3,-544(fp)
   230ac:	10c00415 	stw	r3,16(r2)
    return bSuccess;   
   230b0:	e0bf7817 	ldw	r2,-544(fp)
    

}
   230b4:	e6ffff04 	addi	sp,fp,-4
   230b8:	dfc00217 	ldw	ra,8(sp)
   230bc:	df000117 	ldw	fp,4(sp)
   230c0:	dc000017 	ldw	r16,0(sp)
   230c4:	dec00304 	addi	sp,sp,12
   230c8:	f800283a 	ret

000230cc <SD_ReadBlock512>:

//===================== SUPPORT_SD_CARD =================================================
#ifdef SUPPORT_SD_CARD

bool SD_ReadBlock512(DISK_HANDLE DiskHandle, alt_u32 PysicalSelector, alt_u8 szBuf[512]){
   230cc:	defffb04 	addi	sp,sp,-20
   230d0:	dfc00415 	stw	ra,16(sp)
   230d4:	df000315 	stw	fp,12(sp)
   230d8:	df000304 	addi	fp,sp,12
   230dc:	e13ffd15 	stw	r4,-12(fp)
   230e0:	e17ffe15 	stw	r5,-8(fp)
   230e4:	e1bfff15 	stw	r6,-4(fp)
    return SDLIB_ReadBlock512(PysicalSelector, szBuf);
   230e8:	e17fff17 	ldw	r5,-4(fp)
   230ec:	e13ffe17 	ldw	r4,-8(fp)
   230f0:	00241740 	call	24174 <SDLIB_ReadBlock512>
}
   230f4:	e037883a 	mov	sp,fp
   230f8:	dfc00117 	ldw	ra,4(sp)
   230fc:	df000017 	ldw	fp,0(sp)
   23100:	dec00204 	addi	sp,sp,8
   23104:	f800283a 	ret

00023108 <SD_WriteBlock512>:

bool SD_WriteBlock512(DISK_HANDLE DiskHandle, alt_u32 PysicalSelector, alt_u8 szBuf[512]){
   23108:	defffb04 	addi	sp,sp,-20
   2310c:	dfc00415 	stw	ra,16(sp)
   23110:	df000315 	stw	fp,12(sp)
   23114:	df000304 	addi	fp,sp,12
   23118:	e13ffd15 	stw	r4,-12(fp)
   2311c:	e17ffe15 	stw	r5,-8(fp)
   23120:	e1bfff15 	stw	r6,-4(fp)
    return SDLIB_WriteBlock512(PysicalSelector, szBuf);
   23124:	e17fff17 	ldw	r5,-4(fp)
   23128:	e13ffe17 	ldw	r4,-8(fp)
   2312c:	00241f40 	call	241f4 <SDLIB_WriteBlock512>
}
   23130:	e037883a 	mov	sp,fp
   23134:	dfc00117 	ldw	ra,4(sp)
   23138:	df000017 	ldw	fp,0(sp)
   2313c:	dec00204 	addi	sp,sp,8
   23140:	f800283a 	ret

00023144 <fatMountSdcard>:

FAT_HANDLE fatMountSdcard(void){
   23144:	defff804 	addi	sp,sp,-32
   23148:	dfc00715 	stw	ra,28(sp)
   2314c:	df000615 	stw	fp,24(sp)
   23150:	df000604 	addi	fp,sp,24
    FAT_HANDLE hFat = 0;
   23154:	e03ffa15 	stw	zero,-24(fp)
    VOLUME_INFO *pVol;
    const int nMaxTry=10;
   23158:	00800284 	movi	r2,10
   2315c:	e0bffd15 	stw	r2,-12(fp)
    bool bFind = FALSE;
   23160:	e03ffb15 	stw	zero,-20(fp)
    int nTry=0;
   23164:	e03ffc15 	stw	zero,-16(fp)
    bool bSuccess = TRUE;
   23168:	00800044 	movi	r2,1
   2316c:	e0bffe15 	stw	r2,-8(fp)
    
        
    //1. chek whether SD Card existed. Init SD card if it is present.
    while(!bFind && nTry++ < nMaxTry){
   23170:	00000706 	br	23190 <fatMountSdcard+0x4c>
        bFind = SDLIB_Init();
   23174:	0023e580 	call	23e58 <SDLIB_Init>
   23178:	e0bffb15 	stw	r2,-20(fp)
        if (!bFind)
   2317c:	e0bffb17 	ldw	r2,-20(fp)
   23180:	1000031e 	bne	r2,zero,23190 <fatMountSdcard+0x4c>
            usleep(100*1000);
   23184:	010000b4 	movhi	r4,2
   23188:	2121a804 	addi	r4,r4,-31072
   2318c:	00308fc0 	call	308fc <usleep>
    int nTry=0;
    bool bSuccess = TRUE;
    
        
    //1. chek whether SD Card existed. Init SD card if it is present.
    while(!bFind && nTry++ < nMaxTry){
   23190:	e0bffb17 	ldw	r2,-20(fp)
   23194:	1000051e 	bne	r2,zero,231ac <fatMountSdcard+0x68>
   23198:	e0bffc17 	ldw	r2,-16(fp)
   2319c:	10c00044 	addi	r3,r2,1
   231a0:	e0fffc15 	stw	r3,-16(fp)
   231a4:	e0fffd17 	ldw	r3,-12(fp)
   231a8:	10fff216 	blt	r2,r3,23174 <_gp+0xfffe7bc8>
        bFind = SDLIB_Init();
        if (!bFind)
            usleep(100*1000);
    }
    if (!bFind){
   231ac:	e0bffb17 	ldw	r2,-20(fp)
   231b0:	1000021e 	bne	r2,zero,231bc <fatMountSdcard+0x78>
        FAT_DEBUG(("Cannot find SD card.\n"));
        return hFat;
   231b4:	e0bffa17 	ldw	r2,-24(fp)
   231b8:	00001a06 	br	23224 <fatMountSdcard+0xe0>
    }    
    
    hFat = malloc(sizeof(VOLUME_INFO));
   231bc:	01009104 	movi	r4,580
   231c0:	002ed240 	call	2ed24 <malloc>
   231c4:	e0bffa15 	stw	r2,-24(fp)
    pVol = (VOLUME_INFO *)hFat;
   231c8:	e0bffa17 	ldw	r2,-24(fp)
   231cc:	e0bfff15 	stw	r2,-4(fp)
    pVol->ReadBlock512 = SD_ReadBlock512;
   231d0:	e0ffff17 	ldw	r3,-4(fp)
   231d4:	008000b4 	movhi	r2,2
   231d8:	108c3304 	addi	r2,r2,12492
   231dc:	18800115 	stw	r2,4(r3)
    pVol->WriteBlock512 = SD_WriteBlock512;
   231e0:	e0ffff17 	ldw	r3,-4(fp)
   231e4:	008000b4 	movhi	r2,2
   231e8:	108c4204 	addi	r2,r2,12552
   231ec:	18800215 	stw	r2,8(r3)
    bSuccess = fatMount(pVol);
   231f0:	e13fff17 	ldw	r4,-4(fp)
   231f4:	0022d300 	call	22d30 <fatMount>
   231f8:	e0bffe15 	stw	r2,-8(fp)
  
    if (bSuccess){
   231fc:	e0bffe17 	ldw	r2,-8(fp)
   23200:	10000426 	beq	r2,zero,23214 <fatMountSdcard+0xd0>
        FAT_DEBUG(("Fat_Mount success\n"));
        pVol->bMount = TRUE;
   23204:	e0bfff17 	ldw	r2,-4(fp)
   23208:	00c00044 	movi	r3,1
   2320c:	10c00415 	stw	r3,16(r2)
   23210:	00000306 	br	23220 <fatMountSdcard+0xdc>
    }else{        
        FAT_DEBUG(("Fat_Mount fail\n"));
        free((void *)hFat);
   23214:	e13ffa17 	ldw	r4,-24(fp)
   23218:	002ed380 	call	2ed38 <free>
        hFat = 0;
   2321c:	e03ffa15 	stw	zero,-24(fp)
    }        

    return hFat;
   23220:	e0bffa17 	ldw	r2,-24(fp)
}
   23224:	e037883a 	mov	sp,fp
   23228:	dfc00117 	ldw	ra,4(sp)
   2322c:	df000017 	ldw	fp,0(sp)
   23230:	dec00204 	addi	sp,sp,8
   23234:	f800283a 	ret

00023238 <crc16>:
    0x7c26,0x6c07,0x5c64,0x4c45,0x3ca2,0x2c83,0x1ce0,0x0cc1,
    0xef1f,0xff3e,0xcf5d,0xdf7c,0xaf9b,0xbfba,0x8fd9,0x9ff8,
    0x6e17,0x7e36,0x4e55,0x5e74,0x2e93,0x3eb2,0x0ed1,0x1ef0
};
  
alt_u16 crc16(const alt_u8 *buffer, int len){
   23238:	defffb04 	addi	sp,sp,-20
   2323c:	df000415 	stw	fp,16(sp)
   23240:	df000404 	addi	fp,sp,16
   23244:	e13ffe15 	stw	r4,-8(fp)
   23248:	e17fff15 	stw	r5,-4(fp)

    int counter;
    alt_u16 crc = 0;
   2324c:	e03ffd0d 	sth	zero,-12(fp)
    for( counter = 0; counter < len; counter++)
   23250:	e03ffc15 	stw	zero,-16(fp)
   23254:	00001906 	br	232bc <crc16+0x84>
        crc = (crc<<8) ^ crc16tab[((crc>>8) ^ *(char *)buffer++)&0x00FF];
   23258:	e0bffd0b 	ldhu	r2,-12(fp)
   2325c:	1004923a 	slli	r2,r2,8
   23260:	100b883a 	mov	r5,r2
   23264:	e0bffd0b 	ldhu	r2,-12(fp)
   23268:	1004d23a 	srli	r2,r2,8
   2326c:	10ffffcc 	andi	r3,r2,65535
   23270:	e0bffe17 	ldw	r2,-8(fp)
   23274:	11000044 	addi	r4,r2,1
   23278:	e13ffe15 	stw	r4,-8(fp)
   2327c:	10800003 	ldbu	r2,0(r2)
   23280:	10803fcc 	andi	r2,r2,255
   23284:	1080201c 	xori	r2,r2,128
   23288:	10bfe004 	addi	r2,r2,-128
   2328c:	1884f03a 	xor	r2,r3,r2
   23290:	10c03fcc 	andi	r3,r2,255
   23294:	008000f4 	movhi	r2,3
   23298:	1087db84 	addi	r2,r2,8046
   2329c:	18c7883a 	add	r3,r3,r3
   232a0:	10c5883a 	add	r2,r2,r3
   232a4:	1080000b 	ldhu	r2,0(r2)
   232a8:	2884f03a 	xor	r2,r5,r2
   232ac:	e0bffd0d 	sth	r2,-12(fp)
  
alt_u16 crc16(const alt_u8 *buffer, int len){

    int counter;
    alt_u16 crc = 0;
    for( counter = 0; counter < len; counter++)
   232b0:	e0bffc17 	ldw	r2,-16(fp)
   232b4:	10800044 	addi	r2,r2,1
   232b8:	e0bffc15 	stw	r2,-16(fp)
   232bc:	e0fffc17 	ldw	r3,-16(fp)
   232c0:	e0bfff17 	ldw	r2,-4(fp)
   232c4:	18bfe416 	blt	r3,r2,23258 <_gp+0xfffe7cac>
        crc = (crc<<8) ^ crc16tab[((crc>>8) ^ *(char *)buffer++)&0x00FF];
    return crc;
   232c8:	e0bffd0b 	ldhu	r2,-12(fp)
}
   232cc:	e037883a 	mov	sp,fp
   232d0:	df000017 	ldw	fp,0(sp)
   232d4:	dec00104 	addi	sp,sp,4
   232d8:	f800283a 	ret

000232dc <crc7_byte>:
      0x0e, 0x07, 0x1c, 0x15, 0x2a, 0x23, 0x38, 0x31,
      0x46, 0x4f, 0x54, 0x5d, 0x62, 0x6b, 0x70, 0x79
};

alt_u8 crc7_byte(alt_u8 crc, alt_u8 data)
{
   232dc:	defffd04 	addi	sp,sp,-12
   232e0:	df000215 	stw	fp,8(sp)
   232e4:	df000204 	addi	fp,sp,8
   232e8:	2007883a 	mov	r3,r4
   232ec:	2805883a 	mov	r2,r5
   232f0:	e0fffe05 	stb	r3,-8(fp)
   232f4:	e0bfff05 	stb	r2,-4(fp)
        return crc7_syndrome_table[(crc << 1) ^ data];
   232f8:	e0bffe03 	ldbu	r2,-8(fp)
   232fc:	1085883a 	add	r2,r2,r2
   23300:	1007883a 	mov	r3,r2
   23304:	e0bfff03 	ldbu	r2,-4(fp)
   23308:	1886f03a 	xor	r3,r3,r2
   2330c:	008000f4 	movhi	r2,3
   23310:	10885b84 	addi	r2,r2,8558
   23314:	10c5883a 	add	r2,r2,r3
   23318:	10800003 	ldbu	r2,0(r2)
}
   2331c:	e037883a 	mov	sp,fp
   23320:	df000017 	ldw	fp,0(sp)
   23324:	dec00104 	addi	sp,sp,4
   23328:	f800283a 	ret

0002332c <crc7>:
 * Context: any
 *
 * Returns the updated CRC7 value.
 */
alt_u8 crc7(alt_u8 crc, const alt_u8 *buffer, int len)
{
   2332c:	defffb04 	addi	sp,sp,-20
   23330:	dfc00415 	stw	ra,16(sp)
   23334:	df000315 	stw	fp,12(sp)
   23338:	df000304 	addi	fp,sp,12
   2333c:	2005883a 	mov	r2,r4
   23340:	e17ffe15 	stw	r5,-8(fp)
   23344:	e1bfff15 	stw	r6,-4(fp)
   23348:	e0bffd05 	stb	r2,-12(fp)
      while (len--)
   2334c:	00000906 	br	23374 <crc7+0x48>
            crc = crc7_byte(crc, *buffer++);
   23350:	e13ffd03 	ldbu	r4,-12(fp)
   23354:	e0bffe17 	ldw	r2,-8(fp)
   23358:	10c00044 	addi	r3,r2,1
   2335c:	e0fffe15 	stw	r3,-8(fp)
   23360:	10800003 	ldbu	r2,0(r2)
   23364:	10803fcc 	andi	r2,r2,255
   23368:	100b883a 	mov	r5,r2
   2336c:	00232dc0 	call	232dc <crc7_byte>
   23370:	e0bffd05 	stb	r2,-12(fp)
 *
 * Returns the updated CRC7 value.
 */
alt_u8 crc7(alt_u8 crc, const alt_u8 *buffer, int len)
{
      while (len--)
   23374:	e0bfff17 	ldw	r2,-4(fp)
   23378:	10ffffc4 	addi	r3,r2,-1
   2337c:	e0ffff15 	stw	r3,-4(fp)
   23380:	103ff31e 	bne	r2,zero,23350 <_gp+0xfffe7da4>
            crc = crc7_byte(crc, *buffer++);
      return crc;
   23384:	e0bffd03 	ldbu	r2,-12(fp)
}
   23388:	e037883a 	mov	sp,fp
   2338c:	dfc00117 	ldw	ra,4(sp)
   23390:	df000017 	ldw	fp,0(sp)
   23394:	dec00204 	addi	sp,sp,8
   23398:	f800283a 	ret

0002339c <SDHAL_IsSupport4Bits>:

#include "sd_hw.h"
#include "crc16.h"


bool SDHAL_IsSupport4Bits(void){
   2339c:	defffe04 	addi	sp,sp,-8
   233a0:	df000115 	stw	fp,4(sp)
   233a4:	df000104 	addi	fp,sp,4
    bool bYes = FALSE;
   233a8:	e03fff15 	stw	zero,-4(fp)
#ifdef SD_4BIT_MODE
    bYes = TRUE;
   233ac:	00800044 	movi	r2,1
   233b0:	e0bfff15 	stw	r2,-4(fp)
#endif    
    return bYes;
   233b4:	e0bfff17 	ldw	r2,-4(fp)
}
   233b8:	e037883a 	mov	sp,fp
   233bc:	df000017 	ldw	fp,0(sp)
   233c0:	dec00104 	addi	sp,sp,4
   233c4:	f800283a 	ret

000233c8 <SDHAL_Init>:

void SDHAL_Init(void){
   233c8:	deffff04 	addi	sp,sp,-4
   233cc:	df000015 	stw	fp,0(sp)
   233d0:	d839883a 	mov	fp,sp
    SD_CMD_OUT;
   233d4:	00c00044 	movi	r3,1
   233d8:	00800134 	movhi	r2,4
   233dc:	10844104 	addi	r2,r2,4356
   233e0:	10c00035 	stwio	r3,0(r2)
    SD_DAT_IN;
   233e4:	0007883a 	mov	r3,zero
   233e8:	00800134 	movhi	r2,4
   233ec:	10843d04 	addi	r2,r2,4340
   233f0:	10c00035 	stwio	r3,0(r2)
    SD_CLK_HIGH;
   233f4:	00c00044 	movi	r3,1
   233f8:	00800134 	movhi	r2,4
   233fc:	10844404 	addi	r2,r2,4368
   23400:	10c00035 	stwio	r3,0(r2)
    SD_CMD_HIGH;
   23404:	00c00044 	movi	r3,1
   23408:	00800134 	movhi	r2,4
   2340c:	10844004 	addi	r2,r2,4352
   23410:	10c00035 	stwio	r3,0(r2)
    SD_DAT_LOW;    
   23414:	0007883a 	mov	r3,zero
   23418:	00800134 	movhi	r2,4
   2341c:	10843c04 	addi	r2,r2,4336
   23420:	10c00035 	stwio	r3,0(r2)
}
   23424:	0001883a 	nop
   23428:	e037883a 	mov	sp,fp
   2342c:	df000017 	ldw	fp,0(sp)
   23430:	dec00104 	addi	sp,sp,4
   23434:	f800283a 	ret

00023438 <SDHAL_SendCmd>:

void SDHAL_SendCmd(alt_u8 szCommand[6], int nCmdLen){
   23438:	defffa04 	addi	sp,sp,-24
   2343c:	df000515 	stw	fp,20(sp)
   23440:	df000504 	addi	fp,sp,20
   23444:	e13ffe15 	stw	r4,-8(fp)
   23448:	e17fff15 	stw	r5,-4(fp)

    int i, k;
    alt_u8 Mask, Data;
    
    SD_CMD_OUT;
   2344c:	00c00044 	movi	r3,1
   23450:	00800134 	movhi	r2,4
   23454:	10844104 	addi	r2,r2,4356
   23458:	10c00035 	stwio	r3,0(r2)
    for(i=0;i<nCmdLen;i++){
   2345c:	e03ffb15 	stw	zero,-20(fp)
   23460:	00002b06 	br	23510 <SDHAL_SendCmd+0xd8>
        Mask = 0x80;
   23464:	00bfe004 	movi	r2,-128
   23468:	e0bffd05 	stb	r2,-12(fp)
        Data = szCommand[i];
   2346c:	e0bffb17 	ldw	r2,-20(fp)
   23470:	e0fffe17 	ldw	r3,-8(fp)
   23474:	1885883a 	add	r2,r3,r2
   23478:	10800003 	ldbu	r2,0(r2)
   2347c:	e0bffd45 	stb	r2,-11(fp)
        for(k=0;k<8;k++){
   23480:	e03ffc15 	stw	zero,-16(fp)
   23484:	00001c06 	br	234f8 <SDHAL_SendCmd+0xc0>
            SD_CLK_LOW;
   23488:	0007883a 	mov	r3,zero
   2348c:	00800134 	movhi	r2,4
   23490:	10844404 	addi	r2,r2,4368
   23494:	10c00035 	stwio	r3,0(r2)
            if (Data & Mask)
   23498:	e0fffd43 	ldbu	r3,-11(fp)
   2349c:	e0bffd03 	ldbu	r2,-12(fp)
   234a0:	1884703a 	and	r2,r3,r2
   234a4:	10803fcc 	andi	r2,r2,255
   234a8:	10000526 	beq	r2,zero,234c0 <SDHAL_SendCmd+0x88>
                SD_CMD_HIGH;
   234ac:	00c00044 	movi	r3,1
   234b0:	00800134 	movhi	r2,4
   234b4:	10844004 	addi	r2,r2,4352
   234b8:	10c00035 	stwio	r3,0(r2)
   234bc:	00000406 	br	234d0 <SDHAL_SendCmd+0x98>
            else
                SD_CMD_LOW;
   234c0:	0007883a 	mov	r3,zero
   234c4:	00800134 	movhi	r2,4
   234c8:	10844004 	addi	r2,r2,4352
   234cc:	10c00035 	stwio	r3,0(r2)
            SD_CLK_HIGH;
   234d0:	00c00044 	movi	r3,1
   234d4:	00800134 	movhi	r2,4
   234d8:	10844404 	addi	r2,r2,4368
   234dc:	10c00035 	stwio	r3,0(r2)
            //    
            Mask >>= 1;
   234e0:	e0bffd03 	ldbu	r2,-12(fp)
   234e4:	1004d07a 	srli	r2,r2,1
   234e8:	e0bffd05 	stb	r2,-12(fp)
    
    SD_CMD_OUT;
    for(i=0;i<nCmdLen;i++){
        Mask = 0x80;
        Data = szCommand[i];
        for(k=0;k<8;k++){
   234ec:	e0bffc17 	ldw	r2,-16(fp)
   234f0:	10800044 	addi	r2,r2,1
   234f4:	e0bffc15 	stw	r2,-16(fp)
   234f8:	e0bffc17 	ldw	r2,-16(fp)
   234fc:	10800210 	cmplti	r2,r2,8
   23500:	103fe11e 	bne	r2,zero,23488 <_gp+0xfffe7edc>

    int i, k;
    alt_u8 Mask, Data;
    
    SD_CMD_OUT;
    for(i=0;i<nCmdLen;i++){
   23504:	e0bffb17 	ldw	r2,-20(fp)
   23508:	10800044 	addi	r2,r2,1
   2350c:	e0bffb15 	stw	r2,-20(fp)
   23510:	e0fffb17 	ldw	r3,-20(fp)
   23514:	e0bfff17 	ldw	r2,-4(fp)
   23518:	18bfd216 	blt	r3,r2,23464 <_gp+0xfffe7eb8>
            //    
            Mask >>= 1;
           // usleep(1);
        }
    }
}
   2351c:	0001883a 	nop
   23520:	e037883a 	mov	sp,fp
   23524:	df000017 	ldw	fp,0(sp)
   23528:	dec00104 	addi	sp,sp,4
   2352c:	f800283a 	ret

00023530 <SDHAL_GetResponse>:




bool SDHAL_GetResponse(alt_u8 szResponse[], int nLen){
   23530:	defff504 	addi	sp,sp,-44
   23534:	dfc00a15 	stw	ra,40(sp)
   23538:	df000915 	stw	fp,36(sp)
   2353c:	df000904 	addi	fp,sp,36
   23540:	e13ffe15 	stw	r4,-8(fp)
   23544:	e17fff15 	stw	r5,-4(fp)
    bool bDone, bTimeout;
    const int nMaxCnt = 20; // !!!! Note. the value should be large than 8
   23548:	00800504 	movi	r2,20
   2354c:	e0bffc15 	stw	r2,-16(fp)
    int nCnt, nBitCnt, nIndex;
    alt_u8 Value;
    

    SD_CMD_IN;
   23550:	0007883a 	mov	r3,zero
   23554:	00800134 	movhi	r2,4
   23558:	10844104 	addi	r2,r2,4356
   2355c:	10c00035 	stwio	r3,0(r2)
    
    //===== check start bit == 0
    nCnt = 0;
   23560:	e03ff915 	stw	zero,-28(fp)
    bDone = FALSE;
   23564:	e03ff715 	stw	zero,-36(fp)
    bTimeout = FALSE;
   23568:	e03ff815 	stw	zero,-32(fp)
    while(!bDone && !bTimeout){
   2356c:	00001606 	br	235c8 <SDHAL_GetResponse+0x98>
        SD_CLK_LOW;
   23570:	0007883a 	mov	r3,zero
   23574:	00800134 	movhi	r2,4
   23578:	10844404 	addi	r2,r2,4368
   2357c:	10c00035 	stwio	r3,0(r2)
        SD_CLK_HIGH;
   23580:	00c00044 	movi	r3,1
   23584:	00800134 	movhi	r2,4
   23588:	10844404 	addi	r2,r2,4368
   2358c:	10c00035 	stwio	r3,0(r2)
        if(!(SD_TEST_CMD))
   23590:	00800134 	movhi	r2,4
   23594:	10844004 	addi	r2,r2,4352
   23598:	10800037 	ldwio	r2,0(r2)
   2359c:	1000031e 	bne	r2,zero,235ac <SDHAL_GetResponse+0x7c>
            bDone = TRUE;
   235a0:	00800044 	movi	r2,1
   235a4:	e0bff715 	stw	r2,-36(fp)
   235a8:	00000706 	br	235c8 <SDHAL_GetResponse+0x98>
        else if(nCnt++ > nMaxCnt)
   235ac:	e0bff917 	ldw	r2,-28(fp)
   235b0:	10c00044 	addi	r3,r2,1
   235b4:	e0fff915 	stw	r3,-28(fp)
   235b8:	e0fffc17 	ldw	r3,-16(fp)
   235bc:	1880020e 	bge	r3,r2,235c8 <SDHAL_GetResponse+0x98>
            bTimeout = TRUE;
   235c0:	00800044 	movi	r2,1
   235c4:	e0bff815 	stw	r2,-32(fp)
    
    //===== check start bit == 0
    nCnt = 0;
    bDone = FALSE;
    bTimeout = FALSE;
    while(!bDone && !bTimeout){
   235c8:	e0bff717 	ldw	r2,-36(fp)
   235cc:	1000021e 	bne	r2,zero,235d8 <SDHAL_GetResponse+0xa8>
   235d0:	e0bff817 	ldw	r2,-32(fp)
   235d4:	103fe626 	beq	r2,zero,23570 <_gp+0xfffe7fc4>
            bDone = TRUE;
        else if(nCnt++ > nMaxCnt)
            bTimeout = TRUE;
    }
    
    if (!bDone || bTimeout)
   235d8:	e0bff717 	ldw	r2,-36(fp)
   235dc:	10000226 	beq	r2,zero,235e8 <SDHAL_GetResponse+0xb8>
   235e0:	e0bff817 	ldw	r2,-32(fp)
   235e4:	10000226 	beq	r2,zero,235f0 <SDHAL_GetResponse+0xc0>
        return FALSE;
   235e8:	0005883a 	mov	r2,zero
   235ec:	00005006 	br	23730 <SDHAL_GetResponse+0x200>
  
    //===== check transmitter bit == 0

    SD_CLK_LOW;
   235f0:	0007883a 	mov	r3,zero
   235f4:	00800134 	movhi	r2,4
   235f8:	10844404 	addi	r2,r2,4368
   235fc:	10c00035 	stwio	r3,0(r2)
    SD_CLK_HIGH;
   23600:	00c00044 	movi	r3,1
   23604:	00800134 	movhi	r2,4
   23608:	10844404 	addi	r2,r2,4368
   2360c:	10c00035 	stwio	r3,0(r2)
    if (SD_TEST_CMD)
   23610:	00800134 	movhi	r2,4
   23614:	10844004 	addi	r2,r2,4352
   23618:	10800037 	ldwio	r2,0(r2)
   2361c:	10000226 	beq	r2,zero,23628 <SDHAL_GetResponse+0xf8>
        return FALSE;   // 0 is expected
   23620:	0005883a 	mov	r2,zero
   23624:	00004206 	br	23730 <SDHAL_GetResponse+0x200>

    
    //===== read content + CRC + end-bits ======
    nIndex = 2;
   23628:	00800084 	movi	r2,2
   2362c:	e0bffa15 	stw	r2,-24(fp)
    nBitCnt = nLen*8;
   23630:	e0bfff17 	ldw	r2,-4(fp)
   23634:	100490fa 	slli	r2,r2,3
   23638:	e0bffd15 	stw	r2,-12(fp)
    bDone = FALSE;
   2363c:	e03ff715 	stw	zero,-36(fp)
    Value = 0;
   23640:	e03ffb05 	stb	zero,-20(fp)
    while(nIndex < nBitCnt){
   23644:	00003406 	br	23718 <SDHAL_GetResponse+0x1e8>
        SD_CLK_LOW;
   23648:	0007883a 	mov	r3,zero
   2364c:	00800134 	movhi	r2,4
   23650:	10844404 	addi	r2,r2,4368
   23654:	10c00035 	stwio	r3,0(r2)
        SD_CLK_HIGH;
   23658:	00c00044 	movi	r3,1
   2365c:	00800134 	movhi	r2,4
   23660:	10844404 	addi	r2,r2,4368
   23664:	10c00035 	stwio	r3,0(r2)
        if (SD_TEST_CMD){
   23668:	00800134 	movhi	r2,4
   2366c:	10844004 	addi	r2,r2,4352
   23670:	10800037 	ldwio	r2,0(r2)
   23674:	10001026 	beq	r2,zero,236b8 <SDHAL_GetResponse+0x188>
            Value |= 0x80 >> (nIndex % 8);
   23678:	e0fffa17 	ldw	r3,-24(fp)
   2367c:	00a00034 	movhi	r2,32768
   23680:	108001c4 	addi	r2,r2,7
   23684:	1884703a 	and	r2,r3,r2
   23688:	1000040e 	bge	r2,zero,2369c <SDHAL_GetResponse+0x16c>
   2368c:	10bfffc4 	addi	r2,r2,-1
   23690:	00fffe04 	movi	r3,-8
   23694:	10c4b03a 	or	r2,r2,r3
   23698:	10800044 	addi	r2,r2,1
   2369c:	1007883a 	mov	r3,r2
   236a0:	00802004 	movi	r2,128
   236a4:	10c5d83a 	sra	r2,r2,r3
   236a8:	1007883a 	mov	r3,r2
   236ac:	e0bffb03 	ldbu	r2,-20(fp)
   236b0:	1884b03a 	or	r2,r3,r2
   236b4:	e0bffb05 	stb	r2,-20(fp)
        }
        if (nIndex%8 == 7){
   236b8:	e0fffa17 	ldw	r3,-24(fp)
   236bc:	00a00034 	movhi	r2,32768
   236c0:	108001c4 	addi	r2,r2,7
   236c4:	1884703a 	and	r2,r3,r2
   236c8:	1000040e 	bge	r2,zero,236dc <SDHAL_GetResponse+0x1ac>
   236cc:	10bfffc4 	addi	r2,r2,-1
   236d0:	00fffe04 	movi	r3,-8
   236d4:	10c4b03a 	or	r2,r2,r3
   236d8:	10800044 	addi	r2,r2,1
   236dc:	108001d8 	cmpnei	r2,r2,7
   236e0:	10000a1e 	bne	r2,zero,2370c <SDHAL_GetResponse+0x1dc>
            szResponse[nIndex/8] = Value;
   236e4:	e0bffa17 	ldw	r2,-24(fp)
   236e8:	1000010e 	bge	r2,zero,236f0 <SDHAL_GetResponse+0x1c0>
   236ec:	108001c4 	addi	r2,r2,7
   236f0:	1005d0fa 	srai	r2,r2,3
   236f4:	1007883a 	mov	r3,r2
   236f8:	e0bffe17 	ldw	r2,-8(fp)
   236fc:	10c5883a 	add	r2,r2,r3
   23700:	e0fffb03 	ldbu	r3,-20(fp)
   23704:	10c00005 	stb	r3,0(r2)
            Value = 0;
   23708:	e03ffb05 	stb	zero,-20(fp)
        }
        nIndex++;
   2370c:	e0bffa17 	ldw	r2,-24(fp)
   23710:	10800044 	addi	r2,r2,1
   23714:	e0bffa15 	stw	r2,-24(fp)
    //===== read content + CRC + end-bits ======
    nIndex = 2;
    nBitCnt = nLen*8;
    bDone = FALSE;
    Value = 0;
    while(nIndex < nBitCnt){
   23718:	e0fffa17 	ldw	r3,-24(fp)
   2371c:	e0bffd17 	ldw	r2,-12(fp)
   23720:	18bfc916 	blt	r3,r2,23648 <_gp+0xfffe809c>
        }
        nIndex++;
    } 
    
    // A command with response. 8 clocks after the card response end bit.
    SDHAL_DummyClock(8);
   23724:	01000204 	movi	r4,8
   23728:	0023df40 	call	23df4 <SDHAL_DummyClock>
    
    return TRUE;
   2372c:	00800044 	movi	r2,1
}
   23730:	e037883a 	mov	sp,fp
   23734:	dfc00117 	ldw	ra,4(sp)
   23738:	df000017 	ldw	fp,0(sp)
   2373c:	dec00204 	addi	sp,sp,8
   23740:	f800283a 	ret

00023744 <SDHAL_ReadData>:


bool SDHAL_ReadData(alt_u8 szBuf[], int nBufLen){
   23744:	deff6e04 	addi	sp,sp,-584
   23748:	dfc09115 	stw	ra,580(sp)
   2374c:	df009015 	stw	fp,576(sp)
   23750:	df009004 	addi	fp,sp,576
   23754:	e13ffe15 	stw	r4,-8(fp)
   23758:	e17fff15 	stw	r5,-4(fp)
    bool bSuccess = TRUE;
   2375c:	00800044 	movi	r2,1
   23760:	e0bf7015 	stw	r2,-576(fp)
    int nTry = 0;
   23764:	e03f7115 	stw	zero,-572(fp)
    const int nMaxTry = 5000; 
   23768:	0084e204 	movi	r2,5000
   2376c:	e0bf7a15 	stw	r2,-536(fp)
    int i, j,k,n=0;   
   23770:	e03f7515 	stw	zero,-556(fp)
    
    alt_u8 Data8_0,Data8_1,Data8_2,Data8_3;
    
#endif    
    
    SD_DAT_IN;
   23774:	0007883a 	mov	r3,zero
   23778:	00800134 	movhi	r2,4
   2377c:	10843d04 	addi	r2,r2,4340
   23780:	10c00035 	stwio	r3,0(r2)
    
    // wait start bits (zero)
    while(1){
      SD_CLK_LOW;
   23784:	0007883a 	mov	r3,zero
   23788:	00800134 	movhi	r2,4
   2378c:	10844404 	addi	r2,r2,4368
   23790:	10c00035 	stwio	r3,0(r2)
      SD_CLK_HIGH;
   23794:	00c00044 	movi	r3,1
   23798:	00800134 	movhi	r2,4
   2379c:	10844404 	addi	r2,r2,4368
   237a0:	10c00035 	stwio	r3,0(r2)
#ifdef SD_4BIT_MODE
      if((SD_TEST_DAT & 0x0F) == 0x00) // check start bits (zero is expected)
   237a4:	00800134 	movhi	r2,4
   237a8:	10843c04 	addi	r2,r2,4336
   237ac:	10800037 	ldwio	r2,0(r2)
   237b0:	108003cc 	andi	r2,r2,15
   237b4:	10000726 	beq	r2,zero,237d4 <SDHAL_ReadData+0x90>
#else      
      if((SD_TEST_DAT & 0x01) == 0x00) // check start bits (zero is expected)
#endif      
        break;
      if (nTry++ > nMaxTry)
   237b8:	e0bf7117 	ldw	r2,-572(fp)
   237bc:	10c00044 	addi	r3,r2,1
   237c0:	e0ff7115 	stw	r3,-572(fp)
   237c4:	e0ff7a17 	ldw	r3,-536(fp)
   237c8:	18bfee0e 	bge	r3,r2,23784 <_gp+0xfffe81d8>
        return FALSE;        
   237cc:	0005883a 	mov	r2,zero
   237d0:	00010b06 	br	23c00 <SDHAL_ReadData+0x4bc>
#ifdef SD_4BIT_MODE
      if((SD_TEST_DAT & 0x0F) == 0x00) // check start bits (zero is expected)
#else      
      if((SD_TEST_DAT & 0x01) == 0x00) // check start bits (zero is expected)
#endif      
        break;
   237d4:	0001883a 	nop
    }     
    
    // read data (512byte = 1 block)
    
#ifdef SD_4BIT_MODE
     for(i=0;i<nBufLen/4;i++)
   237d8:	e03f7215 	stw	zero,-568(fp)
   237dc:	00007106 	br	239a4 <SDHAL_ReadData+0x260>
     {
        k = 0;
   237e0:	e03f7415 	stw	zero,-560(fp)
        Data8   = 0;
   237e4:	e03f7605 	stb	zero,-552(fp)
        Data8_0 = 0;
   237e8:	e03f7885 	stb	zero,-542(fp)
        Data8_1 = 0;
   237ec:	e03f78c5 	stb	zero,-541(fp)
        Data8_2 = 0;
   237f0:	e03f7905 	stb	zero,-540(fp)
        Data8_3 = 0;
   237f4:	e03f7945 	stb	zero,-539(fp)
        
        for(j=0;j<8;j++)
   237f8:	e03f7315 	stw	zero,-564(fp)
   237fc:	00004f06 	br	2393c <SDHAL_ReadData+0x1f8>
        {
          SD_CLK_LOW;
   23800:	0007883a 	mov	r3,zero
   23804:	00800134 	movhi	r2,4
   23808:	10844404 	addi	r2,r2,4368
   2380c:	10c00035 	stwio	r3,0(r2)
          SD_CLK_HIGH;
   23810:	00c00044 	movi	r3,1
   23814:	00800134 	movhi	r2,4
   23818:	10844404 	addi	r2,r2,4368
   2381c:	10c00035 	stwio	r3,0(r2)
          Data8   <<= 4;
   23820:	e0bf7603 	ldbu	r2,-552(fp)
   23824:	1004913a 	slli	r2,r2,4
   23828:	e0bf7605 	stb	r2,-552(fp)
          Data8_0 <<= 1;
   2382c:	e0bf7883 	ldbu	r2,-542(fp)
   23830:	1085883a 	add	r2,r2,r2
   23834:	e0bf7885 	stb	r2,-542(fp)
          Data8_1 <<= 1;
   23838:	e0bf78c3 	ldbu	r2,-541(fp)
   2383c:	1085883a 	add	r2,r2,r2
   23840:	e0bf78c5 	stb	r2,-541(fp)
          Data8_2 <<= 1;
   23844:	e0bf7903 	ldbu	r2,-540(fp)
   23848:	1085883a 	add	r2,r2,r2
   2384c:	e0bf7905 	stb	r2,-540(fp)
          Data8_3 <<= 1; 
   23850:	e0bf7943 	ldbu	r2,-539(fp)
   23854:	1085883a 	add	r2,r2,r2
   23858:	e0bf7945 	stb	r2,-539(fp)
          
          DataTemp = SD_TEST_DAT;
   2385c:	00800134 	movhi	r2,4
   23860:	10843c04 	addi	r2,r2,4336
   23864:	10800037 	ldwio	r2,0(r2)
   23868:	e0bf7b05 	stb	r2,-532(fp)
          Data8   |= (DataTemp & 0x0F);
   2386c:	e0bf7b03 	ldbu	r2,-532(fp)
   23870:	108003cc 	andi	r2,r2,15
   23874:	1007883a 	mov	r3,r2
   23878:	e0bf7603 	ldbu	r2,-552(fp)
   2387c:	1884b03a 	or	r2,r3,r2
   23880:	e0bf7605 	stb	r2,-552(fp)
          Data8_0 |= (DataTemp & 0x01);
   23884:	e0bf7b03 	ldbu	r2,-532(fp)
   23888:	1080004c 	andi	r2,r2,1
   2388c:	1007883a 	mov	r3,r2
   23890:	e0bf7883 	ldbu	r2,-542(fp)
   23894:	1884b03a 	or	r2,r3,r2
   23898:	e0bf7885 	stb	r2,-542(fp)
          Data8_1 |= ((DataTemp >> 1) & 0x01);
   2389c:	e0bf7b03 	ldbu	r2,-532(fp)
   238a0:	1004d07a 	srli	r2,r2,1
   238a4:	1080004c 	andi	r2,r2,1
   238a8:	1007883a 	mov	r3,r2
   238ac:	e0bf78c3 	ldbu	r2,-541(fp)
   238b0:	1884b03a 	or	r2,r3,r2
   238b4:	e0bf78c5 	stb	r2,-541(fp)
          Data8_2 |= ((DataTemp >> 2) & 0x01);
   238b8:	e0bf7b03 	ldbu	r2,-532(fp)
   238bc:	1004d0ba 	srli	r2,r2,2
   238c0:	1080004c 	andi	r2,r2,1
   238c4:	1007883a 	mov	r3,r2
   238c8:	e0bf7903 	ldbu	r2,-540(fp)
   238cc:	1884b03a 	or	r2,r3,r2
   238d0:	e0bf7905 	stb	r2,-540(fp)
          Data8_3 |= ((DataTemp >> 3) & 0x01);
   238d4:	e0bf7b03 	ldbu	r2,-532(fp)
   238d8:	1004d0fa 	srli	r2,r2,3
   238dc:	1080004c 	andi	r2,r2,1
   238e0:	1007883a 	mov	r3,r2
   238e4:	e0bf7943 	ldbu	r2,-539(fp)
   238e8:	1884b03a 	or	r2,r3,r2
   238ec:	e0bf7945 	stb	r2,-539(fp)
          
          k++;
   238f0:	e0bf7417 	ldw	r2,-560(fp)
   238f4:	10800044 	addi	r2,r2,1
   238f8:	e0bf7415 	stw	r2,-560(fp)
          if(k == 2)
   238fc:	e0bf7417 	ldw	r2,-560(fp)
   23900:	10800098 	cmpnei	r2,r2,2
   23904:	10000a1e 	bne	r2,zero,23930 <SDHAL_ReadData+0x1ec>
          {
            szBuf[n++] = Data8;
   23908:	e0bf7517 	ldw	r2,-556(fp)
   2390c:	10c00044 	addi	r3,r2,1
   23910:	e0ff7515 	stw	r3,-556(fp)
   23914:	1007883a 	mov	r3,r2
   23918:	e0bffe17 	ldw	r2,-8(fp)
   2391c:	10c5883a 	add	r2,r2,r3
   23920:	e0ff7603 	ldbu	r3,-552(fp)
   23924:	10c00005 	stb	r3,0(r2)
            Data8 = 0;
   23928:	e03f7605 	stb	zero,-552(fp)
            k = 0;
   2392c:	e03f7415 	stw	zero,-560(fp)
        Data8_0 = 0;
        Data8_1 = 0;
        Data8_2 = 0;
        Data8_3 = 0;
        
        for(j=0;j<8;j++)
   23930:	e0bf7317 	ldw	r2,-564(fp)
   23934:	10800044 	addi	r2,r2,1
   23938:	e0bf7315 	stw	r2,-564(fp)
   2393c:	e0bf7317 	ldw	r2,-564(fp)
   23940:	10800210 	cmplti	r2,r2,8
   23944:	103fae1e 	bne	r2,zero,23800 <_gp+0xfffe8254>
            szBuf[n++] = Data8;
            Data8 = 0;
            k = 0;
          }
        } 
        szBuf_0[i] = Data8_0;
   23948:	e0ff7d84 	addi	r3,fp,-522
   2394c:	e0bf7217 	ldw	r2,-568(fp)
   23950:	1885883a 	add	r2,r3,r2
   23954:	e0ff7883 	ldbu	r3,-542(fp)
   23958:	10c00005 	stb	r3,0(r2)
        szBuf_1[i] = Data8_1;
   2395c:	e0ff9d84 	addi	r3,fp,-394
   23960:	e0bf7217 	ldw	r2,-568(fp)
   23964:	1885883a 	add	r2,r3,r2
   23968:	e0ff78c3 	ldbu	r3,-541(fp)
   2396c:	10c00005 	stb	r3,0(r2)
        szBuf_2[i] = Data8_2;
   23970:	e0ffbd84 	addi	r3,fp,-266
   23974:	e0bf7217 	ldw	r2,-568(fp)
   23978:	1885883a 	add	r2,r3,r2
   2397c:	e0ff7903 	ldbu	r3,-540(fp)
   23980:	10c00005 	stb	r3,0(r2)
        szBuf_3[i] = Data8_3;
   23984:	e0ffdd84 	addi	r3,fp,-138
   23988:	e0bf7217 	ldw	r2,-568(fp)
   2398c:	1885883a 	add	r2,r3,r2
   23990:	e0ff7943 	ldbu	r3,-539(fp)
   23994:	10c00005 	stb	r3,0(r2)
    }     
    
    // read data (512byte = 1 block)
    
#ifdef SD_4BIT_MODE
     for(i=0;i<nBufLen/4;i++)
   23998:	e0bf7217 	ldw	r2,-568(fp)
   2399c:	10800044 	addi	r2,r2,1
   239a0:	e0bf7215 	stw	r2,-568(fp)
   239a4:	e0bfff17 	ldw	r2,-4(fp)
   239a8:	1000010e 	bge	r2,zero,239b0 <SDHAL_ReadData+0x26c>
   239ac:	108000c4 	addi	r2,r2,3
   239b0:	1005d0ba 	srai	r2,r2,2
   239b4:	1007883a 	mov	r3,r2
   239b8:	e0bf7217 	ldw	r2,-568(fp)
   239bc:	10ff8816 	blt	r2,r3,237e0 <_gp+0xfffe8234>
#endif

    //===== CRC16 and end-bit check (each channel is seperated)
#ifdef SD_4BIT_MODE 
    // Not implement yet
    DataCrc16_0 = 0;
   239c0:	e03f768d 	sth	zero,-550(fp)
    DataCrc16_1 = 0;
   239c4:	e03f770d 	sth	zero,-548(fp)
    DataCrc16_2 = 0;
   239c8:	e03f778d 	sth	zero,-546(fp)
    DataCrc16_3 = 0;
   239cc:	e03f780d 	sth	zero,-544(fp)
    for(i=0;i<16;i++)
   239d0:	e03f7215 	stw	zero,-568(fp)
   239d4:	00003306 	br	23aa4 <SDHAL_ReadData+0x360>
    {
        SD_CLK_LOW;
   239d8:	0007883a 	mov	r3,zero
   239dc:	00800134 	movhi	r2,4
   239e0:	10844404 	addi	r2,r2,4368
   239e4:	10c00035 	stwio	r3,0(r2)
        SD_CLK_HIGH;
   239e8:	00c00044 	movi	r3,1
   239ec:	00800134 	movhi	r2,4
   239f0:	10844404 	addi	r2,r2,4368
   239f4:	10c00035 	stwio	r3,0(r2)
        
        DataCrc16_0 <<= 1;
   239f8:	e0bf768b 	ldhu	r2,-550(fp)
   239fc:	1085883a 	add	r2,r2,r2
   23a00:	e0bf768d 	sth	r2,-550(fp)
        DataCrc16_1 <<= 1;
   23a04:	e0bf770b 	ldhu	r2,-548(fp)
   23a08:	1085883a 	add	r2,r2,r2
   23a0c:	e0bf770d 	sth	r2,-548(fp)
        DataCrc16_2 <<= 1;
   23a10:	e0bf778b 	ldhu	r2,-546(fp)
   23a14:	1085883a 	add	r2,r2,r2
   23a18:	e0bf778d 	sth	r2,-546(fp)
        DataCrc16_3 <<= 1;
   23a1c:	e0bf780b 	ldhu	r2,-544(fp)
   23a20:	1085883a 	add	r2,r2,r2
   23a24:	e0bf780d 	sth	r2,-544(fp)
        
        DataTemp = SD_TEST_DAT;
   23a28:	00800134 	movhi	r2,4
   23a2c:	10843c04 	addi	r2,r2,4336
   23a30:	10800037 	ldwio	r2,0(r2)
   23a34:	e0bf7b05 	stb	r2,-532(fp)
        
        if (DataTemp & 0x01)
   23a38:	e0bf7b03 	ldbu	r2,-532(fp)
   23a3c:	1080004c 	andi	r2,r2,1
   23a40:	10000326 	beq	r2,zero,23a50 <SDHAL_ReadData+0x30c>
            DataCrc16_0 |= 0x01;
   23a44:	e0bf768b 	ldhu	r2,-550(fp)
   23a48:	10800054 	ori	r2,r2,1
   23a4c:	e0bf768d 	sth	r2,-550(fp)
         if(DataTemp & 0x02)
   23a50:	e0bf7b03 	ldbu	r2,-532(fp)
   23a54:	1080008c 	andi	r2,r2,2
   23a58:	10000326 	beq	r2,zero,23a68 <SDHAL_ReadData+0x324>
            DataCrc16_1 |= 0x01;
   23a5c:	e0bf770b 	ldhu	r2,-548(fp)
   23a60:	10800054 	ori	r2,r2,1
   23a64:	e0bf770d 	sth	r2,-548(fp)
         if(DataTemp & 0x04)
   23a68:	e0bf7b03 	ldbu	r2,-532(fp)
   23a6c:	1080010c 	andi	r2,r2,4
   23a70:	10000326 	beq	r2,zero,23a80 <SDHAL_ReadData+0x33c>
            DataCrc16_2 |= 0x01;
   23a74:	e0bf778b 	ldhu	r2,-546(fp)
   23a78:	10800054 	ori	r2,r2,1
   23a7c:	e0bf778d 	sth	r2,-546(fp)
         if(DataTemp & 0x08)
   23a80:	e0bf7b03 	ldbu	r2,-532(fp)
   23a84:	1080020c 	andi	r2,r2,8
   23a88:	10000326 	beq	r2,zero,23a98 <SDHAL_ReadData+0x354>
            DataCrc16_3 |= 0x01;
   23a8c:	e0bf780b 	ldhu	r2,-544(fp)
   23a90:	10800054 	ori	r2,r2,1
   23a94:	e0bf780d 	sth	r2,-544(fp)
    // Not implement yet
    DataCrc16_0 = 0;
    DataCrc16_1 = 0;
    DataCrc16_2 = 0;
    DataCrc16_3 = 0;
    for(i=0;i<16;i++)
   23a98:	e0bf7217 	ldw	r2,-568(fp)
   23a9c:	10800044 	addi	r2,r2,1
   23aa0:	e0bf7215 	stw	r2,-568(fp)
   23aa4:	e0bf7217 	ldw	r2,-568(fp)
   23aa8:	10800410 	cmplti	r2,r2,16
   23aac:	103fca1e 	bne	r2,zero,239d8 <_gp+0xfffe842c>
         if(DataTemp & 0x08)
            DataCrc16_3 |= 0x01;
    }
    
    // check end bit (value 'one' is expected
    SD_CLK_LOW;
   23ab0:	0007883a 	mov	r3,zero
   23ab4:	00800134 	movhi	r2,4
   23ab8:	10844404 	addi	r2,r2,4368
   23abc:	10c00035 	stwio	r3,0(r2)
    SD_CLK_HIGH;
   23ac0:	00c00044 	movi	r3,1
   23ac4:	00800134 	movhi	r2,4
   23ac8:	10844404 	addi	r2,r2,4368
   23acc:	10c00035 	stwio	r3,0(r2)
    if ((SD_TEST_DAT & 0x0F) != 0x0F)
   23ad0:	00800134 	movhi	r2,4
   23ad4:	10843c04 	addi	r2,r2,4336
   23ad8:	10800037 	ldwio	r2,0(r2)
   23adc:	108003cc 	andi	r2,r2,15
   23ae0:	108003e0 	cmpeqi	r2,r2,15
   23ae4:	1000011e 	bne	r2,zero,23aec <SDHAL_ReadData+0x3a8>
        bSuccess = FALSE;
   23ae8:	e03f7015 	stw	zero,-576(fp)
     
    // to provide8 (eight) clock cycles for the card to complete the operation before shutting down the clock 
    SDHAL_DummyClock(8);     
   23aec:	01000204 	movi	r4,8
   23af0:	0023df40 	call	23df4 <SDHAL_DummyClock>
     
    // check crc    
    if (bSuccess){
   23af4:	e0bf7017 	ldw	r2,-576(fp)
   23af8:	10000e26 	beq	r2,zero,23b34 <SDHAL_ReadData+0x3f0>
        MyCrc16_0 = crc16(szBuf_0, nBufLen/4);
   23afc:	e0bfff17 	ldw	r2,-4(fp)
   23b00:	1000010e 	bge	r2,zero,23b08 <SDHAL_ReadData+0x3c4>
   23b04:	108000c4 	addi	r2,r2,3
   23b08:	1005d0ba 	srai	r2,r2,2
   23b0c:	1007883a 	mov	r3,r2
   23b10:	e0bf7d84 	addi	r2,fp,-522
   23b14:	180b883a 	mov	r5,r3
   23b18:	1009883a 	mov	r4,r2
   23b1c:	00232380 	call	23238 <crc16>
   23b20:	e0bf7b8d 	sth	r2,-530(fp)
        if (MyCrc16_0 != DataCrc16_0)
   23b24:	e0ff7b8b 	ldhu	r3,-530(fp)
   23b28:	e0bf768b 	ldhu	r2,-550(fp)
   23b2c:	18800126 	beq	r3,r2,23b34 <SDHAL_ReadData+0x3f0>
            bSuccess = FALSE;
   23b30:	e03f7015 	stw	zero,-576(fp)
    }    
    if (bSuccess){
   23b34:	e0bf7017 	ldw	r2,-576(fp)
   23b38:	10000e26 	beq	r2,zero,23b74 <SDHAL_ReadData+0x430>
        MyCrc16_1 = crc16(szBuf_1, nBufLen/4);
   23b3c:	e0bfff17 	ldw	r2,-4(fp)
   23b40:	1000010e 	bge	r2,zero,23b48 <SDHAL_ReadData+0x404>
   23b44:	108000c4 	addi	r2,r2,3
   23b48:	1005d0ba 	srai	r2,r2,2
   23b4c:	1007883a 	mov	r3,r2
   23b50:	e0bf9d84 	addi	r2,fp,-394
   23b54:	180b883a 	mov	r5,r3
   23b58:	1009883a 	mov	r4,r2
   23b5c:	00232380 	call	23238 <crc16>
   23b60:	e0bf7c0d 	sth	r2,-528(fp)
        if (MyCrc16_1 != DataCrc16_1)
   23b64:	e0ff7c0b 	ldhu	r3,-528(fp)
   23b68:	e0bf770b 	ldhu	r2,-548(fp)
   23b6c:	18800126 	beq	r3,r2,23b74 <SDHAL_ReadData+0x430>
            bSuccess = FALSE;
   23b70:	e03f7015 	stw	zero,-576(fp)
    }   
    if (bSuccess){
   23b74:	e0bf7017 	ldw	r2,-576(fp)
   23b78:	10000e26 	beq	r2,zero,23bb4 <SDHAL_ReadData+0x470>
        MyCrc16_2 = crc16(szBuf_2, nBufLen/4);
   23b7c:	e0bfff17 	ldw	r2,-4(fp)
   23b80:	1000010e 	bge	r2,zero,23b88 <SDHAL_ReadData+0x444>
   23b84:	108000c4 	addi	r2,r2,3
   23b88:	1005d0ba 	srai	r2,r2,2
   23b8c:	1007883a 	mov	r3,r2
   23b90:	e0bfbd84 	addi	r2,fp,-266
   23b94:	180b883a 	mov	r5,r3
   23b98:	1009883a 	mov	r4,r2
   23b9c:	00232380 	call	23238 <crc16>
   23ba0:	e0bf7c8d 	sth	r2,-526(fp)
        if (MyCrc16_2 != DataCrc16_2)
   23ba4:	e0ff7c8b 	ldhu	r3,-526(fp)
   23ba8:	e0bf778b 	ldhu	r2,-546(fp)
   23bac:	18800126 	beq	r3,r2,23bb4 <SDHAL_ReadData+0x470>
            bSuccess = FALSE;
   23bb0:	e03f7015 	stw	zero,-576(fp)
    } 
    if (bSuccess){
   23bb4:	e0bf7017 	ldw	r2,-576(fp)
   23bb8:	10000e26 	beq	r2,zero,23bf4 <SDHAL_ReadData+0x4b0>
        MyCrc16_3 = crc16(szBuf_3, nBufLen/4);
   23bbc:	e0bfff17 	ldw	r2,-4(fp)
   23bc0:	1000010e 	bge	r2,zero,23bc8 <SDHAL_ReadData+0x484>
   23bc4:	108000c4 	addi	r2,r2,3
   23bc8:	1005d0ba 	srai	r2,r2,2
   23bcc:	1007883a 	mov	r3,r2
   23bd0:	e0bfdd84 	addi	r2,fp,-138
   23bd4:	180b883a 	mov	r5,r3
   23bd8:	1009883a 	mov	r4,r2
   23bdc:	00232380 	call	23238 <crc16>
   23be0:	e0bf7d0d 	sth	r2,-524(fp)
        if (MyCrc16_3 != DataCrc16_3)
   23be4:	e0ff7d0b 	ldhu	r3,-524(fp)
   23be8:	e0bf780b 	ldhu	r2,-544(fp)
   23bec:	18800126 	beq	r3,r2,23bf4 <SDHAL_ReadData+0x4b0>
            bSuccess = FALSE;
   23bf0:	e03f7015 	stw	zero,-576(fp)
            j=0;
        }
    }
    printf("\r\n");*/
    //usleep(500);
    usleep(10000);
   23bf4:	0109c404 	movi	r4,10000
   23bf8:	00308fc0 	call	308fc <usleep>
    return bSuccess;
   23bfc:	e0bf7017 	ldw	r2,-576(fp)
}
   23c00:	e037883a 	mov	sp,fp
   23c04:	dfc00117 	ldw	ra,4(sp)
   23c08:	df000017 	ldw	fp,0(sp)
   23c0c:	dec00204 	addi	sp,sp,8
   23c10:	f800283a 	ret

00023c14 <SDHAL_WriteData>:

bool SDHAL_WriteData(alt_u8 szDataWrite[], int nDataLen){
   23c14:	defff604 	addi	sp,sp,-40
   23c18:	dfc00915 	stw	ra,36(sp)
   23c1c:	df000815 	stw	fp,32(sp)
   23c20:	df000804 	addi	fp,sp,32
   23c24:	e13ffe15 	stw	r4,-8(fp)
   23c28:	e17fff15 	stw	r5,-4(fp)
    bool bSuccess = TRUE;
   23c2c:	00800044 	movi	r2,1
   23c30:	e0bff815 	stw	r2,-32(fp)
  //  const int nMaxTry = 5000; 
    int i, j;   
    alt_u8 Data8;
    alt_u16 DataCrc16;
    
    DataCrc16 = crc16(szDataWrite, nDataLen);
   23c34:	e17fff17 	ldw	r5,-4(fp)
   23c38:	e13ffe17 	ldw	r4,-8(fp)
   23c3c:	00232380 	call	23238 <crc16>
   23c40:	e0bffd0d 	sth	r2,-12(fp)
        break;
      if (nTry++ > nMaxTry)
        return FALSE;        
    } */    
    
    SD_DAT_OUT;
   23c44:	00c00044 	movi	r3,1
   23c48:	00800134 	movhi	r2,4
   23c4c:	10843d04 	addi	r2,r2,4340
   23c50:	10c00035 	stwio	r3,0(r2)
    // start bits (zero value)
    SD_CLK_LOW;
   23c54:	0007883a 	mov	r3,zero
   23c58:	00800134 	movhi	r2,4
   23c5c:	10844404 	addi	r2,r2,4368
   23c60:	10c00035 	stwio	r3,0(r2)
    SD_DAT_WRITE(0x00);  
   23c64:	0007883a 	mov	r3,zero
   23c68:	00800134 	movhi	r2,4
   23c6c:	10843c04 	addi	r2,r2,4336
   23c70:	10c00035 	stwio	r3,0(r2)
    SD_CLK_HIGH;
   23c74:	00c00044 	movi	r3,1
   23c78:	00800134 	movhi	r2,4
   23c7c:	10844404 	addi	r2,r2,4368
   23c80:	10c00035 	stwio	r3,0(r2)
    
    // write data (512byte = 1 block)
    for(i=0;i<nDataLen;i++)
   23c84:	e03ff915 	stw	zero,-28(fp)
   23c88:	00002206 	br	23d14 <SDHAL_WriteData+0x100>
    {
      Data8 = szDataWrite[i];
   23c8c:	e0bff917 	ldw	r2,-28(fp)
   23c90:	e0fffe17 	ldw	r3,-8(fp)
   23c94:	1885883a 	add	r2,r3,r2
   23c98:	10800003 	ldbu	r2,0(r2)
   23c9c:	e0bffb05 	stb	r2,-20(fp)
#ifdef SD_4BIT_MODE
      for(j=0;j<2;j++)
   23ca0:	e03ffa15 	stw	zero,-24(fp)
   23ca4:	00001506 	br	23cfc <SDHAL_WriteData+0xe8>
      {
        SD_CLK_LOW;
   23ca8:	0007883a 	mov	r3,zero
   23cac:	00800134 	movhi	r2,4
   23cb0:	10844404 	addi	r2,r2,4368
   23cb4:	10c00035 	stwio	r3,0(r2)
        //
        SD_DAT_WRITE((Data8 >> 4) & 0x0F);
   23cb8:	e0bffb03 	ldbu	r2,-20(fp)
   23cbc:	1004d13a 	srli	r2,r2,4
   23cc0:	10803fcc 	andi	r2,r2,255
   23cc4:	10c003cc 	andi	r3,r2,15
   23cc8:	00800134 	movhi	r2,4
   23ccc:	10843c04 	addi	r2,r2,4336
   23cd0:	10c00035 	stwio	r3,0(r2)
        //            
        SD_CLK_HIGH;
   23cd4:	00c00044 	movi	r3,1
   23cd8:	00800134 	movhi	r2,4
   23cdc:	10844404 	addi	r2,r2,4368
   23ce0:	10c00035 	stwio	r3,0(r2)
        Data8 <<= 4; 
   23ce4:	e0bffb03 	ldbu	r2,-20(fp)
   23ce8:	1004913a 	slli	r2,r2,4
   23cec:	e0bffb05 	stb	r2,-20(fp)
    // write data (512byte = 1 block)
    for(i=0;i<nDataLen;i++)
    {
      Data8 = szDataWrite[i];
#ifdef SD_4BIT_MODE
      for(j=0;j<2;j++)
   23cf0:	e0bffa17 	ldw	r2,-24(fp)
   23cf4:	10800044 	addi	r2,r2,1
   23cf8:	e0bffa15 	stw	r2,-24(fp)
   23cfc:	e0bffa17 	ldw	r2,-24(fp)
   23d00:	10800090 	cmplti	r2,r2,2
   23d04:	103fe81e 	bne	r2,zero,23ca8 <_gp+0xfffe86fc>
    SD_CLK_LOW;
    SD_DAT_WRITE(0x00);  
    SD_CLK_HIGH;
    
    // write data (512byte = 1 block)
    for(i=0;i<nDataLen;i++)
   23d08:	e0bff917 	ldw	r2,-28(fp)
   23d0c:	10800044 	addi	r2,r2,1
   23d10:	e0bff915 	stw	r2,-28(fp)
   23d14:	e0fff917 	ldw	r3,-28(fp)
   23d18:	e0bfff17 	ldw	r2,-4(fp)
   23d1c:	18bfdb16 	blt	r3,r2,23c8c <_gp+0xfffe86e0>

    
#endif    

    // stop bits (value 'one')
    SD_CLK_LOW;
   23d20:	0007883a 	mov	r3,zero
   23d24:	00800134 	movhi	r2,4
   23d28:	10844404 	addi	r2,r2,4368
   23d2c:	10c00035 	stwio	r3,0(r2)
#ifdef SD_4BIT_MODE
    SD_DAT_WRITE(0x0F);
   23d30:	00c003c4 	movi	r3,15
   23d34:	00800134 	movhi	r2,4
   23d38:	10843c04 	addi	r2,r2,4336
   23d3c:	10c00035 	stwio	r3,0(r2)
#else    
    SD_DAT_HIGH;
#endif     
    SD_CLK_HIGH;
   23d40:	00c00044 	movi	r3,1
   23d44:	00800134 	movhi	r2,4
   23d48:	10844404 	addi	r2,r2,4368
   23d4c:	10c00035 	stwio	r3,0(r2)
    
    //===== check busy bits (data0 only)
    SD_DAT_IN;
   23d50:	0007883a 	mov	r3,zero
   23d54:	00800134 	movhi	r2,4
   23d58:	10843d04 	addi	r2,r2,4340
   23d5c:	10c00035 	stwio	r3,0(r2)
bool bWriteSuccess = FALSE;    
   23d60:	e03ffc15 	stw	zero,-16(fp)
for(i=0;i<32 && !bWriteSuccess;i++){        
   23d64:	e03ff915 	stw	zero,-28(fp)
   23d68:	00001206 	br	23db4 <SDHAL_WriteData+0x1a0>
    SD_CLK_LOW;
   23d6c:	0007883a 	mov	r3,zero
   23d70:	00800134 	movhi	r2,4
   23d74:	10844404 	addi	r2,r2,4368
   23d78:	10c00035 	stwio	r3,0(r2)
    SD_CLK_HIGH;
   23d7c:	00c00044 	movi	r3,1
   23d80:	00800134 	movhi	r2,4
   23d84:	10844404 	addi	r2,r2,4368
   23d88:	10c00035 	stwio	r3,0(r2)
    if ((SD_TEST_DAT & 0x01) == 0x01) // (DAT0==LOW: busy indicate
   23d8c:	00800134 	movhi	r2,4
   23d90:	10843c04 	addi	r2,r2,4336
   23d94:	10800037 	ldwio	r2,0(r2)
   23d98:	1080004c 	andi	r2,r2,1
   23d9c:	10000226 	beq	r2,zero,23da8 <SDHAL_WriteData+0x194>
        bWriteSuccess = TRUE;
   23da0:	00800044 	movi	r2,1
   23da4:	e0bffc15 	stw	r2,-16(fp)
    SD_CLK_HIGH;
    
    //===== check busy bits (data0 only)
    SD_DAT_IN;
bool bWriteSuccess = FALSE;    
for(i=0;i<32 && !bWriteSuccess;i++){        
   23da8:	e0bff917 	ldw	r2,-28(fp)
   23dac:	10800044 	addi	r2,r2,1
   23db0:	e0bff915 	stw	r2,-28(fp)
   23db4:	e0bff917 	ldw	r2,-28(fp)
   23db8:	10800808 	cmpgei	r2,r2,32
   23dbc:	1000021e 	bne	r2,zero,23dc8 <SDHAL_WriteData+0x1b4>
   23dc0:	e0bffc17 	ldw	r2,-16(fp)
   23dc4:	103fe926 	beq	r2,zero,23d6c <_gp+0xfffe87c0>
    SD_CLK_LOW;
    SD_CLK_HIGH;
    if ((SD_TEST_DAT & 0x01) == 0x01) // (DAT0==LOW: busy indicate
        bWriteSuccess = TRUE;
}
    if (!bWriteSuccess)
   23dc8:	e0bffc17 	ldw	r2,-16(fp)
   23dcc:	1000011e 	bne	r2,zero,23dd4 <SDHAL_WriteData+0x1c0>
        bSuccess = FALSE;
   23dd0:	e03ff815 	stw	zero,-32(fp)
                
    // to provide8 (eight) clock cycles for the card to complete the operation before shutting down the clock 
    SDHAL_DummyClock(8);     
   23dd4:	01000204 	movi	r4,8
   23dd8:	0023df40 	call	23df4 <SDHAL_DummyClock>
    for(i=0; i<16; i++){
        SD_CLK_LOW;
        SD_CLK_HIGH;
    }*/
    
    return bSuccess;
   23ddc:	e0bff817 	ldw	r2,-32(fp)
    
}
   23de0:	e037883a 	mov	sp,fp
   23de4:	dfc00117 	ldw	ra,4(sp)
   23de8:	df000017 	ldw	fp,0(sp)
   23dec:	dec00204 	addi	sp,sp,8
   23df0:	f800283a 	ret

00023df4 <SDHAL_DummyClock>:


void SDHAL_DummyClock(int nClockCnt){
   23df4:	defffd04 	addi	sp,sp,-12
   23df8:	df000215 	stw	fp,8(sp)
   23dfc:	df000204 	addi	fp,sp,8
   23e00:	e13fff15 	stw	r4,-4(fp)
    int i;
    for(i=0;i<nClockCnt;i++){
   23e04:	e03ffe15 	stw	zero,-8(fp)
   23e08:	00000b06 	br	23e38 <SDHAL_DummyClock+0x44>
        SD_CLK_LOW;
   23e0c:	0007883a 	mov	r3,zero
   23e10:	00800134 	movhi	r2,4
   23e14:	10844404 	addi	r2,r2,4368
   23e18:	10c00035 	stwio	r3,0(r2)
        SD_CLK_HIGH;
   23e1c:	00c00044 	movi	r3,1
   23e20:	00800134 	movhi	r2,4
   23e24:	10844404 	addi	r2,r2,4368
   23e28:	10c00035 	stwio	r3,0(r2)
}


void SDHAL_DummyClock(int nClockCnt){
    int i;
    for(i=0;i<nClockCnt;i++){
   23e2c:	e0bffe17 	ldw	r2,-8(fp)
   23e30:	10800044 	addi	r2,r2,1
   23e34:	e0bffe15 	stw	r2,-8(fp)
   23e38:	e0fffe17 	ldw	r3,-8(fp)
   23e3c:	e0bfff17 	ldw	r2,-4(fp)
   23e40:	18bff216 	blt	r3,r2,23e0c <_gp+0xfffe8860>
        SD_CLK_LOW;
        SD_CLK_HIGH;
    }
}
   23e44:	0001883a 	nop
   23e48:	e037883a 	mov	sp,fp
   23e4c:	df000017 	ldw	fp,0(sp)
   23e50:	dec00104 	addi	sp,sp,4
   23e54:	f800283a 	ret

00023e58 <SDLIB_Init>:
static SD_INFO gSdInfo;


//-------------------------------------------------------------------------
bool SDLIB_Init(void)
{
   23e58:	defff604 	addi	sp,sp,-40
   23e5c:	dfc00915 	stw	ra,36(sp)
   23e60:	df000815 	stw	fp,32(sp)
   23e64:	df000804 	addi	fp,sp,32
    bool bSuccess = FALSE, bTimeout = FALSE;
   23e68:	e03ff815 	stw	zero,-32(fp)
   23e6c:	e03ff915 	stw	zero,-28(fp)
   23e70:	d0a0dd17 	ldw	r2,-31884(gp)
    alt_u8  szThisCID[16];
    const int nTimeout = alt_ticks_per_second();
   23e74:	e0bffa15 	stw	r2,-24(fp)
    alt_u32 TimeStart;

    
   // alt_u8 x,y;
    memset(&gSdInfo, 0, sizeof(gSdInfo));
   23e78:	01800e04 	movi	r6,56
   23e7c:	000b883a 	mov	r5,zero
   23e80:	010000f4 	movhi	r4,3
   23e84:	210e4c04 	addi	r4,r4,14640
   23e88:	002ed740 	call	2ed74 <memset>
    gSdInfo.bSupport4Bits = SD_IsSupport4Bits();
   23e8c:	00242a00 	call	242a0 <SD_IsSupport4Bits>
   23e90:	1007883a 	mov	r3,r2
   23e94:	008000f4 	movhi	r2,3
   23e98:	108e4c04 	addi	r2,r2,14640
   23e9c:	10c00015 	stw	r3,0(r2)

    SDCARD_DEBUG(("--- Power On, Card Identification Mode, Idle State\r\n"));
    SDCARD_DEBUG(("sd %d-bit mode\r\n", gSdInfo.bSupport4Bits?4:1));
  
    usleep(74*10);
   23ea0:	0100b904 	movi	r4,740
   23ea4:	00308fc0 	call	308fc <usleep>
    
    SD_Init();
   23ea8:	00242740 	call	24274 <SD_Init>

    
    //========================== CMD0 (None Response) ========
    // Reset all cards to idle state
    SD_CMD0();
   23eac:	00242c80 	call	242c8 <SD_CMD0>
    usleep(100*1000);
   23eb0:	010000b4 	movhi	r4,2
   23eb4:	2121a804 	addi	r4,r4,-31072
   23eb8:	00308fc0 	call	308fc <usleep>
    
    //========================== CMD8 (Response R7) ==========
    //Sends SD Memory Card interface condition (Added in SDHC 2.0)
    if (SD_CMD8(SD_VHS_2V7_3V6, CMD8_DEFAULT_TEST_PATTERN)){
   23ebc:	01402a84 	movi	r5,170
   23ec0:	01000044 	movi	r4,1
   23ec4:	00243540 	call	24354 <SD_CMD8>
   23ec8:	10000e26 	beq	r2,zero,23f04 <SDLIB_Init+0xac>
        // OCR: Operation Condistions Register
        //gSdInfo.HostOCR32 = 0x01 << 30; //argument=0x40FF8000; // support HC
        gSdInfo.HostOCR32 = 0x40FF8000;
   23ecc:	008000f4 	movhi	r2,3
   23ed0:	108e4c04 	addi	r2,r2,14640
   23ed4:	00d04034 	movhi	r3,16640
   23ed8:	18e00004 	addi	r3,r3,-32768
   23edc:	10c00315 	stw	r3,12(r2)
        gSdInfo.bVer2 = TRUE;
   23ee0:	008000f4 	movhi	r2,3
   23ee4:	108e4c04 	addi	r2,r2,14640
   23ee8:	00c00044 	movi	r3,1
   23eec:	10c00115 	stw	r3,4(r2)
        gSdInfo.bSDHC = TRUE;
   23ef0:	008000f4 	movhi	r2,3
   23ef4:	108e4c04 	addi	r2,r2,14640
   23ef8:	00c00044 	movi	r3,1
   23efc:	10c00215 	stw	r3,8(r2)
   23f00:	00000806 	br	23f24 <SDLIB_Init+0xcc>
        SDCARD_DEBUG((" 2.0 \r\n"));
    }else{
        gSdInfo.HostOCR32 = 0x00040000;   
   23f04:	008000f4 	movhi	r2,3
   23f08:	108e4c04 	addi	r2,r2,14640
   23f0c:	00c00134 	movhi	r3,4
   23f10:	10c00315 	stw	r3,12(r2)
        SDCARD_TRACE(("CMD8 not supported\r\n"));
        
        // Reset cards to idle state
        SD_CMD0();
   23f14:	00242c80 	call	242c8 <SD_CMD0>
        usleep(100*1000);        
   23f18:	010000b4 	movhi	r4,2
   23f1c:	2121a804 	addi	r4,r4,-31072
   23f20:	00308fc0 	call	308fc <usleep>
 * alt_nticks() returns the elapsed number of system clock ticks since reset.
 */

static ALT_INLINE alt_u32 ALT_ALWAYS_INLINE alt_nticks (void)
{
  return _alt_nticks;
   23f24:	d0a0de17 	ldw	r2,-31880(gp)
    }
    //========================== ACMD41 (CMD55) ==============
    TimeStart = alt_nticks();
   23f28:	e0bffb15 	stw	r2,-20(fp)
    while(!bSuccess && !bTimeout){
   23f2c:	00002c06 	br	23fe0 <SDLIB_Init+0x188>
        if (!SD_CMD55(gSdInfo.RCA16, SD_STATE_IDLE)){  // execute cmd55 before execute and ACMD
   23f30:	008000f4 	movhi	r2,3
   23f34:	108e4c04 	addi	r2,r2,14640
   23f38:	1080050b 	ldhu	r2,20(r2)
   23f3c:	10bfffcc 	andi	r2,r2,65535
   23f40:	000b883a 	mov	r5,zero
   23f44:	1009883a 	mov	r4,r2
   23f48:	00244e00 	call	244e0 <SD_CMD55>
   23f4c:	1000021e 	bne	r2,zero,23f58 <SDLIB_Init+0x100>
            SDCARD_ERROR(("CMD55 NG\r\n"));
            return FALSE;
   23f50:	0005883a 	mov	r2,zero
   23f54:	00008206 	br	24160 <SDLIB_Init+0x308>
        }else{    
            bSuccess = SD_ACMD41(gSdInfo.HostOCR32, &gSdInfo.OCR32);
   23f58:	008000f4 	movhi	r2,3
   23f5c:	108e4c04 	addi	r2,r2,14640
   23f60:	10800317 	ldw	r2,12(r2)
   23f64:	014000f4 	movhi	r5,3
   23f68:	294e5004 	addi	r5,r5,14656
   23f6c:	1009883a 	mov	r4,r2
   23f70:	00246600 	call	24660 <SD_ACMD41>
   23f74:	e0bff815 	stw	r2,-32(fp)
            if (bSuccess && gSdInfo.bSDHC && ((gSdInfo.OCR32 & 0x40000000) == 0x00)){
   23f78:	e0bff817 	ldw	r2,-32(fp)
   23f7c:	10000c26 	beq	r2,zero,23fb0 <SDLIB_Init+0x158>
   23f80:	008000f4 	movhi	r2,3
   23f84:	108e4c04 	addi	r2,r2,14640
   23f88:	10800217 	ldw	r2,8(r2)
   23f8c:	10000826 	beq	r2,zero,23fb0 <SDLIB_Init+0x158>
   23f90:	008000f4 	movhi	r2,3
   23f94:	108e4c04 	addi	r2,r2,14640
   23f98:	10800417 	ldw	r2,16(r2)
   23f9c:	1090002c 	andhi	r2,r2,16384
   23fa0:	1000031e 	bne	r2,zero,23fb0 <SDLIB_Init+0x158>
                gSdInfo.bSDHC = FALSE;
   23fa4:	008000f4 	movhi	r2,3
   23fa8:	108e4c04 	addi	r2,r2,14640
   23fac:	10000215 	stw	zero,8(r2)
            }    
            // check timeout
            if (!bSuccess){
   23fb0:	e0bff817 	ldw	r2,-32(fp)
   23fb4:	10000a1e 	bne	r2,zero,23fe0 <SDLIB_Init+0x188>
   23fb8:	d0e0de17 	ldw	r3,-31880(gp)
                if ((alt_nticks() - TimeStart) > nTimeout){
   23fbc:	e0bffb17 	ldw	r2,-20(fp)
   23fc0:	1885c83a 	sub	r2,r3,r2
   23fc4:	e0fffa17 	ldw	r3,-24(fp)
   23fc8:	1880032e 	bgeu	r3,r2,23fd8 <SDLIB_Init+0x180>
                    SDCARD_ERROR(("ACMD41[SD_APP_OP_COND] fail\r\n"));
                    bTimeout = TRUE;
   23fcc:	00800044 	movi	r2,1
   23fd0:	e0bff915 	stw	r2,-28(fp)
   23fd4:	00000206 	br	23fe0 <SDLIB_Init+0x188>
                }else{
                    usleep(10*1000);
   23fd8:	0109c404 	movi	r4,10000
   23fdc:	00308fc0 	call	308fc <usleep>
        SD_CMD0();
        usleep(100*1000);        
    }
    //========================== ACMD41 (CMD55) ==============
    TimeStart = alt_nticks();
    while(!bSuccess && !bTimeout){
   23fe0:	e0bff817 	ldw	r2,-32(fp)
   23fe4:	1000021e 	bne	r2,zero,23ff0 <SDLIB_Init+0x198>
   23fe8:	e0bff917 	ldw	r2,-28(fp)
   23fec:	103fd026 	beq	r2,zero,23f30 <_gp+0xfffe8984>
                    usleep(10*1000);
                }    
            }
        }
    }
    if (!bSuccess){
   23ff0:	e0bff817 	ldw	r2,-32(fp)
   23ff4:	1000021e 	bne	r2,zero,24000 <SDLIB_Init+0x1a8>
        return FALSE;
   23ff8:	0005883a 	mov	r2,zero
   23ffc:	00005806 	br	24160 <SDLIB_Init+0x308>
    }
   
    //========================== CMD2 ========================    
    // issue cmd2 & wait response 
    // ALL_SEND_CID (CMD2): Asks any card to send the CID numbers on the CMD line
    if (!SD_CMD2(gSdInfo.szCID, sizeof(gSdInfo.szCID))){
   24000:	01400444 	movi	r5,17
   24004:	010000f4 	movhi	r4,3
   24008:	210e5184 	addi	r4,r4,14662
   2400c:	00247fc0 	call	247fc <SD_CMD2>
   24010:	1000021e 	bne	r2,zero,2401c <SDLIB_Init+0x1c4>
        SDCARD_ERROR(("CMD2 fail\r\n"));
        return FALSE;
   24014:	0005883a 	mov	r2,zero
   24018:	00005106 	br	24160 <SDLIB_Init+0x308>
    SDCARD_TRACE(("--- Power On, Card Identification Mode, Identification State\r\n"));

    //========================== CMD3 ========================        
    // issue cmd3 & wait response, finally get RCA
    // CMD3 (SEND_RELATIVE_ADDR): Ask the card to publish a new relative address (RCA)
    if (!SD_CMD3(&gSdInfo.RCA16)){
   2401c:	010000f4 	movhi	r4,3
   24020:	210e5104 	addi	r4,r4,14660
   24024:	00249940 	call	24994 <SD_CMD3>
   24028:	1000021e 	bne	r2,zero,24034 <SDLIB_Init+0x1dc>
        SDCARD_ERROR(("CMD3 fail\r\n"));
        return FALSE;
   2402c:	0005883a 	mov	r2,zero
   24030:	00004b06 	br	24160 <SDLIB_Init+0x308>
    //### Standby-by state in Data-transfer mode
    
    //========================== CMD9 ========================
    SDCARD_DEBUG(("--- enter data-transfer mode, Standby state\r\n"));
    // issue cmd9 with given RCA & wait response 
    if (!SD_CMD9(gSdInfo.RCA16, gSdInfo.szCSD, sizeof(gSdInfo.szCSD))){
   24034:	008000f4 	movhi	r2,3
   24038:	108e4c04 	addi	r2,r2,14640
   2403c:	1080050b 	ldhu	r2,20(r2)
   24040:	10bfffcc 	andi	r2,r2,65535
   24044:	01800444 	movi	r6,17
   24048:	014000f4 	movhi	r5,3
   2404c:	294e55c4 	addi	r5,r5,14679
   24050:	1009883a 	mov	r4,r2
   24054:	0024b300 	call	24b30 <SD_CMD9>
   24058:	1000021e 	bne	r2,zero,24064 <SDLIB_Init+0x20c>
        SDCARD_DEBUG(("CMD9 fail\r\n"));
        return FALSE;
   2405c:	0005883a 	mov	r2,zero
   24060:	00003f06 	br	24160 <SDLIB_Init+0x308>
    }
    
    //========================== CMD10 ========================
    // richard add  (query card identification)  
    if (!SD_CMD10(gSdInfo.RCA16, szThisCID, sizeof(szThisCID))){
   24064:	008000f4 	movhi	r2,3
   24068:	108e4c04 	addi	r2,r2,14640
   2406c:	1080050b 	ldhu	r2,20(r2)
   24070:	10bfffcc 	andi	r2,r2,65535
   24074:	e0fffc04 	addi	r3,fp,-16
   24078:	01800404 	movi	r6,16
   2407c:	180b883a 	mov	r5,r3
   24080:	1009883a 	mov	r4,r2
   24084:	0024cf00 	call	24cf0 <SD_CMD10>
   24088:	1000021e 	bne	r2,zero,24094 <SDLIB_Init+0x23c>
        SDCARD_DEBUG(("CMD10 fail\r\n"));
        return FALSE;
   2408c:	0005883a 	mov	r2,zero
   24090:	00003306 	br	24160 <SDLIB_Init+0x308>
    // issue cmd9 with given RCA & wait response
    
    //========================== CMD7 ========================
    // richard: issue cmd7 to enter transfer state
    // cmd7: toggle between Standy-by and Trasfer State
    if (!SD_CMD7(gSdInfo.RCA16)){
   24094:	008000f4 	movhi	r2,3
   24098:	108e4c04 	addi	r2,r2,14640
   2409c:	1080050b 	ldhu	r2,20(r2)
   240a0:	10bfffcc 	andi	r2,r2,65535
   240a4:	1009883a 	mov	r4,r2
   240a8:	0024eb00 	call	24eb0 <SD_CMD7>
   240ac:	1000021e 	bne	r2,zero,240b8 <SDLIB_Init+0x260>
        SDCARD_DEBUG(("CMD7 fail\r\n"));
        return FALSE;
   240b0:	0005883a 	mov	r2,zero
   240b4:	00002a06 	br	24160 <SDLIB_Init+0x308>
    //### Transfer state in Data-transfer mode     
    SDCARD_DEBUG(("--- enter data-transfer mode, Transfer state\r\n"));
       
    //========================== CMD16 ========================   
    // issue cmd16 (select a block length) & wait response
    if (!SD_CMD16(512)){  // 512 bytes
   240b8:	01008004 	movi	r4,512
   240bc:	00250300 	call	25030 <SD_CMD16>
   240c0:	1000021e 	bne	r2,zero,240cc <SDLIB_Init+0x274>
        SDCARD_DEBUG(("CMD16 fail\r\n"));
        return FALSE;
   240c4:	0005883a 	mov	r2,zero
   240c8:	00002506 	br	24160 <SDLIB_Init+0x308>
    }       
    
    if (gSdInfo.bSupport4Bits){ 
   240cc:	008000f4 	movhi	r2,3
   240d0:	108e4c04 	addi	r2,r2,14640
   240d4:	10800017 	ldw	r2,0(r2)
   240d8:	10002026 	beq	r2,zero,2415c <SDLIB_Init+0x304>
        // richard add: set bus width
        // Note. This command is valid only in "transfer state", i.e. after CMD7 is issued

        if (!SD_CMD55(gSdInfo.RCA16, SD_STATE_TRAN)){  // execute cmd55 before execute and ACMD, RCA = 0
   240dc:	008000f4 	movhi	r2,3
   240e0:	108e4c04 	addi	r2,r2,14640
   240e4:	1080050b 	ldhu	r2,20(r2)
   240e8:	10bfffcc 	andi	r2,r2,65535
   240ec:	01400104 	movi	r5,4
   240f0:	1009883a 	mov	r4,r2
   240f4:	00244e00 	call	244e0 <SD_CMD55>
   240f8:	1000021e 	bne	r2,zero,24104 <SDLIB_Init+0x2ac>
            SDCARD_DEBUG(("CMD55 NG\r\n"));
            return FALSE;
   240fc:	0005883a 	mov	r2,zero
   24100:	00001706 	br	24160 <SDLIB_Init+0x308>
        }       
    
        SDCARD_DEBUG(("ACMD6[SET_BUS_WIDTH], 4-bit\r\n"));
        if (!SD_ACMD6(TRUE, SD_STATE_TRAN)){  // 4-bit mode
   24104:	01400104 	movi	r5,4
   24108:	01000044 	movi	r4,1
   2410c:	00251d00 	call	251d0 <SD_ACMD6>
   24110:	1000021e 	bne	r2,zero,2411c <SDLIB_Init+0x2c4>
            SDCARD_DEBUG(("ACMD6 NG\r\n"));
            return FALSE;
   24114:	0005883a 	mov	r2,zero
   24118:	00001106 	br	24160 <SDLIB_Init+0x308>
        }         
    
    
        //
        if (!SD_CMD55(gSdInfo.RCA16, SD_STATE_TRAN)){  // execute cmd55 before execute and ACMD, RCA = 0
