
memory_manip_attempt.elf:     file format elf32-littlenios2
memory_manip_attempt.elf
architecture: nios2:r1, flags 0x00000112:
EXEC_P, HAS_SYMS, D_PAGED
start address 0x00c00230

Program Header:
    LOAD off    0x00001000 vaddr 0x00c00000 paddr 0x00c00000 align 2**12
         filesz 0x00000020 memsz 0x00000020 flags r-x
    LOAD off    0x00001020 vaddr 0x01040020 paddr 0x00c00020 align 2**12
         filesz 0x00000210 memsz 0x00000210 flags r-x
    LOAD off    0x00001230 vaddr 0x00c00230 paddr 0x00c00230 align 2**12
         filesz 0x00023390 memsz 0x00023390 flags r-x
    LOAD off    0x00025230 vaddr 0x01040230 paddr 0x00c235c0 align 2**12
         filesz 0x00011944 memsz 0x00012370 flags rw-

Sections:
Idx Name          Size      VMA       LMA       File off  Algn
  0 .entry        00000020  00c00000  00c00000  00001000  2**5
                  CONTENTS, ALLOC, LOAD, READONLY, CODE
  1 .exceptions   00000210  01040020  00c00020  00001020  2**2
                  CONTENTS, ALLOC, LOAD, READONLY, CODE
  2 .text         00023390  00c00230  00c00230  00001230  2**2
                  CONTENTS, ALLOC, LOAD, READONLY, CODE
  3 .rodata       0000fc38  01040230  00c235c0  00025230  2**2
                  CONTENTS, ALLOC, LOAD, READONLY, DATA
  4 .rwdata       00001d0c  0104fe68  00c331f8  00034e68  2**2
                  CONTENTS, ALLOC, LOAD, DATA, SMALL_DATA
  5 .bss          00000a2c  01051b74  00c34f04  00036b74  2**2
                  ALLOC, SMALL_DATA
  6 .epcq_controller_0_avl_mem 00000000  00c34f04  00c34f04  00036b74  2**0
                  CONTENTS
  7 .onchip_memory 00000000  010525a0  010525a0  00036b74  2**0
                  CONTENTS
  8 .comment      00000023  00000000  00000000  00036b74  2**0
                  CONTENTS, READONLY
  9 .debug_aranges 000013e0  00000000  00000000  00036b98  2**3
                  CONTENTS, READONLY, DEBUGGING
 10 .debug_info   000319dd  00000000  00000000  00037f78  2**0
                  CONTENTS, READONLY, DEBUGGING
 11 .debug_abbrev 0000c510  00000000  00000000  00069955  2**0
                  CONTENTS, READONLY, DEBUGGING
 12 .debug_line   00012569  00000000  00000000  00075e65  2**0
                  CONTENTS, READONLY, DEBUGGING
 13 .debug_frame  000042d8  00000000  00000000  000883d0  2**2
                  CONTENTS, READONLY, DEBUGGING
 14 .debug_str    000058cb  00000000  00000000  0008c6a8  2**0
                  CONTENTS, READONLY, DEBUGGING
 15 .debug_loc    0001e027  00000000  00000000  00091f73  2**0
                  CONTENTS, READONLY, DEBUGGING
 16 .debug_alt_sim_info 00000040  00000000  00000000  000aff9c  2**2
                  CONTENTS, READONLY, DEBUGGING
 17 .debug_ranges 00001bf0  00000000  00000000  000affe0  2**3
                  CONTENTS, READONLY, DEBUGGING
 18 .thread_model 00000003  00000000  00000000  000b6b85  2**0
                  CONTENTS, READONLY
 19 .cpu          00000003  00000000  00000000  000b6b88  2**0
                  CONTENTS, READONLY
 20 .qsys         00000001  00000000  00000000  000b6b8b  2**0
                  CONTENTS, READONLY
 21 .simulation_enabled 00000001  00000000  00000000  000b6b8c  2**0
                  CONTENTS, READONLY
 22 .stderr_dev   00000009  00000000  00000000  000b6b8d  2**0
                  CONTENTS, READONLY
 23 .stdin_dev    00000009  00000000  00000000  000b6b96  2**0
                  CONTENTS, READONLY
 24 .stdout_dev   00000009  00000000  00000000  000b6b9f  2**0
                  CONTENTS, READONLY
 25 .sopc_system_name 0000000e  00000000  00000000  000b6ba8  2**0
                  CONTENTS, READONLY
 26 .jdi          00008982  00000000  00000000  000b6bb6  2**0
                  CONTENTS, READONLY
 27 .sopcinfo     000b89e7  00000000  00000000  000bf538  2**0
                  CONTENTS, READONLY
SYMBOL TABLE:
00c00000 l    d  .entry	00000000 .entry
01040020 l    d  .exceptions	00000000 .exceptions
00c00230 l    d  .text	00000000 .text
01040230 l    d  .rodata	00000000 .rodata
0104fe68 l    d  .rwdata	00000000 .rwdata
01051b74 l    d  .bss	00000000 .bss
00c34f04 l    d  .epcq_controller_0_avl_mem	00000000 .epcq_controller_0_avl_mem
010525a0 l    d  .onchip_memory	00000000 .onchip_memory
00000000 l    d  .comment	00000000 .comment
00000000 l    d  .debug_aranges	00000000 .debug_aranges
00000000 l    d  .debug_info	00000000 .debug_info
00000000 l    d  .debug_abbrev	00000000 .debug_abbrev
00000000 l    d  .debug_line	00000000 .debug_line
00000000 l    d  .debug_frame	00000000 .debug_frame
00000000 l    d  .debug_str	00000000 .debug_str
00000000 l    d  .debug_loc	00000000 .debug_loc
00000000 l    d  .debug_alt_sim_info	00000000 .debug_alt_sim_info
00000000 l    d  .debug_ranges	00000000 .debug_ranges
00000000 l    df *ABS*	00000000 ../memory_manipulator_bsp//obj/HAL/src/crt0.o
00c00268 l       .text	00000000 alt_after_alt_main
00000000 l    df *ABS*	00000000 alt_irq_handler.c
00000000 l    df *ABS*	00000000 alt_instruction_exception_entry.c
00000000 l    df *ABS*	00000000 diskio.c
00000000 l    df *ABS*	00000000 ff.c
01051b74 l     O .bss	00000004 FatFs
01051b78 l     O .bss	00000002 Fsid
01040230 l     O .rodata	0000000d LfnOfs
01051be4 l     O .bss	00000200 LfnBuf
0104023d l     O .rodata	0000000a DbcTbl
00c003e4 l     F .text	00000058 ld_word
00c0043c l     F .text	00000094 ld_dword
00c004d0 l     F .text	00000060 st_word
00c00530 l     F .text	0000009c st_dword
00c005cc l     F .text	00000078 dbc_1st
00c00644 l     F .text	000000a0 dbc_2nd
00c006e4 l     F .text	000000e8 tchar2uni
00c007cc l     F .text	000000c4 put_utf
00c00890 l     F .text	000000f0 sync_window
00c00980 l     F .text	000000a0 move_window
00c00a20 l     F .text	00000180 sync_fs
00c00ba0 l     F .text	00000080 clst2sect
00c00c20 l     F .text	0000024c get_fat
00c00e6c l     F .text	00000308 put_fat
00c01174 l     F .text	0000015c remove_chain
00c012d0 l     F .text	000002c8 create_chain
00c01598 l     F .text	000000f8 dir_clear
00c01690 l     F .text	000001c8 dir_sdi
00c01858 l     F .text	0000020c dir_next
00c01a64 l     F .text	000000f8 dir_alloc
00c01b5c l     F .text	00000080 ld_clust
00c01bdc l     F .text	00000080 st_clust
00c01c5c l     F .text	00000190 cmp_lfn
00c01dec l     F .text	00000174 pick_lfn
00c01f60 l     F .text	0000016c put_lfn
00c020cc l     F .text	0000023c gen_numname
00c02308 l     F .text	00000074 sum_sfn
00c0237c l     F .text	00000230 dir_read
00c025ac l     F .text	0000027c dir_find
00c02828 l     F .text	00000360 dir_register
00c02b88 l     F .text	00000420 get_fileinfo
00c02fa8 l     F .text	000000d4 get_achar
00c0307c l     F .text	00000210 pattern_match
00c0328c l     F .text	00000614 create_name
00c038a0 l     F .text	00000194 follow_path
00c03a34 l     F .text	00000120 get_ldnumber
00c03b54 l     F .text	00000210 check_fs
00c03d64 l     F .text	00000164 find_volume
00c03ec8 l     F .text	000006c0 mount_volume
00c04588 l     F .text	000000c8 validate
00000000 l    df *ABS*	00000000 ffsystem.c
00000000 l    df *ABS*	00000000 ffunicode.c
01040266 l     O .rodata	00007378 uni2oem932
010475de l     O .rodata	00007378 oem2uni932
0104e956 l     O .rodata	000001f2 cvt1.1877
0104eb48 l     O .rodata	000000bc cvt2.1878
00000000 l    df *ABS*	00000000 sdmmc.c
00000000 l    df *ABS*	00000000 sd_if.c
00000000 l    df *ABS*	00000000 test_sd.c
00000000 l    df *ABS*	00000000 file_format_aux.c
00000000 l    df *ABS*	00000000 formats.c
00000000 l    df *ABS*	00000000 main.c
00000000 l    df *ABS*	00000000 dma_hal.c
00000000 l    df *ABS*	00000000 per_hal.c
00000000 l    df *ABS*	00000000 LCD.c
00000000 l    df *ABS*	00000000 debug.c
00000000 l    df *ABS*	00000000 s_ceil.c
00000000 l    df *ABS*	00000000 w_log10.c
00000000 l    df *ABS*	00000000 e_log10.c
00000000 l    df *ABS*	00000000 s_fpclassify.c
00000000 l    df *ABS*	00000000 s_lib_ver.c
00000000 l    df *ABS*	00000000 s_matherr.c
00000000 l    df *ABS*	00000000 s_nan.c
00000000 l    df *ABS*	00000000 e_log.c
00000000 l    df *ABS*	00000000 lib2-divmod.c
00000000 l    df *ABS*	00000000 lib2-mul.c
00000000 l    df *ABS*	00000000 adddf3.c
00000000 l    df *ABS*	00000000 divdf3.c
00000000 l    df *ABS*	00000000 eqdf2.c
00000000 l    df *ABS*	00000000 gedf2.c
00000000 l    df *ABS*	00000000 ledf2.c
00000000 l    df *ABS*	00000000 muldf3.c
00000000 l    df *ABS*	00000000 subdf3.c
00000000 l    df *ABS*	00000000 fixdfsi.c
00000000 l    df *ABS*	00000000 floatsidf.c
00000000 l    df *ABS*	00000000 libgcc2.c
00000000 l    df *ABS*	00000000 libgcc2.c
00000000 l    df *ABS*	00000000 clock.c
00000000 l    df *ABS*	00000000 errno.c
00000000 l    df *ABS*	00000000 impure.c
0104fe68 l     O .rwdata	00000424 impure_data
00000000 l    df *ABS*	00000000 memcmp.c
00000000 l    df *ABS*	00000000 memcpy.c
00000000 l    df *ABS*	00000000 memset.c
00000000 l    df *ABS*	00000000 printf.c
00000000 l    df *ABS*	00000000 puts.c
00000000 l    df *ABS*	00000000 snprintf.c
00000000 l    df *ABS*	00000000 sprintf.c
00000000 l    df *ABS*	00000000 strchr.c
00000000 l    df *ABS*	00000000 strlen.c
00000000 l    df *ABS*	00000000 strncat.c
00000000 l    df *ABS*	00000000 strncmp.c
00000000 l    df *ABS*	00000000 strncpy.c
00000000 l    df *ABS*	00000000 vfprintf.c
0104f9cf l     O .rodata	00000010 zeroes.4389
0104f9df l     O .rodata	00000010 blanks.4388
00000000 l    df *ABS*	00000000 timesr.c
00000000 l    df *ABS*	00000000 tolower.c
00000000 l    df *ABS*	00000000 vfprintf.c
0104f9ef l     O .rodata	00000010 zeroes.4404
00c15c84 l     F .text	000000bc __sbprintf
0104f9ff l     O .rodata	00000010 blanks.4403
00000000 l    df *ABS*	00000000 vsnprintf.c
00000000 l    df *ABS*	00000000 wsetup.c
00000000 l    df *ABS*	00000000 ctype_.c
0104fb10 l     O .rodata	00000180 _ctype_b
00000000 l    df *ABS*	00000000 dtoa.c
00c15fb8 l     F .text	00000228 quorem
00000000 l    df *ABS*	00000000 fflush.c
00000000 l    df *ABS*	00000000 findfp.c
00c17b10 l     F .text	00000008 __fp_unlock
00c17b24 l     F .text	0000019c __sinit.part.1
00c17cc0 l     F .text	00000008 __fp_lock
00000000 l    df *ABS*	00000000 mallocr.c
00000000 l    df *ABS*	00000000 fvwrite.c
00000000 l    df *ABS*	00000000 fwalk.c
00000000 l    df *ABS*	00000000 locale.c
010502ac l     O .rwdata	00000020 lc_ctype_charset
0105028c l     O .rwdata	00000020 lc_message_charset
010502cc l     O .rwdata	00000038 lconv
00000000 l    df *ABS*	00000000 makebuf.c
00000000 l    df *ABS*	00000000 mallocr.c
00000000 l    df *ABS*	00000000 memchr.c
00000000 l    df *ABS*	00000000 memmove.c
00000000 l    df *ABS*	00000000 mprec.c
0104fcac l     O .rodata	0000000c p05.2768
00000000 l    df *ABS*	00000000 mallocr.c
00000000 l    df *ABS*	00000000 sbrkr.c
00000000 l    df *ABS*	00000000 stdio.c
00000000 l    df *ABS*	00000000 strcmp.c
00000000 l    df *ABS*	00000000 vfprintf.c
0104fdd0 l     O .rodata	00000010 zeroes.4333
0104fde0 l     O .rodata	00000010 blanks.4332
00000000 l    df *ABS*	00000000 vfprintf.c
00c1c420 l     F .text	000000fc __sprint_r.part.0
0104fdf0 l     O .rodata	00000010 zeroes.4349
00c1da5c l     F .text	000000bc __sbprintf
0104fe00 l     O .rodata	00000010 blanks.4348
00000000 l    df *ABS*	00000000 writer.c
00000000 l    df *ABS*	00000000 closer.c
00000000 l    df *ABS*	00000000 mallocr.c
00000000 l    df *ABS*	00000000 fclose.c
00000000 l    df *ABS*	00000000 fputwc.c
00000000 l    df *ABS*	00000000 fstatr.c
00000000 l    df *ABS*	00000000 int_errno.c
00000000 l    df *ABS*	00000000 isattyr.c
00000000 l    df *ABS*	00000000 lseekr.c
00000000 l    df *ABS*	00000000 readr.c
00000000 l    df *ABS*	00000000 wbuf.c
00000000 l    df *ABS*	00000000 wcrtomb.c
00000000 l    df *ABS*	00000000 wctomb_r.c
00000000 l    df *ABS*	00000000 libgcc2.c
00000000 l    df *ABS*	00000000 libgcc2.c
00000000 l    df *ABS*	00000000 floatunsidf.c
00000000 l    df *ABS*	00000000 alt_close.c
00c1f0cc l     F .text	0000003c alt_get_errno
00000000 l    df *ABS*	00000000 alt_dev.c
00c1f1e0 l     F .text	0000002c alt_dev_null_write
00000000 l    df *ABS*	00000000 alt_errno.c
00000000 l    df *ABS*	00000000 alt_fstat.c
00c1f20c l     F .text	0000003c alt_get_errno
00000000 l    df *ABS*	00000000 alt_isatty.c
00c1f300 l     F .text	0000003c alt_get_errno
00000000 l    df *ABS*	00000000 alt_load.c
00c1f3e8 l     F .text	00000068 alt_load_section
00000000 l    df *ABS*	00000000 alt_lseek.c
00c1f4d4 l     F .text	0000003c alt_get_errno
00000000 l    df *ABS*	00000000 alt_main.c
00000000 l    df *ABS*	00000000 alt_malloc_lock.c
00000000 l    df *ABS*	00000000 alt_read.c
00c1f6b0 l     F .text	0000003c alt_get_errno
00000000 l    df *ABS*	00000000 alt_release_fd.c
00000000 l    df *ABS*	00000000 alt_sbrk.c
01051b58 l     O .rwdata	00000004 heap_end
00000000 l    df *ABS*	00000000 alt_times.c
00c1f924 l     F .text	0000003c alt_get_errno
00000000 l    df *ABS*	00000000 alt_usleep.c
00000000 l    df *ABS*	00000000 alt_write.c
00c1fa08 l     F .text	0000003c alt_get_errno
00000000 l    df *ABS*	00000000 alt_sys_init.c
00c1fb44 l     F .text	00000034 alt_dev_reg
010508b4 l     O .rwdata	00001060 jtag_uart
01051914 l     O .rwdata	00000120 lcd
01051a34 l     O .rwdata	000000dc epcq_controller_0
00000000 l    df *ABS*	00000000 altera_avalon_jtag_uart_fd.c
00000000 l    df *ABS*	00000000 altera_avalon_jtag_uart_init.c
00c1fe58 l     F .text	0000020c altera_avalon_jtag_uart_irq
00c20064 l     F .text	000000a0 altera_avalon_jtag_uart_timeout
00000000 l    df *ABS*	00000000 altera_avalon_jtag_uart_ioctl.c
00000000 l    df *ABS*	00000000 altera_avalon_jtag_uart_read.c
00000000 l    df *ABS*	00000000 altera_avalon_jtag_uart_write.c
00000000 l    df *ABS*	00000000 altera_avalon_lcd_16207.c
01051b5c l     O .rwdata	00000004 colstart
00c2069c l     F .text	000000b8 lcd_write_command
00c20754 l     F .text	000000d8 lcd_write_data
00c2082c l     F .text	000000e8 lcd_clear_screen
00c20914 l     F .text	00000228 lcd_repaint_screen
00c20b3c l     F .text	000000e8 lcd_scroll_up
00c20c24 l     F .text	000002c4 lcd_handle_escape
00c21408 l     F .text	000000ac alt_lcd_16207_timeout
00000000 l    df *ABS*	00000000 altera_avalon_lcd_16207_fd.c
00000000 l    df *ABS*	00000000 altera_avalon_timer_sc.c
00c21648 l     F .text	00000078 alt_avalon_timer_sc_irq
00000000 l    df *ABS*	00000000 altera_epcq_controller.c
00c2173c l     F .text	00000034 alt_flash_device_register
00c221bc l     F .text	00000088 alt_epcq_poll_for_write_in_progress
00c22120 l     F .text	0000009c alt_epcq_validate_read_write_arguments
00000000 l    df *ABS*	00000000 alt_alarm_start.c
00000000 l    df *ABS*	00000000 alt_busy_sleep.c
00000000 l    df *ABS*	00000000 alt_dcache_flush_all.c
00000000 l    df *ABS*	00000000 alt_dev_llist_insert.c
00c224e8 l     F .text	0000003c alt_get_errno
00000000 l    df *ABS*	00000000 alt_do_ctors.c
00000000 l    df *ABS*	00000000 alt_do_dtors.c
00000000 l    df *ABS*	00000000 alt_flash_dev.c
00000000 l    df *ABS*	00000000 alt_icache_flush_all.c
00000000 l    df *ABS*	00000000 alt_iic.c
00000000 l    df *ABS*	00000000 alt_iic_isr_register.c
00000000 l    df *ABS*	00000000 alt_io_redirect.c
00c22a04 l     F .text	000000e4 alt_open_fd
00000000 l    df *ABS*	00000000 alt_irq_vars.c
00000000 l    df *ABS*	00000000 alt_open.c
00c22b64 l     F .text	0000003c alt_get_errno
00c22ba0 l     F .text	000000ec alt_file_locked
00000000 l    df *ABS*	00000000 alt_tick.c
00000000 l    df *ABS*	00000000 altera_nios2_gen2_irq.c
00000000 l    df *ABS*	00000000 alt_find_dev.c
00000000 l    df *ABS*	00000000 alt_find_file.c
00000000 l    df *ABS*	00000000 alt_get_fd.c
00000000 l    df *ABS*	00000000 atexit.c
00000000 l    df *ABS*	00000000 exit.c
00000000 l    df *ABS*	00000000 __atexit.c
00000000 l    df *ABS*	00000000 __call_atexit.c
00000000 l    df *ABS*	00000000 alt_exit.c
01051be0 g     O .bss	00000004 alt_instruction_exception_handler
00c0d188 g     F .text	00000040 LCD_Line1
00c1a568 g     F .text	00000074 _mprec_log10
00c07b24 g     F .text	00000048 file_write
00c1a654 g     F .text	0000008c __any_on
00c1e010 g     F .text	00000054 _isatty_r
0104fcb8 g     O .rodata	00000028 __mprec_tinytens
00c0ba50 g     F .text	000004e0 load_page
00c1f5ec g     F .text	0000007c alt_main
00c10ed4 g     F .text	000000c0 _puts_r
010524a0 g     O .bss	00000100 alt_irq
00c1e064 g     F .text	00000060 _lseek_r
00c0cfb4 g     F .text	00000030 is_read
00c331f8 g       *ABS*	00000000 __flash_rwdata_start
00c0cf70 g     F .text	00000044 get_game_num
00c07b94 g     F .text	00000034 close_file
00c0f5a0 g     F .text	00000088 .hidden __eqdf2
010525a0 g       *ABS*	00000000 __alt_heap_start
00c07398 g     F .text	0000002c free_file_list
00c10e98 g     F .text	0000003c printf
00c1e27c g     F .text	0000009c _wcrtomb_r
00c1ad70 g     F .text	0000005c __sseek
00c17e70 g     F .text	00000010 __sinit
00c1e124 g     F .text	00000140 __swbuf_r
00c18944 g     F .text	0000007c _setlocale_r
00c17cc8 g     F .text	00000078 __sfmoreglue
00c1f68c g     F .text	00000024 __malloc_unlock
01052268 g     O .bss	00000214 curr_page_file_list
00c194cc g     F .text	0000015c memmove
00c17e58 g     F .text	00000018 _cleanup
00c09088 g     F .text	000000e8 load_file
00c11080 g     F .text	000000e4 snprintf
00c19628 g     F .text	000000a8 _Balloc
00c0c624 g     F .text	00000030 read_IFF1
00c0d208 g     F .text	00000098 LCD_Test
00c07060 g     F .text	00000050 init_SD
00c0f628 g     F .text	000000dc .hidden __gtdf2
00c22f8c g     F .text	00000024 altera_nios2_gen2_irq_init
00c10b6c g     F .text	00000010 __errno
00c00000 g     F .entry	0000000c __reset
00c1f960 g     F .text	00000078 times
00c0662c g     F .text	00000074 wait_ready
00c0d458 g     F .text	000001e0 ceil
01051b7a g     O .bss	00000001 CardType
00c00020 g       *ABS*	00000000 __flash_exceptions_start
00c1dfb4 g     F .text	0000005c _fstat_r
01051bc4 g     O .bss	00000004 errno
00c1acec g     F .text	00000008 __seofread
00c1b080 g     F .text	000013a0 ___svfiprintf_internal_r
01051bcc g     O .bss	00000004 alt_argv
01059b10 g       *ABS*	00000000 _gp
00c1f9d8 g     F .text	00000030 usleep
00c061a8 g     F .text	000001fc ff_wtoupper
01051e0c g     O .bss	00000234 fs
01050734 g     O .rwdata	00000180 alt_fd_list
00c0c684 g     F .text	0000002c read_IM
00c0a644 g     F .text	000002a0 load_compressed_data_block_z80
00c0c994 g     F .text	000000d0 read_io
00c22fb0 g     F .text	00000090 alt_find_dev
00c13954 g     F .text	00000008 _times_r
00c10bf8 g     F .text	00000148 memcpy
00c17b18 g     F .text	0000000c _cleanup_r
00c109e0 g     F .text	000000dc .hidden __floatsidf
00c22ae8 g     F .text	0000007c alt_io_redirect
00c0f704 g     F .text	000000f4 .hidden __ltdf2
00c235c0 g       *ABS*	00000000 __DTOR_END__
00c002cc g     F .text	00000038 disk_initialize
00c10f94 g     F .text	00000014 puts
00c2320c g     F .text	0000009c alt_exception_cause_generated_bad_addr
00c066a0 g     F .text	00000048 deselect
00c0a21c g     F .text	00000094 get_version_z80
0104f140 g     O .rodata	00000492 menu_code
00c0d9a4 g     F .text	00000074 __fpclassifyd
00c1395c g     F .text	00000030 tolower
00c1a4c4 g     F .text	000000a4 __ratio
00c1da40 g     F .text	0000001c __vfiprintf_internal
00c064b8 g     F .text	00000060 spi_write_buffer
00c2025c g     F .text	0000021c altera_avalon_jtag_uart_read
00c10e68 g     F .text	00000030 _printf_r
00c0e240 g     F .text	00000064 .hidden __udivsi3
00c1f33c g     F .text	000000ac isatty
00c07a64 g     F .text	0000003c init_file_write_create
00c063a4 g     F .text	00000050 spi_init
00c07980 g     F .text	000000a8 print_filenames
0104fd08 g     O .rodata	000000c8 __mprec_tens
00c0c188 g     F .text	000000fc init_SD_local
00c189c0 g     F .text	0000000c __locale_charset
00c15e30 g     F .text	00000034 vsnprintf
00c0ca64 g     F .text	000000e8 write_io
01051bc0 g     O .bss	00000004 __malloc_top_pad
00c07268 g     F .text	00000130 num_of_pages
00c0026c g     F .text	00000060 disk_status
01051b30 g     O .rwdata	00000004 __mb_cur_max
00c189f0 g     F .text	0000000c _localeconv_r
00c19a5c g     F .text	0000003c __i2b
00c182f4 g     F .text	000004c8 __sfvwrite_r
00c0c6b0 g     F .text	000000d0 read_mem
00c1ac44 g     F .text	00000054 _sbrk_r
00c0c900 g     F .text	00000094 write_buf_mem
00c066e8 g     F .text	0000005c select
00c05cf8 g     F .text	00000054 f_closedir
00c1e0c4 g     F .text	00000060 _read_r
00c0d7d4 g     F .text	000001d0 __ieee754_log10
00c0039c g     F .text	00000048 disk_ioctl
01051b50 g     O .rwdata	00000004 alt_max_fd
00c07dd4 g     F .text	0000005c conv_data_8_16
00c1dca8 g     F .text	000000f0 _fclose_r
00c17ae0 g     F .text	00000030 fflush
01051bbc g     O .bss	00000004 __malloc_max_sbrked_mem
00c0e324 g     F .text	000008ac .hidden __adddf3
00c0bf30 g     F .text	00000258 load_game
00c09170 g     F .text	000001c8 generate_regs_SNA
00c1a26c g     F .text	0000010c __b2d
00c1ea60 g     F .text	000005c4 .hidden __umoddi3
00c1f510 g     F .text	000000dc lseek
01051b20 g     O .rwdata	00000004 __fdlib_version
00c07bc8 g     F .text	00000020 close_sd
01051b24 g     O .rwdata	00000004 _global_impure_ptr
00c1a6e0 g     F .text	00000564 _realloc_r
010525a0 g       *ABS*	00000000 __bss_end
00c22914 g     F .text	000000f0 alt_iic_isr_register
00c067f4 g     F .text	000000a4 xmit_datablock
00c22e84 g     F .text	00000108 alt_tick
00c1e464 g     F .text	000005fc .hidden __udivdi3
01051b8c g     O .bss	00000004 curr_game_idx
00c1df10 g     F .text	00000024 _fputwc_r
0104fce0 g     O .rodata	00000028 __mprec_bigtens
00c19840 g     F .text	00000104 __s2b
00800000 g       *ABS*	00000000 __alt_mem_epcq_controller_0_avl_mem
00c1f024 g     F .text	000000a8 .hidden __floatunsidf
00c19fac g     F .text	00000060 __mcmp
00c0cf08 g     F .text	00000068 get_page_num
00c17e90 g     F .text	00000018 __fp_lock_all
00c228c8 g     F .text	0000004c alt_ic_irq_enabled
01051b7c g     O .bss	00000004 state
00c22de8 g     F .text	0000009c alt_alarm_stop
01051ba4 g     O .bss	00000001 ctrl_bus_state
01051bd4 g     O .bss	00000004 alt_irq_active
00c0a3b8 g     F .text	00000098 get_data_offset
010400fc g     F .exceptions	000000d4 alt_irq_handler
0105070c g     O .rwdata	00000028 alt_dev_null
00c05f10 g     F .text	00000154 ff_uni2oem
00c2190c g     F .text	00000120 alt_epcq_controller_erase_block
00c224c8 g     F .text	00000020 alt_dcache_flush_all
00c19944 g     F .text	00000068 __hi0bits
00c10960 g     F .text	00000080 .hidden __fixdfsi
00c0a358 g     F .text	00000060 get_addr_from_page
01051b74 g       *ABS*	00000000 __ram_rwdata_end
01040000 g       *ABS*	00000000 __alt_mem_onchip_memory
01051b48 g     O .rwdata	00000008 alt_dev_list
00c0cd74 g     F .text	0000006c DMA_print_err
00c1fa44 g     F .text	00000100 write
00c0b7a4 g     F .text	000002ac save_state
0104fe68 g       *ABS*	00000000 __ram_rodata_end
00c1f248 g     F .text	000000b8 fstat
00c07a28 g     F .text	0000003c init_file_read
00c0f704 g     F .text	000000f4 .hidden __ledf2
00c0d2d4 g     F .text	0000006c myprintf
00c076b4 g     F .text	000002cc get_save_num
00c19d24 g     F .text	00000140 __pow5mult
01051b90 g     O .bss	00000004 max_page
00c1c534 g     F .text	0000150c ___vfiprintf_internal_r
01051bb4 g     O .bss	00000004 __nlocale_changed
00c0e2a4 g     F .text	00000058 .hidden __umodsi3
010525a0 g       *ABS*	00000000 end
01051b1c g     O .rwdata	00000004 no_sd
00c20ee8 g     F .text	00000520 altera_avalon_lcd_16207_write
00c06744 g     F .text	000000b0 rcvr_datablock
00c1fd98 g     F .text	000000c0 altera_avalon_jtag_uart_init
010401d0 g     F .exceptions	00000060 alt_instruction_exception_entry
00c235c0 g       *ABS*	00000000 __CTOR_LIST__
01080000 g       *ABS*	00000000 __alt_stack_pointer
00c216c0 g     F .text	0000007c alt_avalon_timer_sc_init
00c10abc g     F .text	00000064 .hidden __clzsi2
00c10fa8 g     F .text	000000d8 _snprintf_r
00c20478 g     F .text	00000224 altera_avalon_jtag_uart_write
00c17e80 g     F .text	00000004 __sfp_lock_acquire
00c193e8 g     F .text	000000e4 memchr
00c21c38 g     F .text	000001e8 alt_epcq_controller_write
00c1398c g     F .text	000022dc ___vfprintf_internal_r
01051b84 g     O .bss	00000001 xx
00c11164 g     F .text	00000058 _sprintf_r
00c17fe4 g     F .text	00000310 _free_r
00c189cc g     F .text	00000010 __locale_mb_cur_max
00c2340c g     F .text	00000180 __call_exitprocs
00c07adc g     F .text	00000048 file_read
01051bb0 g     O .bss	00000004 __mlocale_changed
00c05714 g     F .text	00000068 f_close
01051b34 g     O .rwdata	00000004 __malloc_sbrk_base
00c00230 g     F .text	0000003c _start
00c21e20 g     F .text	000000ac alt_epcq_controller_read
01051bd8 g     O .bss	00000004 _alt_tick_rate
00c0b2a0 g     F .text	00000380 generate_regs_save_state
00c0c818 g     F .text	000000e8 write_mem
00c19e64 g     F .text	00000148 __lshift
01051bdc g     O .bss	00000004 _alt_nticks
00c1f6ec g     F .text	00000104 read
00c1fbb0 g     F .text	00000084 alt_sys_init
00c1aeb0 g     F .text	000001d0 __ssprint_r
00c05ea4 g     F .text	0000006c f_findfirst
00c0a314 g     F .text	00000044 is_compressed
00c0c284 g     F .text	000000a4 display_opening_text
00c232f4 g     F .text	00000118 __register_exitproc
00c04c0c g     F .text	00000450 f_read
00c114dc g     F .text	000000d0 strncmp
0105247c g     O .bss	00000021 curr_game_filename
00c19a98 g     F .text	0000028c __multiply
00c05d4c g     F .text	000000c0 f_readdir
00c20104 g     F .text	00000068 altera_avalon_jtag_uart_close
00c06518 g     F .text	000000b4 spi_read
00c0e2fc g     F .text	00000028 .hidden __mulsi3
0104fe68 g       *ABS*	00000000 __ram_rwdata_start
01040230 g       *ABS*	00000000 __ram_rodata_start
00c115ac g     F .text	000000ec strncpy
01051de4 g     O .bss	00000028 __malloc_current_mallinfo
00c1a378 g     F .text	0000014c __d2b
00c0d638 g     F .text	0000019c log10
00c1fc34 g     F .text	00000060 altera_avalon_jtag_uart_read_fd
00c23148 g     F .text	000000c4 alt_get_fd
00c0c584 g     F .text	000000a0 DMA_request
00c22370 g     F .text	00000158 alt_busy_sleep
00c0cce4 g     F .text	00000090 DMA_stop_w_interrupt
00c1db78 g     F .text	00000054 _close_r
01051ba8 g     O .bss	00000004 DMA_state
00c10b7c g     F .text	0000007c memcmp
00c1fcf4 g     F .text	00000050 altera_avalon_jtag_uart_close_fd
010525a0 g       *ABS*	00000000 __alt_stack_base
00c1fd44 g     F .text	00000054 altera_avalon_jtag_uart_ioctl_fd
00c15e64 g     F .text	00000154 __swsetup_r
00c0ebd0 g     F .text	000009d0 .hidden __divdf3
01051b10 g     O .rwdata	00000001 Stat
00c17d40 g     F .text	00000118 __sfp
00c11424 g     F .text	000000b8 strncat
00c1a5dc g     F .text	00000078 __copybits
01050304 g     O .rwdata	00000408 __malloc_av_
00c17e8c g     F .text	00000004 __sinit_lock_release
00c15d40 g     F .text	000000f0 _vsnprintf_r
00c0f7f8 g     F .text	0000086c .hidden __muldf3
00c1ac98 g     F .text	00000054 __sread
00c0cde0 g     F .text	000000a4 listen_for_en
00c23040 g     F .text	00000108 alt_find_file
00c22524 g     F .text	000000a4 alt_dev_llist_insert
00c1f668 g     F .text	00000024 __malloc_lock
00c1f874 g     F .text	000000b0 sbrk
00c11698 g     F .text	000022bc ___svfprintf_internal_r
00c17a84 g     F .text	0000005c _fflush_r
00c1dbcc g     F .text	000000dc _calloc_r
00c06a08 g     F .text	00000020 MMC_disk_status
01051b60 g     O .rwdata	00000008 alt_flash_dev_list
01051b94 g     O .bss	00000004 t1
01051b74 g       *ABS*	00000000 __bss_start
00c0d064 g     F .text	000000a0 LCD_Init
00c10d40 g     F .text	00000128 memset
00c0c328 g     F .text	000001fc main
01051bd0 g     O .bss	00000004 alt_envp
01051bb8 g     O .bss	00000004 __malloc_max_total_mem
00c0d340 g     F .text	00000088 myprintf_hexarray
00c1fc94 g     F .text	00000060 altera_avalon_jtag_uart_write_fd
00c1e264 g     F .text	00000018 __swbuf
00c05558 g     F .text	000001bc f_sync
00c05e0c g     F .text	00000098 f_findnext
00c214b4 g     F .text	00000134 altera_avalon_lcd_16207_init
00c0d1c8 g     F .text	00000040 LCD_Line2
00c1adcc g     F .text	00000008 __sclose
00c0da18 g     F .text	00000008 matherr
01080000 g       *ABS*	00000000 __alt_heap_limit
00c1dd98 g     F .text	00000014 fclose
00c161e0 g     F .text	00001688 _dtoa_r
00c18bdc g     F .text	0000080c _malloc_r
00c1e3d8 g     F .text	00000030 __ascii_wctomb
00c07eac g     F .text	00000020 get_LOAD_routine_size
01051b54 g     O .rwdata	00000004 alt_errno
00c04650 g     F .text	00000108 f_mount
00c187bc g     F .text	000000c4 _fwalk
00c08998 g     F .text	000006f0 generate_SAVE_routine
00c05bc4 g     F .text	00000134 f_opendir
00c0e148 g     F .text	00000084 .hidden __divsi3
00c17ec0 g     F .text	00000124 _malloc_trim_r
00c09338 g     F .text	000005cc load_SNA
00c235c0 g       *ABS*	00000000 __CTOR_END__
00c06064 g     F .text	00000144 ff_oem2uni
00c1add4 g     F .text	000000dc strcmp
00c235c0 g       *ABS*	00000000 __flash_rodata_start
00c235c0 g       *ABS*	00000000 __DTOR_LIST__
00c0ce84 g     F .text	00000084 get_if_type
00c07be8 g     F .text	000001ec test_sd
00c0f5a0 g     F .text	00000088 .hidden __nedf2
00c1fb78 g     F .text	00000038 alt_irq_init
00c0d104 g     F .text	00000084 LCD_Show_Text
00c0b620 g     F .text	0000009c string_to_num
00c1f7f0 g     F .text	00000084 alt_release_fd
00c065cc g     F .text	00000060 spi_read_buffer
00c06d8c g     F .text	0000011c MMC_disk_write
00c0577c g     F .text	00000448 f_lseek
00c111bc g     F .text	0000006c sprintf
0104f886 g     O .rodata	00000100 .hidden __clz_tab
00c0d2a0 g     F .text	00000034 debug_output
00c0b6bc g     F .text	000000e8 write_menu
01051bac g     O .bss	00000004 _PathLocale
00c0c524 g     F .text	00000060 DMA_init
00c06a28 g     F .text	0000027c MMC_disk_initialize
00c232a8 g     F .text	00000014 atexit
00c1db18 g     F .text	00000060 _write_r
00c189fc g     F .text	00000018 setlocale
00c0c780 g     F .text	00000098 read_buf_mem
01051b28 g     O .rwdata	00000004 _impure_ptr
00c0cc48 g     F .text	0000009c DMA_stop
01051bc8 g     O .bss	00000004 alt_argc
00c17868 g     F .text	0000021c __sflush_r
01051b98 g     O .bss	00000004 t0
00c22628 g     F .text	00000060 _do_dtors
00c189e8 g     F .text	00000008 __locale_cjk_lang
00c21880 g     F .text	0000008c alt_epcq_controller_get_info
00c0d3c8 g     F .text	00000090 myprintf_dwordarray
00c0da2c g     F .text	0000071c __ieee754_log
01040020 g       .exceptions	00000000 alt_irq_entry
00c1a208 g     F .text	00000064 __ulp
00c17ea8 g     F .text	00000018 __fp_unlock_all
00c215e8 g     F .text	00000060 altera_avalon_lcd_16207_write_fd
00c07e30 g     F .text	0000003c reverse_16
01051b40 g     O .rwdata	00000008 alt_fs_list
00c06898 g     F .text	00000170 send_cmd
00c0da20 g     F .text	0000000c nan
00c063f4 g     F .text	000000c4 spi_write
01040020 g       *ABS*	00000000 __ram_exceptions_start
00c18a14 g     F .text	0000000c localeconv
00c07aa0 g     F .text	0000003c init_file_write_open
00c0803c g     F .text	0000095c generate_LOAD_routine
00c22764 g     F .text	00000050 alt_ic_isr_register
00c07e6c g     F .text	00000040 conv_data_8_16_sep
01051b74 g       *ABS*	00000000 _edata
00c0d014 g     F .text	00000050 per_cmd_ack
00c21ecc g     F .text	00000254 altera_epcq_controller_init
010525a0 g       *ABS*	00000000 _end
00c22688 g     F .text	00000068 alt_flash_open_dev
01051b80 g     O .bss	00000004 zero_detected
00c1ddac g     F .text	00000164 __fputwc
01040230 g       *ABS*	00000000 __ram_exceptions_end
00c0505c g     F .text	000004fc f_write
00c2016c g     F .text	000000f0 altera_avalon_jtag_uart_ioctl
00c0cb4c g     F .text	00000094 wait_for_pc
00c2283c g     F .text	0000008c alt_ic_irq_disable
00c07eec g     F .text	00000150 generate_AF_stack_addition
00c0a8e4 g     F .text	000009bc load_z80
00c1acf4 g     F .text	0000007c __swrite
01051b14 g     O .rwdata	00000008 SUPPORTED_EXTENSIONS
01051b38 g     O .rwdata	00000004 __malloc_trim_threshold
00c04758 g     F .text	000004b4 f_open
00c00354 g     F .text	00000048 disk_write
00c189dc g     F .text	0000000c __locale_msgcharset
00c232bc g     F .text	00000038 exit
00c18880 g     F .text	000000c4 _fwalk_reent
00c1a00c g     F .text	000001fc __mdiff
00c07ecc g     F .text	00000020 get_SAVE_routine_size
00c226f0 g     F .text	00000054 alt_flash_close_dev
00c0e1cc g     F .text	00000074 .hidden __modsi3
01051b2c g     O .rwdata	00000004 __ctype_ptr__
00c09ba4 g     F .text	00000678 save_SNA
00c21770 g     F .text	00000110 alt_epcq_controller_lock
01080000 g       *ABS*	00000000 __alt_data_end
01040020 g     F .exceptions	00000000 alt_exception
00c17e84 g     F .text	00000004 __sfp_lock_release
00c070b0 g     F .text	000001b8 is_supported_file
0104fa0f g     O .rodata	00000101 _ctype_
00c09904 g     F .text	000002a0 fill_sna_header
00c2358c g     F .text	00000034 _exit
00c22244 g     F .text	0000012c alt_alarm_start
00c21a2c g     F .text	0000020c alt_epcq_controller_write_block
00c18a20 g     F .text	000001bc __smakebuf_r
01052040 g     O .bss	00000228 fil
00c0a450 g     F .text	000001f4 generate_regs_z80
00c1138c g     F .text	00000098 strlen
00c00304 g     F .text	00000050 disk_read
01051b9c g     O .bss	00000004 curr_game_filename_len
00c22c8c g     F .text	0000015c open
00c0cfe4 g     F .text	00000030 is_write
00c0f628 g     F .text	000000dc .hidden __gedf2
00c06ca4 g     F .text	000000e8 MMC_disk_read
00c10b20 g     F .text	0000004c clock
01051b3c g     O .rwdata	00000004 __wctomb
00c1c51c g     F .text	00000018 __sprint_r
00c22744 g     F .text	00000020 alt_icache_flush_all
00c11228 g     F .text	00000164 strchr
01051b68 g     O .rwdata	00000004 alt_priority_mask
00c227b4 g     F .text	00000088 alt_ic_irq_enable
00c15c68 g     F .text	0000001c __vfprintf_internal
00c1e408 g     F .text	0000005c _wctomb_r
00c06ea8 g     F .text	000001b8 MMC_disk_ioctl
00c10064 g     F .text	000008fc .hidden __subdf3
00c199ac g     F .text	000000b0 __lo0bits
00c073c4 g     F .text	000002f0 list_files_of_page
01051b6c g     O .rwdata	00000008 alt_alarm_list
00c0a2b0 g     F .text	00000064 is_48k
00c225c8 g     F .text	00000060 _do_ctors
00c0c654 g     F .text	00000030 read_IFF2
00c1e318 g     F .text	000000c0 wcrtomb
00c1f108 g     F .text	000000d8 close
00c1f450 g     F .text	00000084 alt_load
01051ba0 g     O .bss	00000004 curr_page
01051b88 g     O .bss	00000004 sd_empty
00c1df34 g     F .text	00000080 fputwc
00c07b6c g     F .text	00000028 file_size
00c0cbe0 g     F .text	00000068 wait_until_routine_ends
00c17e88 g     F .text	00000004 __sinit_lock_acquire
00c196f8 g     F .text	00000148 __multadd
00c196d0 g     F .text	00000028 _Bfree



Disassembly of section .entry:

00c00000 <__reset>:
  c00000:	00403034 	movhi	at,192
  c00004:	08408c14 	ori	at,at,560
  c00008:	0800683a 	jmp	at
	...

Disassembly of section .exceptions:

01040020 <alt_exception>:
 1040020:	deffed04 	addi	sp,sp,-76
 1040024:	dfc00015 	stw	ra,0(sp)
 1040028:	d8400215 	stw	at,8(sp)
 104002c:	d8800315 	stw	r2,12(sp)
 1040030:	d8c00415 	stw	r3,16(sp)
 1040034:	d9000515 	stw	r4,20(sp)
 1040038:	d9400615 	stw	r5,24(sp)
 104003c:	d9800715 	stw	r6,28(sp)
 1040040:	d9c00815 	stw	r7,32(sp)
 1040044:	000b307a 	rdctl	r5,estatus
 1040048:	da000915 	stw	r8,36(sp)
 104004c:	da400a15 	stw	r9,40(sp)
 1040050:	da800b15 	stw	r10,44(sp)
 1040054:	dac00c15 	stw	r11,48(sp)
 1040058:	db000d15 	stw	r12,52(sp)
 104005c:	db400e15 	stw	r13,56(sp)
 1040060:	db800f15 	stw	r14,60(sp)
 1040064:	dbc01015 	stw	r15,64(sp)
 1040068:	d9401115 	stw	r5,68(sp)
 104006c:	ebffff04 	addi	r15,ea,-4
 1040070:	dbc01215 	stw	r15,72(sp)
 1040074:	0009313a 	rdctl	r4,ipending
 1040078:	2880004c 	andi	r2,r5,1
 104007c:	10000326 	beq	r2,zero,104008c <alt_exception+0x6c>
 1040080:	20000226 	beq	r4,zero,104008c <alt_exception+0x6c>
 1040084:	10400fc0 	call	10400fc <alt_irq_handler>
 1040088:	00000706 	br	10400a8 <alt_exception+0x88>
 104008c:	df401215 	stw	ea,72(sp)
 1040090:	e8bfff17 	ldw	r2,-4(ea)
 1040094:	e93fff04 	addi	r4,ea,-4
 1040098:	10401d00 	call	10401d0 <alt_instruction_exception_entry>
 104009c:	1000021e 	bne	r2,zero,10400a8 <alt_exception+0x88>
 10400a0:	ebffff04 	addi	r15,ea,-4
 10400a4:	dbc01215 	stw	r15,72(sp)
 10400a8:	d9401117 	ldw	r5,68(sp)
 10400ac:	df401217 	ldw	ea,72(sp)
 10400b0:	dfc00017 	ldw	ra,0(sp)
 10400b4:	2801707a 	wrctl	estatus,r5
 10400b8:	d8400217 	ldw	at,8(sp)
 10400bc:	d8800317 	ldw	r2,12(sp)
 10400c0:	d8c00417 	ldw	r3,16(sp)
 10400c4:	d9000517 	ldw	r4,20(sp)
 10400c8:	d9400617 	ldw	r5,24(sp)
 10400cc:	d9800717 	ldw	r6,28(sp)
 10400d0:	d9c00817 	ldw	r7,32(sp)
 10400d4:	da000917 	ldw	r8,36(sp)
 10400d8:	da400a17 	ldw	r9,40(sp)
 10400dc:	da800b17 	ldw	r10,44(sp)
 10400e0:	dac00c17 	ldw	r11,48(sp)
 10400e4:	db000d17 	ldw	r12,52(sp)
 10400e8:	db400e17 	ldw	r13,56(sp)
 10400ec:	db800f17 	ldw	r14,60(sp)
 10400f0:	dbc01017 	ldw	r15,64(sp)
 10400f4:	dec01304 	addi	sp,sp,76
 10400f8:	ef80083a 	eret

010400fc <alt_irq_handler>:
 10400fc:	defff904 	addi	sp,sp,-28
 1040100:	dfc00615 	stw	ra,24(sp)
 1040104:	df000515 	stw	fp,20(sp)
 1040108:	df000504 	addi	fp,sp,20
 104010c:	0001883a 	nop
 1040110:	0005313a 	rdctl	r2,ipending
 1040114:	e0bffe15 	stw	r2,-8(fp)
 1040118:	e0bffe17 	ldw	r2,-8(fp)
 104011c:	e0bffb15 	stw	r2,-20(fp)
 1040120:	e03ffd15 	stw	zero,-12(fp)
 1040124:	00800044 	movi	r2,1
 1040128:	e0bffc15 	stw	r2,-16(fp)
 104012c:	e0fffb17 	ldw	r3,-20(fp)
 1040130:	e0bffc17 	ldw	r2,-16(fp)
 1040134:	1884703a 	and	r2,r3,r2
 1040138:	10001426 	beq	r2,zero,104018c <alt_irq_handler+0x90>
 104013c:	00804174 	movhi	r2,261
 1040140:	10892804 	addi	r2,r2,9376
 1040144:	e0fffd17 	ldw	r3,-12(fp)
 1040148:	180690fa 	slli	r3,r3,3
 104014c:	10c5883a 	add	r2,r2,r3
 1040150:	10c00017 	ldw	r3,0(r2)
 1040154:	00804174 	movhi	r2,261
 1040158:	10892804 	addi	r2,r2,9376
 104015c:	e13ffd17 	ldw	r4,-12(fp)
 1040160:	200890fa 	slli	r4,r4,3
 1040164:	1105883a 	add	r2,r2,r4
 1040168:	10800104 	addi	r2,r2,4
 104016c:	10800017 	ldw	r2,0(r2)
 1040170:	1009883a 	mov	r4,r2
 1040174:	183ee83a 	callr	r3
 1040178:	0001883a 	nop
 104017c:	0005313a 	rdctl	r2,ipending
 1040180:	e0bfff15 	stw	r2,-4(fp)
 1040184:	e0bfff17 	ldw	r2,-4(fp)
 1040188:	00000706 	br	10401a8 <alt_irq_handler+0xac>
 104018c:	e0bffc17 	ldw	r2,-16(fp)
 1040190:	1085883a 	add	r2,r2,r2
 1040194:	e0bffc15 	stw	r2,-16(fp)
 1040198:	e0bffd17 	ldw	r2,-12(fp)
 104019c:	10800044 	addi	r2,r2,1
 10401a0:	e0bffd15 	stw	r2,-12(fp)
 10401a4:	003fe106 	br	104012c <__alt_data_end+0xfffc012c>
 10401a8:	e0bffb15 	stw	r2,-20(fp)
 10401ac:	e0bffb17 	ldw	r2,-20(fp)
 10401b0:	103fdb1e 	bne	r2,zero,1040120 <__alt_data_end+0xfffc0120>
 10401b4:	0001883a 	nop
 10401b8:	0001883a 	nop
 10401bc:	e037883a 	mov	sp,fp
 10401c0:	dfc00117 	ldw	ra,4(sp)
 10401c4:	df000017 	ldw	fp,0(sp)
 10401c8:	dec00204 	addi	sp,sp,8
 10401cc:	f800283a 	ret

010401d0 <alt_instruction_exception_entry>:
 10401d0:	defffb04 	addi	sp,sp,-20
 10401d4:	dfc00415 	stw	ra,16(sp)
 10401d8:	df000315 	stw	fp,12(sp)
 10401dc:	df000304 	addi	fp,sp,12
 10401e0:	e13fff15 	stw	r4,-4(fp)
 10401e4:	00bfffc4 	movi	r2,-1
 10401e8:	e0bffd15 	stw	r2,-12(fp)
 10401ec:	e03ffe15 	stw	zero,-8(fp)
 10401f0:	d0a03417 	ldw	r2,-32560(gp)
 10401f4:	10000726 	beq	r2,zero,1040214 <alt_instruction_exception_entry+0x44>
 10401f8:	d0a03417 	ldw	r2,-32560(gp)
 10401fc:	e0fffd17 	ldw	r3,-12(fp)
 1040200:	e1bffe17 	ldw	r6,-8(fp)
 1040204:	e17fff17 	ldw	r5,-4(fp)
 1040208:	1809883a 	mov	r4,r3
 104020c:	103ee83a 	callr	r2
 1040210:	00000206 	br	104021c <alt_instruction_exception_entry+0x4c>
 1040214:	003da03a 	break	0
 1040218:	0005883a 	mov	r2,zero
 104021c:	e037883a 	mov	sp,fp
 1040220:	dfc00117 	ldw	ra,4(sp)
 1040224:	df000017 	ldw	fp,0(sp)
 1040228:	dec00204 	addi	sp,sp,8
 104022c:	f800283a 	ret

Disassembly of section .text:

00c00230 <_start>:
  c00230:	06c04234 	movhi	sp,264
  c00234:	dec00014 	ori	sp,sp,0
  c00238:	06804174 	movhi	gp,261
  c0023c:	d6a6c414 	ori	gp,gp,39696
  c00240:	00804174 	movhi	r2,261
  c00244:	1086dd14 	ori	r2,r2,7028
  c00248:	00c04174 	movhi	r3,261
  c0024c:	18c96814 	ori	r3,r3,9632
  c00250:	10c00326 	beq	r2,r3,c00260 <_start+0x30>
  c00254:	10000015 	stw	zero,0(r2)
  c00258:	10800104 	addi	r2,r2,4
  c0025c:	10fffd36 	bltu	r2,r3,c00254 <__alt_data_end+0xffb80254>
  c00260:	0c1f4500 	call	c1f450 <alt_load>
  c00264:	0c1f5ec0 	call	c1f5ec <alt_main>

00c00268 <alt_after_alt_main>:
  c00268:	003fff06 	br	c00268 <__alt_data_end+0xffb80268>

00c0026c <disk_status>:
  c0026c:	defffd04 	addi	sp,sp,-12
  c00270:	dfc00215 	stw	ra,8(sp)
  c00274:	df000115 	stw	fp,4(sp)
  c00278:	df000104 	addi	fp,sp,4
  c0027c:	2005883a 	mov	r2,r4
  c00280:	e0bfff05 	stb	r2,-4(fp)
  c00284:	e0bfff03 	ldbu	r2,-4(fp)
  c00288:	10c00060 	cmpeqi	r3,r2,1
  c0028c:	1800051e 	bne	r3,zero,c002a4 <disk_status+0x38>
  c00290:	10c000a0 	cmpeqi	r3,r2,2
  c00294:	1800051e 	bne	r3,zero,c002ac <disk_status+0x40>
  c00298:	1000061e 	bne	r2,zero,c002b4 <disk_status+0x48>
  c0029c:	0c06a080 	call	c06a08 <MMC_disk_status>
  c002a0:	00000506 	br	c002b8 <disk_status+0x4c>
  c002a4:	0c06a080 	call	c06a08 <MMC_disk_status>
  c002a8:	00000306 	br	c002b8 <disk_status+0x4c>
  c002ac:	0c06a080 	call	c06a08 <MMC_disk_status>
  c002b0:	00000106 	br	c002b8 <disk_status+0x4c>
  c002b4:	00800044 	movi	r2,1
  c002b8:	e037883a 	mov	sp,fp
  c002bc:	dfc00117 	ldw	ra,4(sp)
  c002c0:	df000017 	ldw	fp,0(sp)
  c002c4:	dec00204 	addi	sp,sp,8
  c002c8:	f800283a 	ret

00c002cc <disk_initialize>:
  c002cc:	defffc04 	addi	sp,sp,-16
  c002d0:	dfc00315 	stw	ra,12(sp)
  c002d4:	df000215 	stw	fp,8(sp)
  c002d8:	df000204 	addi	fp,sp,8
  c002dc:	2005883a 	mov	r2,r4
  c002e0:	e0bfff05 	stb	r2,-4(fp)
  c002e4:	0c06a280 	call	c06a28 <MMC_disk_initialize>
  c002e8:	e0bffe15 	stw	r2,-8(fp)
  c002ec:	e0bffe17 	ldw	r2,-8(fp)
  c002f0:	e037883a 	mov	sp,fp
  c002f4:	dfc00117 	ldw	ra,4(sp)
  c002f8:	df000017 	ldw	fp,0(sp)
  c002fc:	dec00204 	addi	sp,sp,8
  c00300:	f800283a 	ret

00c00304 <disk_read>:
  c00304:	defff904 	addi	sp,sp,-28
  c00308:	dfc00615 	stw	ra,24(sp)
  c0030c:	df000515 	stw	fp,20(sp)
  c00310:	df000504 	addi	fp,sp,20
  c00314:	2005883a 	mov	r2,r4
  c00318:	e17ffd15 	stw	r5,-12(fp)
  c0031c:	e1bffe15 	stw	r6,-8(fp)
  c00320:	e1ffff15 	stw	r7,-4(fp)
  c00324:	e0bffc05 	stb	r2,-16(fp)
  c00328:	e1bfff17 	ldw	r6,-4(fp)
  c0032c:	e17ffe17 	ldw	r5,-8(fp)
  c00330:	e13ffd17 	ldw	r4,-12(fp)
  c00334:	0c06ca40 	call	c06ca4 <MMC_disk_read>
  c00338:	e0bffb15 	stw	r2,-20(fp)
  c0033c:	e0bffb17 	ldw	r2,-20(fp)
  c00340:	e037883a 	mov	sp,fp
  c00344:	dfc00117 	ldw	ra,4(sp)
  c00348:	df000017 	ldw	fp,0(sp)
  c0034c:	dec00204 	addi	sp,sp,8
  c00350:	f800283a 	ret

00c00354 <disk_write>:
  c00354:	defffa04 	addi	sp,sp,-24
  c00358:	dfc00515 	stw	ra,20(sp)
  c0035c:	df000415 	stw	fp,16(sp)
  c00360:	df000404 	addi	fp,sp,16
  c00364:	2005883a 	mov	r2,r4
  c00368:	e17ffd15 	stw	r5,-12(fp)
  c0036c:	e1bffe15 	stw	r6,-8(fp)
  c00370:	e1ffff15 	stw	r7,-4(fp)
  c00374:	e0bffc05 	stb	r2,-16(fp)
  c00378:	e1bfff17 	ldw	r6,-4(fp)
  c0037c:	e17ffe17 	ldw	r5,-8(fp)
  c00380:	e13ffd17 	ldw	r4,-12(fp)
  c00384:	0c06d8c0 	call	c06d8c <MMC_disk_write>
  c00388:	e037883a 	mov	sp,fp
  c0038c:	dfc00117 	ldw	ra,4(sp)
  c00390:	df000017 	ldw	fp,0(sp)
  c00394:	dec00204 	addi	sp,sp,8
  c00398:	f800283a 	ret

00c0039c <disk_ioctl>:
  c0039c:	defffb04 	addi	sp,sp,-20
  c003a0:	dfc00415 	stw	ra,16(sp)
  c003a4:	df000315 	stw	fp,12(sp)
  c003a8:	df000304 	addi	fp,sp,12
  c003ac:	2007883a 	mov	r3,r4
  c003b0:	2805883a 	mov	r2,r5
  c003b4:	e1bfff15 	stw	r6,-4(fp)
  c003b8:	e0fffd05 	stb	r3,-12(fp)
  c003bc:	e0bffe05 	stb	r2,-8(fp)
  c003c0:	e0bffe03 	ldbu	r2,-8(fp)
  c003c4:	e17fff17 	ldw	r5,-4(fp)
  c003c8:	1009883a 	mov	r4,r2
  c003cc:	0c06ea80 	call	c06ea8 <MMC_disk_ioctl>
  c003d0:	e037883a 	mov	sp,fp
  c003d4:	dfc00117 	ldw	ra,4(sp)
  c003d8:	df000017 	ldw	fp,0(sp)
  c003dc:	dec00204 	addi	sp,sp,8
  c003e0:	f800283a 	ret

00c003e4 <ld_word>:
  c003e4:	defffd04 	addi	sp,sp,-12
  c003e8:	df000215 	stw	fp,8(sp)
  c003ec:	df000204 	addi	fp,sp,8
  c003f0:	e13fff15 	stw	r4,-4(fp)
  c003f4:	e0bfff17 	ldw	r2,-4(fp)
  c003f8:	10800044 	addi	r2,r2,1
  c003fc:	10800003 	ldbu	r2,0(r2)
  c00400:	10803fcc 	andi	r2,r2,255
  c00404:	e0bffe0d 	sth	r2,-8(fp)
  c00408:	e0bffe0b 	ldhu	r2,-8(fp)
  c0040c:	1004923a 	slli	r2,r2,8
  c00410:	1007883a 	mov	r3,r2
  c00414:	e0bfff17 	ldw	r2,-4(fp)
  c00418:	10800003 	ldbu	r2,0(r2)
  c0041c:	10803fcc 	andi	r2,r2,255
  c00420:	1884b03a 	or	r2,r3,r2
  c00424:	e0bffe0d 	sth	r2,-8(fp)
  c00428:	e0bffe0b 	ldhu	r2,-8(fp)
  c0042c:	e037883a 	mov	sp,fp
  c00430:	df000017 	ldw	fp,0(sp)
  c00434:	dec00104 	addi	sp,sp,4
  c00438:	f800283a 	ret

00c0043c <ld_dword>:
  c0043c:	defffd04 	addi	sp,sp,-12
  c00440:	df000215 	stw	fp,8(sp)
  c00444:	df000204 	addi	fp,sp,8
  c00448:	e13fff15 	stw	r4,-4(fp)
  c0044c:	e0bfff17 	ldw	r2,-4(fp)
  c00450:	108000c4 	addi	r2,r2,3
  c00454:	10800003 	ldbu	r2,0(r2)
  c00458:	10803fcc 	andi	r2,r2,255
  c0045c:	e0bffe15 	stw	r2,-8(fp)
  c00460:	e0bffe17 	ldw	r2,-8(fp)
  c00464:	1006923a 	slli	r3,r2,8
  c00468:	e0bfff17 	ldw	r2,-4(fp)
  c0046c:	10800084 	addi	r2,r2,2
  c00470:	10800003 	ldbu	r2,0(r2)
  c00474:	10803fcc 	andi	r2,r2,255
  c00478:	1884b03a 	or	r2,r3,r2
  c0047c:	e0bffe15 	stw	r2,-8(fp)
  c00480:	e0bffe17 	ldw	r2,-8(fp)
  c00484:	1006923a 	slli	r3,r2,8
  c00488:	e0bfff17 	ldw	r2,-4(fp)
  c0048c:	10800044 	addi	r2,r2,1
  c00490:	10800003 	ldbu	r2,0(r2)
  c00494:	10803fcc 	andi	r2,r2,255
  c00498:	1884b03a 	or	r2,r3,r2
  c0049c:	e0bffe15 	stw	r2,-8(fp)
  c004a0:	e0bffe17 	ldw	r2,-8(fp)
  c004a4:	1006923a 	slli	r3,r2,8
  c004a8:	e0bfff17 	ldw	r2,-4(fp)
  c004ac:	10800003 	ldbu	r2,0(r2)
  c004b0:	10803fcc 	andi	r2,r2,255
  c004b4:	1884b03a 	or	r2,r3,r2
  c004b8:	e0bffe15 	stw	r2,-8(fp)
  c004bc:	e0bffe17 	ldw	r2,-8(fp)
  c004c0:	e037883a 	mov	sp,fp
  c004c4:	df000017 	ldw	fp,0(sp)
  c004c8:	dec00104 	addi	sp,sp,4
  c004cc:	f800283a 	ret

00c004d0 <st_word>:
  c004d0:	defffd04 	addi	sp,sp,-12
  c004d4:	df000215 	stw	fp,8(sp)
  c004d8:	df000204 	addi	fp,sp,8
  c004dc:	e13ffe15 	stw	r4,-8(fp)
  c004e0:	2805883a 	mov	r2,r5
  c004e4:	e0bfff0d 	sth	r2,-4(fp)
  c004e8:	e0bffe17 	ldw	r2,-8(fp)
  c004ec:	10c00044 	addi	r3,r2,1
  c004f0:	e0fffe15 	stw	r3,-8(fp)
  c004f4:	e0ffff0b 	ldhu	r3,-4(fp)
  c004f8:	10c00005 	stb	r3,0(r2)
  c004fc:	e0bfff0b 	ldhu	r2,-4(fp)
  c00500:	1004d23a 	srli	r2,r2,8
  c00504:	e0bfff0d 	sth	r2,-4(fp)
  c00508:	e0bffe17 	ldw	r2,-8(fp)
  c0050c:	10c00044 	addi	r3,r2,1
  c00510:	e0fffe15 	stw	r3,-8(fp)
  c00514:	e0ffff0b 	ldhu	r3,-4(fp)
  c00518:	10c00005 	stb	r3,0(r2)
  c0051c:	0001883a 	nop
  c00520:	e037883a 	mov	sp,fp
  c00524:	df000017 	ldw	fp,0(sp)
  c00528:	dec00104 	addi	sp,sp,4
  c0052c:	f800283a 	ret

00c00530 <st_dword>:
  c00530:	defffd04 	addi	sp,sp,-12
  c00534:	df000215 	stw	fp,8(sp)
  c00538:	df000204 	addi	fp,sp,8
  c0053c:	e13ffe15 	stw	r4,-8(fp)
  c00540:	e17fff15 	stw	r5,-4(fp)
  c00544:	e0bffe17 	ldw	r2,-8(fp)
  c00548:	10c00044 	addi	r3,r2,1
  c0054c:	e0fffe15 	stw	r3,-8(fp)
  c00550:	e0ffff17 	ldw	r3,-4(fp)
  c00554:	10c00005 	stb	r3,0(r2)
  c00558:	e0bfff17 	ldw	r2,-4(fp)
  c0055c:	1004d23a 	srli	r2,r2,8
  c00560:	e0bfff15 	stw	r2,-4(fp)
  c00564:	e0bffe17 	ldw	r2,-8(fp)
  c00568:	10c00044 	addi	r3,r2,1
  c0056c:	e0fffe15 	stw	r3,-8(fp)
  c00570:	e0ffff17 	ldw	r3,-4(fp)
  c00574:	10c00005 	stb	r3,0(r2)
  c00578:	e0bfff17 	ldw	r2,-4(fp)
  c0057c:	1004d23a 	srli	r2,r2,8
  c00580:	e0bfff15 	stw	r2,-4(fp)
  c00584:	e0bffe17 	ldw	r2,-8(fp)
  c00588:	10c00044 	addi	r3,r2,1
  c0058c:	e0fffe15 	stw	r3,-8(fp)
  c00590:	e0ffff17 	ldw	r3,-4(fp)
  c00594:	10c00005 	stb	r3,0(r2)
  c00598:	e0bfff17 	ldw	r2,-4(fp)
  c0059c:	1004d23a 	srli	r2,r2,8
  c005a0:	e0bfff15 	stw	r2,-4(fp)
  c005a4:	e0bffe17 	ldw	r2,-8(fp)
  c005a8:	10c00044 	addi	r3,r2,1
  c005ac:	e0fffe15 	stw	r3,-8(fp)
  c005b0:	e0ffff17 	ldw	r3,-4(fp)
  c005b4:	10c00005 	stb	r3,0(r2)
  c005b8:	0001883a 	nop
  c005bc:	e037883a 	mov	sp,fp
  c005c0:	df000017 	ldw	fp,0(sp)
  c005c4:	dec00104 	addi	sp,sp,4
  c005c8:	f800283a 	ret

00c005cc <dbc_1st>:
  c005cc:	defffe04 	addi	sp,sp,-8
  c005d0:	df000115 	stw	fp,4(sp)
  c005d4:	df000104 	addi	fp,sp,4
  c005d8:	2005883a 	mov	r2,r4
  c005dc:	e0bfff05 	stb	r2,-4(fp)
  c005e0:	00bfe044 	movi	r2,-127
  c005e4:	10803fcc 	andi	r2,r2,255
  c005e8:	e0ffff03 	ldbu	r3,-4(fp)
  c005ec:	18801036 	bltu	r3,r2,c00630 <dbc_1st+0x64>
  c005f0:	00bfe7c4 	movi	r2,-97
  c005f4:	10c03fcc 	andi	r3,r2,255
  c005f8:	e0bfff03 	ldbu	r2,-4(fp)
  c005fc:	18800236 	bltu	r3,r2,c00608 <dbc_1st+0x3c>
  c00600:	00800044 	movi	r2,1
  c00604:	00000b06 	br	c00634 <dbc_1st+0x68>
  c00608:	00bff804 	movi	r2,-32
  c0060c:	10803fcc 	andi	r2,r2,255
  c00610:	e0ffff03 	ldbu	r3,-4(fp)
  c00614:	18800636 	bltu	r3,r2,c00630 <dbc_1st+0x64>
  c00618:	00bfff04 	movi	r2,-4
  c0061c:	10c03fcc 	andi	r3,r2,255
  c00620:	e0bfff03 	ldbu	r2,-4(fp)
  c00624:	18800236 	bltu	r3,r2,c00630 <dbc_1st+0x64>
  c00628:	00800044 	movi	r2,1
  c0062c:	00000106 	br	c00634 <dbc_1st+0x68>
  c00630:	0005883a 	mov	r2,zero
  c00634:	e037883a 	mov	sp,fp
  c00638:	df000017 	ldw	fp,0(sp)
  c0063c:	dec00104 	addi	sp,sp,4
  c00640:	f800283a 	ret

00c00644 <dbc_2nd>:
  c00644:	defffe04 	addi	sp,sp,-8
  c00648:	df000115 	stw	fp,4(sp)
  c0064c:	df000104 	addi	fp,sp,4
  c00650:	2005883a 	mov	r2,r4
  c00654:	e0bfff05 	stb	r2,-4(fp)
  c00658:	00801004 	movi	r2,64
  c0065c:	10803fcc 	andi	r2,r2,255
  c00660:	e0ffff03 	ldbu	r3,-4(fp)
  c00664:	18801a36 	bltu	r3,r2,c006d0 <dbc_2nd+0x8c>
  c00668:	00801f84 	movi	r2,126
  c0066c:	10c03fcc 	andi	r3,r2,255
  c00670:	e0bfff03 	ldbu	r2,-4(fp)
  c00674:	18800236 	bltu	r3,r2,c00680 <dbc_2nd+0x3c>
  c00678:	00800044 	movi	r2,1
  c0067c:	00001506 	br	c006d4 <dbc_2nd+0x90>
  c00680:	00bfe004 	movi	r2,-128
  c00684:	10803fcc 	andi	r2,r2,255
  c00688:	e0ffff03 	ldbu	r3,-4(fp)
  c0068c:	18800636 	bltu	r3,r2,c006a8 <dbc_2nd+0x64>
  c00690:	00bfff04 	movi	r2,-4
  c00694:	10c03fcc 	andi	r3,r2,255
  c00698:	e0bfff03 	ldbu	r2,-4(fp)
  c0069c:	18800236 	bltu	r3,r2,c006a8 <dbc_2nd+0x64>
  c006a0:	00800044 	movi	r2,1
  c006a4:	00000b06 	br	c006d4 <dbc_2nd+0x90>
  c006a8:	0005883a 	mov	r2,zero
  c006ac:	10803fcc 	andi	r2,r2,255
  c006b0:	e0ffff03 	ldbu	r3,-4(fp)
  c006b4:	18800636 	bltu	r3,r2,c006d0 <dbc_2nd+0x8c>
  c006b8:	0005883a 	mov	r2,zero
  c006bc:	10c03fcc 	andi	r3,r2,255
  c006c0:	e0bfff03 	ldbu	r2,-4(fp)
  c006c4:	18800236 	bltu	r3,r2,c006d0 <dbc_2nd+0x8c>
  c006c8:	00800044 	movi	r2,1
  c006cc:	00000106 	br	c006d4 <dbc_2nd+0x90>
  c006d0:	0005883a 	mov	r2,zero
  c006d4:	e037883a 	mov	sp,fp
  c006d8:	df000017 	ldw	fp,0(sp)
  c006dc:	dec00104 	addi	sp,sp,4
  c006e0:	f800283a 	ret

00c006e4 <tchar2uni>:
  c006e4:	defffa04 	addi	sp,sp,-24
  c006e8:	dfc00515 	stw	ra,20(sp)
  c006ec:	df000415 	stw	fp,16(sp)
  c006f0:	df000404 	addi	fp,sp,16
  c006f4:	e13fff15 	stw	r4,-4(fp)
  c006f8:	e0bfff17 	ldw	r2,-4(fp)
  c006fc:	10800017 	ldw	r2,0(r2)
  c00700:	e0bffc15 	stw	r2,-16(fp)
  c00704:	e0bffc17 	ldw	r2,-16(fp)
  c00708:	10c00044 	addi	r3,r2,1
  c0070c:	e0fffc15 	stw	r3,-16(fp)
  c00710:	10800003 	ldbu	r2,0(r2)
  c00714:	10803fcc 	andi	r2,r2,255
  c00718:	e0bffd0d 	sth	r2,-12(fp)
  c0071c:	e0bffd0b 	ldhu	r2,-12(fp)
  c00720:	10803fcc 	andi	r2,r2,255
  c00724:	1009883a 	mov	r4,r2
  c00728:	0c005cc0 	call	c005cc <dbc_1st>
  c0072c:	10001126 	beq	r2,zero,c00774 <tchar2uni+0x90>
  c00730:	e0bffc17 	ldw	r2,-16(fp)
  c00734:	10c00044 	addi	r3,r2,1
  c00738:	e0fffc15 	stw	r3,-16(fp)
  c0073c:	10800003 	ldbu	r2,0(r2)
  c00740:	e0bffd85 	stb	r2,-10(fp)
  c00744:	e0bffd83 	ldbu	r2,-10(fp)
  c00748:	1009883a 	mov	r4,r2
  c0074c:	0c006440 	call	c00644 <dbc_2nd>
  c00750:	1000021e 	bne	r2,zero,c0075c <tchar2uni+0x78>
  c00754:	00bfffc4 	movi	r2,-1
  c00758:	00001706 	br	c007b8 <tchar2uni+0xd4>
  c0075c:	e0bffd0b 	ldhu	r2,-12(fp)
  c00760:	1004923a 	slli	r2,r2,8
  c00764:	1007883a 	mov	r3,r2
  c00768:	e0bffd83 	ldbu	r2,-10(fp)
  c0076c:	1885883a 	add	r2,r3,r2
  c00770:	e0bffd0d 	sth	r2,-12(fp)
  c00774:	e0bffd0b 	ldhu	r2,-12(fp)
  c00778:	10000926 	beq	r2,zero,c007a0 <tchar2uni+0xbc>
  c0077c:	e0bffd0b 	ldhu	r2,-12(fp)
  c00780:	0140e904 	movi	r5,932
  c00784:	1009883a 	mov	r4,r2
  c00788:	0c060640 	call	c06064 <ff_oem2uni>
  c0078c:	e0bffd0d 	sth	r2,-12(fp)
  c00790:	e0bffd0b 	ldhu	r2,-12(fp)
  c00794:	1000021e 	bne	r2,zero,c007a0 <tchar2uni+0xbc>
  c00798:	00bfffc4 	movi	r2,-1
  c0079c:	00000606 	br	c007b8 <tchar2uni+0xd4>
  c007a0:	e0bffd0b 	ldhu	r2,-12(fp)
  c007a4:	e0bffe15 	stw	r2,-8(fp)
  c007a8:	e0bfff17 	ldw	r2,-4(fp)
  c007ac:	e0fffc17 	ldw	r3,-16(fp)
  c007b0:	10c00015 	stw	r3,0(r2)
  c007b4:	e0bffe17 	ldw	r2,-8(fp)
  c007b8:	e037883a 	mov	sp,fp
  c007bc:	dfc00117 	ldw	ra,4(sp)
  c007c0:	df000017 	ldw	fp,0(sp)
  c007c4:	dec00204 	addi	sp,sp,8
  c007c8:	f800283a 	ret

00c007cc <put_utf>:
  c007cc:	defffa04 	addi	sp,sp,-24
  c007d0:	dfc00515 	stw	ra,20(sp)
  c007d4:	df000415 	stw	fp,16(sp)
  c007d8:	df000404 	addi	fp,sp,16
  c007dc:	e13ffd15 	stw	r4,-12(fp)
  c007e0:	e17ffe15 	stw	r5,-8(fp)
  c007e4:	e1bfff15 	stw	r6,-4(fp)
  c007e8:	0140e904 	movi	r5,932
  c007ec:	e13ffd17 	ldw	r4,-12(fp)
  c007f0:	0c05f100 	call	c05f10 <ff_uni2oem>
  c007f4:	e0bffc0d 	sth	r2,-16(fp)
  c007f8:	e0bffc0b 	ldhu	r2,-16(fp)
  c007fc:	10804030 	cmpltui	r2,r2,256
  c00800:	1000121e 	bne	r2,zero,c0084c <put_utf+0x80>
  c00804:	e0bfff17 	ldw	r2,-4(fp)
  c00808:	108000a8 	cmpgeui	r2,r2,2
  c0080c:	1000021e 	bne	r2,zero,c00818 <put_utf+0x4c>
  c00810:	0005883a 	mov	r2,zero
  c00814:	00001906 	br	c0087c <put_utf+0xb0>
  c00818:	e0bffe17 	ldw	r2,-8(fp)
  c0081c:	10c00044 	addi	r3,r2,1
  c00820:	e0fffe15 	stw	r3,-8(fp)
  c00824:	e0fffc0b 	ldhu	r3,-16(fp)
  c00828:	1806d23a 	srli	r3,r3,8
  c0082c:	10c00005 	stb	r3,0(r2)
  c00830:	e0bffe17 	ldw	r2,-8(fp)
  c00834:	10c00044 	addi	r3,r2,1
  c00838:	e0fffe15 	stw	r3,-8(fp)
  c0083c:	e0fffc0b 	ldhu	r3,-16(fp)
  c00840:	10c00005 	stb	r3,0(r2)
  c00844:	00800084 	movi	r2,2
  c00848:	00000c06 	br	c0087c <put_utf+0xb0>
  c0084c:	e0bffc0b 	ldhu	r2,-16(fp)
  c00850:	10000226 	beq	r2,zero,c0085c <put_utf+0x90>
  c00854:	e0bfff17 	ldw	r2,-4(fp)
  c00858:	1000021e 	bne	r2,zero,c00864 <put_utf+0x98>
  c0085c:	0005883a 	mov	r2,zero
  c00860:	00000606 	br	c0087c <put_utf+0xb0>
  c00864:	e0bffe17 	ldw	r2,-8(fp)
  c00868:	10c00044 	addi	r3,r2,1
  c0086c:	e0fffe15 	stw	r3,-8(fp)
  c00870:	e0fffc0b 	ldhu	r3,-16(fp)
  c00874:	10c00005 	stb	r3,0(r2)
  c00878:	00800044 	movi	r2,1
  c0087c:	e037883a 	mov	sp,fp
  c00880:	dfc00117 	ldw	ra,4(sp)
  c00884:	df000017 	ldw	fp,0(sp)
  c00888:	dec00204 	addi	sp,sp,8
  c0088c:	f800283a 	ret

00c00890 <sync_window>:
  c00890:	defffc04 	addi	sp,sp,-16
  c00894:	dfc00315 	stw	ra,12(sp)
  c00898:	df000215 	stw	fp,8(sp)
  c0089c:	df000204 	addi	fp,sp,8
  c008a0:	e13fff15 	stw	r4,-4(fp)
  c008a4:	e03ffe15 	stw	zero,-8(fp)
  c008a8:	e0bfff17 	ldw	r2,-4(fp)
  c008ac:	10800103 	ldbu	r2,4(r2)
  c008b0:	10803fcc 	andi	r2,r2,255
  c008b4:	10002c26 	beq	r2,zero,c00968 <sync_window+0xd8>
  c008b8:	e0bfff17 	ldw	r2,-4(fp)
  c008bc:	10800043 	ldbu	r2,1(r2)
  c008c0:	10c03fcc 	andi	r3,r2,255
  c008c4:	e0bfff17 	ldw	r2,-4(fp)
  c008c8:	11000d04 	addi	r4,r2,52
  c008cc:	e0bfff17 	ldw	r2,-4(fp)
  c008d0:	10800c17 	ldw	r2,48(r2)
  c008d4:	01c00044 	movi	r7,1
  c008d8:	100d883a 	mov	r6,r2
  c008dc:	200b883a 	mov	r5,r4
  c008e0:	1809883a 	mov	r4,r3
  c008e4:	0c003540 	call	c00354 <disk_write>
  c008e8:	10001d1e 	bne	r2,zero,c00960 <sync_window+0xd0>
  c008ec:	e0bfff17 	ldw	r2,-4(fp)
  c008f0:	10000105 	stb	zero,4(r2)
  c008f4:	e0bfff17 	ldw	r2,-4(fp)
  c008f8:	10c00c17 	ldw	r3,48(r2)
  c008fc:	e0bfff17 	ldw	r2,-4(fp)
  c00900:	10800917 	ldw	r2,36(r2)
  c00904:	1887c83a 	sub	r3,r3,r2
  c00908:	e0bfff17 	ldw	r2,-4(fp)
  c0090c:	10800717 	ldw	r2,28(r2)
  c00910:	1880152e 	bgeu	r3,r2,c00968 <sync_window+0xd8>
  c00914:	e0bfff17 	ldw	r2,-4(fp)
  c00918:	108000c3 	ldbu	r2,3(r2)
  c0091c:	10803fcc 	andi	r2,r2,255
  c00920:	10800098 	cmpnei	r2,r2,2
  c00924:	1000101e 	bne	r2,zero,c00968 <sync_window+0xd8>
  c00928:	e0bfff17 	ldw	r2,-4(fp)
  c0092c:	10800043 	ldbu	r2,1(r2)
  c00930:	11003fcc 	andi	r4,r2,255
  c00934:	e0bfff17 	ldw	r2,-4(fp)
  c00938:	11400d04 	addi	r5,r2,52
  c0093c:	e0bfff17 	ldw	r2,-4(fp)
  c00940:	10c00c17 	ldw	r3,48(r2)
  c00944:	e0bfff17 	ldw	r2,-4(fp)
  c00948:	10800717 	ldw	r2,28(r2)
  c0094c:	1885883a 	add	r2,r3,r2
  c00950:	01c00044 	movi	r7,1
  c00954:	100d883a 	mov	r6,r2
  c00958:	0c003540 	call	c00354 <disk_write>
  c0095c:	00000206 	br	c00968 <sync_window+0xd8>
  c00960:	00800044 	movi	r2,1
  c00964:	e0bffe15 	stw	r2,-8(fp)
  c00968:	e0bffe17 	ldw	r2,-8(fp)
  c0096c:	e037883a 	mov	sp,fp
  c00970:	dfc00117 	ldw	ra,4(sp)
  c00974:	df000017 	ldw	fp,0(sp)
  c00978:	dec00204 	addi	sp,sp,8
  c0097c:	f800283a 	ret

00c00980 <move_window>:
  c00980:	defffb04 	addi	sp,sp,-20
  c00984:	dfc00415 	stw	ra,16(sp)
  c00988:	df000315 	stw	fp,12(sp)
  c0098c:	df000304 	addi	fp,sp,12
  c00990:	e13ffe15 	stw	r4,-8(fp)
  c00994:	e17fff15 	stw	r5,-4(fp)
  c00998:	e03ffd15 	stw	zero,-12(fp)
  c0099c:	e0bffe17 	ldw	r2,-8(fp)
  c009a0:	10c00c17 	ldw	r3,48(r2)
  c009a4:	e0bfff17 	ldw	r2,-4(fp)
  c009a8:	18801726 	beq	r3,r2,c00a08 <move_window+0x88>
  c009ac:	e13ffe17 	ldw	r4,-8(fp)
  c009b0:	0c008900 	call	c00890 <sync_window>
  c009b4:	e0bffd15 	stw	r2,-12(fp)
  c009b8:	e0bffd17 	ldw	r2,-12(fp)
  c009bc:	1000121e 	bne	r2,zero,c00a08 <move_window+0x88>
  c009c0:	e0bffe17 	ldw	r2,-8(fp)
  c009c4:	10800043 	ldbu	r2,1(r2)
  c009c8:	10c03fcc 	andi	r3,r2,255
  c009cc:	e0bffe17 	ldw	r2,-8(fp)
  c009d0:	10800d04 	addi	r2,r2,52
  c009d4:	01c00044 	movi	r7,1
  c009d8:	e1bfff17 	ldw	r6,-4(fp)
  c009dc:	100b883a 	mov	r5,r2
  c009e0:	1809883a 	mov	r4,r3
  c009e4:	0c003040 	call	c00304 <disk_read>
  c009e8:	10000426 	beq	r2,zero,c009fc <move_window+0x7c>
  c009ec:	00bfffc4 	movi	r2,-1
  c009f0:	e0bfff15 	stw	r2,-4(fp)
  c009f4:	00800044 	movi	r2,1
  c009f8:	e0bffd15 	stw	r2,-12(fp)
  c009fc:	e0bffe17 	ldw	r2,-8(fp)
  c00a00:	e0ffff17 	ldw	r3,-4(fp)
  c00a04:	10c00c15 	stw	r3,48(r2)
  c00a08:	e0bffd17 	ldw	r2,-12(fp)
  c00a0c:	e037883a 	mov	sp,fp
  c00a10:	dfc00117 	ldw	ra,4(sp)
  c00a14:	df000017 	ldw	fp,0(sp)
  c00a18:	dec00204 	addi	sp,sp,8
  c00a1c:	f800283a 	ret

00c00a20 <sync_fs>:
  c00a20:	defffc04 	addi	sp,sp,-16
  c00a24:	dfc00315 	stw	ra,12(sp)
  c00a28:	df000215 	stw	fp,8(sp)
  c00a2c:	df000204 	addi	fp,sp,8
  c00a30:	e13fff15 	stw	r4,-4(fp)
  c00a34:	e13fff17 	ldw	r4,-4(fp)
  c00a38:	0c008900 	call	c00890 <sync_window>
  c00a3c:	e0bffe15 	stw	r2,-8(fp)
  c00a40:	e0bffe17 	ldw	r2,-8(fp)
  c00a44:	1000501e 	bne	r2,zero,c00b88 <sync_fs+0x168>
  c00a48:	e0bfff17 	ldw	r2,-4(fp)
  c00a4c:	10800003 	ldbu	r2,0(r2)
  c00a50:	10803fcc 	andi	r2,r2,255
  c00a54:	108000d8 	cmpnei	r2,r2,3
  c00a58:	1000411e 	bne	r2,zero,c00b60 <sync_fs+0x140>
  c00a5c:	e0bfff17 	ldw	r2,-4(fp)
  c00a60:	10800143 	ldbu	r2,5(r2)
  c00a64:	10803fcc 	andi	r2,r2,255
  c00a68:	10800058 	cmpnei	r2,r2,1
  c00a6c:	10003c1e 	bne	r2,zero,c00b60 <sync_fs+0x140>
  c00a70:	e0bfff17 	ldw	r2,-4(fp)
  c00a74:	10800d04 	addi	r2,r2,52
  c00a78:	01808004 	movi	r6,512
  c00a7c:	000b883a 	mov	r5,zero
  c00a80:	1009883a 	mov	r4,r2
  c00a84:	0c10d400 	call	c10d40 <memset>
  c00a88:	e0bfff17 	ldw	r2,-4(fp)
  c00a8c:	10800d04 	addi	r2,r2,52
  c00a90:	10807f84 	addi	r2,r2,510
  c00a94:	016a9554 	movui	r5,43605
  c00a98:	1009883a 	mov	r4,r2
  c00a9c:	0c004d00 	call	c004d0 <st_word>
  c00aa0:	e0bfff17 	ldw	r2,-4(fp)
  c00aa4:	10800d04 	addi	r2,r2,52
  c00aa8:	01505874 	movhi	r5,16737
  c00aac:	29549484 	addi	r5,r5,21074
  c00ab0:	1009883a 	mov	r4,r2
  c00ab4:	0c005300 	call	c00530 <st_dword>
  c00ab8:	e0bfff17 	ldw	r2,-4(fp)
  c00abc:	10800d04 	addi	r2,r2,52
  c00ac0:	10807904 	addi	r2,r2,484
  c00ac4:	01585074 	movhi	r5,24897
  c00ac8:	295c9c84 	addi	r5,r5,29298
  c00acc:	1009883a 	mov	r4,r2
  c00ad0:	0c005300 	call	c00530 <st_dword>
  c00ad4:	e0bfff17 	ldw	r2,-4(fp)
  c00ad8:	10800d04 	addi	r2,r2,52
  c00adc:	10c07a04 	addi	r3,r2,488
  c00ae0:	e0bfff17 	ldw	r2,-4(fp)
  c00ae4:	10800517 	ldw	r2,20(r2)
  c00ae8:	100b883a 	mov	r5,r2
  c00aec:	1809883a 	mov	r4,r3
  c00af0:	0c005300 	call	c00530 <st_dword>
  c00af4:	e0bfff17 	ldw	r2,-4(fp)
  c00af8:	10800d04 	addi	r2,r2,52
  c00afc:	10c07b04 	addi	r3,r2,492
  c00b00:	e0bfff17 	ldw	r2,-4(fp)
  c00b04:	10800417 	ldw	r2,16(r2)
  c00b08:	100b883a 	mov	r5,r2
  c00b0c:	1809883a 	mov	r4,r3
  c00b10:	0c005300 	call	c00530 <st_dword>
  c00b14:	e0bfff17 	ldw	r2,-4(fp)
  c00b18:	10800817 	ldw	r2,32(r2)
  c00b1c:	10c00044 	addi	r3,r2,1
  c00b20:	e0bfff17 	ldw	r2,-4(fp)
  c00b24:	10c00c15 	stw	r3,48(r2)
  c00b28:	e0bfff17 	ldw	r2,-4(fp)
  c00b2c:	10800043 	ldbu	r2,1(r2)
  c00b30:	10c03fcc 	andi	r3,r2,255
  c00b34:	e0bfff17 	ldw	r2,-4(fp)
  c00b38:	11000d04 	addi	r4,r2,52
  c00b3c:	e0bfff17 	ldw	r2,-4(fp)
  c00b40:	10800c17 	ldw	r2,48(r2)
  c00b44:	01c00044 	movi	r7,1
  c00b48:	100d883a 	mov	r6,r2
  c00b4c:	200b883a 	mov	r5,r4
  c00b50:	1809883a 	mov	r4,r3
  c00b54:	0c003540 	call	c00354 <disk_write>
  c00b58:	e0bfff17 	ldw	r2,-4(fp)
  c00b5c:	10000145 	stb	zero,5(r2)
  c00b60:	e0bfff17 	ldw	r2,-4(fp)
  c00b64:	10800043 	ldbu	r2,1(r2)
  c00b68:	10803fcc 	andi	r2,r2,255
  c00b6c:	000d883a 	mov	r6,zero
  c00b70:	000b883a 	mov	r5,zero
  c00b74:	1009883a 	mov	r4,r2
  c00b78:	0c0039c0 	call	c0039c <disk_ioctl>
  c00b7c:	10000226 	beq	r2,zero,c00b88 <sync_fs+0x168>
  c00b80:	00800044 	movi	r2,1
  c00b84:	e0bffe15 	stw	r2,-8(fp)
  c00b88:	e0bffe17 	ldw	r2,-8(fp)
  c00b8c:	e037883a 	mov	sp,fp
  c00b90:	dfc00117 	ldw	ra,4(sp)
  c00b94:	df000017 	ldw	fp,0(sp)
  c00b98:	dec00204 	addi	sp,sp,8
  c00b9c:	f800283a 	ret

00c00ba0 <clst2sect>:
  c00ba0:	defffb04 	addi	sp,sp,-20
  c00ba4:	dfc00415 	stw	ra,16(sp)
  c00ba8:	df000315 	stw	fp,12(sp)
  c00bac:	dc000215 	stw	r16,8(sp)
  c00bb0:	df000304 	addi	fp,sp,12
  c00bb4:	e13ffd15 	stw	r4,-12(fp)
  c00bb8:	e17ffe15 	stw	r5,-8(fp)
  c00bbc:	e0bffe17 	ldw	r2,-8(fp)
  c00bc0:	10bfff84 	addi	r2,r2,-2
  c00bc4:	e0bffe15 	stw	r2,-8(fp)
  c00bc8:	e0bffd17 	ldw	r2,-12(fp)
  c00bcc:	10800617 	ldw	r2,24(r2)
  c00bd0:	10bfff84 	addi	r2,r2,-2
  c00bd4:	e0fffe17 	ldw	r3,-8(fp)
  c00bd8:	18800236 	bltu	r3,r2,c00be4 <clst2sect+0x44>
  c00bdc:	0005883a 	mov	r2,zero
  c00be0:	00000906 	br	c00c08 <clst2sect+0x68>
  c00be4:	e0bffd17 	ldw	r2,-12(fp)
  c00be8:	14000b17 	ldw	r16,44(r2)
  c00bec:	e0bffd17 	ldw	r2,-12(fp)
  c00bf0:	1080028b 	ldhu	r2,10(r2)
  c00bf4:	10bfffcc 	andi	r2,r2,65535
  c00bf8:	e17ffe17 	ldw	r5,-8(fp)
  c00bfc:	1009883a 	mov	r4,r2
  c00c00:	0c0e2fc0 	call	c0e2fc <__mulsi3>
  c00c04:	8085883a 	add	r2,r16,r2
  c00c08:	e6ffff04 	addi	sp,fp,-4
  c00c0c:	dfc00217 	ldw	ra,8(sp)
  c00c10:	df000117 	ldw	fp,4(sp)
  c00c14:	dc000017 	ldw	r16,0(sp)
  c00c18:	dec00304 	addi	sp,sp,12
  c00c1c:	f800283a 	ret

00c00c20 <get_fat>:
  c00c20:	defff804 	addi	sp,sp,-32
  c00c24:	dfc00715 	stw	ra,28(sp)
  c00c28:	df000615 	stw	fp,24(sp)
  c00c2c:	df000604 	addi	fp,sp,24
  c00c30:	e13ffe15 	stw	r4,-8(fp)
  c00c34:	e17fff15 	stw	r5,-4(fp)
  c00c38:	e0bffe17 	ldw	r2,-8(fp)
  c00c3c:	10800017 	ldw	r2,0(r2)
  c00c40:	e0bffb15 	stw	r2,-20(fp)
  c00c44:	e0bfff17 	ldw	r2,-4(fp)
  c00c48:	108000b0 	cmpltui	r2,r2,2
  c00c4c:	1000041e 	bne	r2,zero,c00c60 <get_fat+0x40>
  c00c50:	e0bffb17 	ldw	r2,-20(fp)
  c00c54:	10800617 	ldw	r2,24(r2)
  c00c58:	e0ffff17 	ldw	r3,-4(fp)
  c00c5c:	18800336 	bltu	r3,r2,c00c6c <get_fat+0x4c>
  c00c60:	00800044 	movi	r2,1
  c00c64:	e0bffa15 	stw	r2,-24(fp)
  c00c68:	00007a06 	br	c00e54 <get_fat+0x234>
  c00c6c:	00bfffc4 	movi	r2,-1
  c00c70:	e0bffa15 	stw	r2,-24(fp)
  c00c74:	e0bffb17 	ldw	r2,-20(fp)
  c00c78:	10800003 	ldbu	r2,0(r2)
  c00c7c:	10803fcc 	andi	r2,r2,255
  c00c80:	10c000a0 	cmpeqi	r3,r2,2
  c00c84:	18003d1e 	bne	r3,zero,c00d7c <get_fat+0x15c>
  c00c88:	10c000e0 	cmpeqi	r3,r2,3
  c00c8c:	18004f1e 	bne	r3,zero,c00dcc <get_fat+0x1ac>
  c00c90:	10800060 	cmpeqi	r2,r2,1
  c00c94:	10006526 	beq	r2,zero,c00e2c <get_fat+0x20c>
  c00c98:	e0bfff17 	ldw	r2,-4(fp)
  c00c9c:	e0bffc15 	stw	r2,-16(fp)
  c00ca0:	e0bffc17 	ldw	r2,-16(fp)
  c00ca4:	1004d07a 	srli	r2,r2,1
  c00ca8:	e0fffc17 	ldw	r3,-16(fp)
  c00cac:	1885883a 	add	r2,r3,r2
  c00cb0:	e0bffc15 	stw	r2,-16(fp)
  c00cb4:	e0bffb17 	ldw	r2,-20(fp)
  c00cb8:	10c00917 	ldw	r3,36(r2)
  c00cbc:	e0bffc17 	ldw	r2,-16(fp)
  c00cc0:	1004d27a 	srli	r2,r2,9
  c00cc4:	1885883a 	add	r2,r3,r2
  c00cc8:	100b883a 	mov	r5,r2
  c00ccc:	e13ffb17 	ldw	r4,-20(fp)
  c00cd0:	0c009800 	call	c00980 <move_window>
  c00cd4:	1000581e 	bne	r2,zero,c00e38 <get_fat+0x218>
  c00cd8:	e0bffc17 	ldw	r2,-16(fp)
  c00cdc:	10c00044 	addi	r3,r2,1
  c00ce0:	e0fffc15 	stw	r3,-16(fp)
  c00ce4:	10807fcc 	andi	r2,r2,511
  c00ce8:	e0fffb17 	ldw	r3,-20(fp)
  c00cec:	1885883a 	add	r2,r3,r2
  c00cf0:	10800d04 	addi	r2,r2,52
  c00cf4:	10800003 	ldbu	r2,0(r2)
  c00cf8:	10803fcc 	andi	r2,r2,255
  c00cfc:	e0bffd15 	stw	r2,-12(fp)
  c00d00:	e0bffb17 	ldw	r2,-20(fp)
  c00d04:	10c00917 	ldw	r3,36(r2)
  c00d08:	e0bffc17 	ldw	r2,-16(fp)
  c00d0c:	1004d27a 	srli	r2,r2,9
  c00d10:	1885883a 	add	r2,r3,r2
  c00d14:	100b883a 	mov	r5,r2
  c00d18:	e13ffb17 	ldw	r4,-20(fp)
  c00d1c:	0c009800 	call	c00980 <move_window>
  c00d20:	1000471e 	bne	r2,zero,c00e40 <get_fat+0x220>
  c00d24:	e0bffc17 	ldw	r2,-16(fp)
  c00d28:	10807fcc 	andi	r2,r2,511
  c00d2c:	e0fffb17 	ldw	r3,-20(fp)
  c00d30:	1885883a 	add	r2,r3,r2
  c00d34:	10800d04 	addi	r2,r2,52
  c00d38:	10800003 	ldbu	r2,0(r2)
  c00d3c:	10803fcc 	andi	r2,r2,255
  c00d40:	1004923a 	slli	r2,r2,8
  c00d44:	1007883a 	mov	r3,r2
  c00d48:	e0bffd17 	ldw	r2,-12(fp)
  c00d4c:	10c4b03a 	or	r2,r2,r3
  c00d50:	e0bffd15 	stw	r2,-12(fp)
  c00d54:	e0bfff17 	ldw	r2,-4(fp)
  c00d58:	1080004c 	andi	r2,r2,1
  c00d5c:	10000326 	beq	r2,zero,c00d6c <get_fat+0x14c>
  c00d60:	e0bffd17 	ldw	r2,-12(fp)
  c00d64:	1004d13a 	srli	r2,r2,4
  c00d68:	00000206 	br	c00d74 <get_fat+0x154>
  c00d6c:	e0bffd17 	ldw	r2,-12(fp)
  c00d70:	1083ffcc 	andi	r2,r2,4095
  c00d74:	e0bffa15 	stw	r2,-24(fp)
  c00d78:	00003606 	br	c00e54 <get_fat+0x234>
  c00d7c:	e0bffb17 	ldw	r2,-20(fp)
  c00d80:	10c00917 	ldw	r3,36(r2)
  c00d84:	e0bfff17 	ldw	r2,-4(fp)
  c00d88:	1004d23a 	srli	r2,r2,8
  c00d8c:	1885883a 	add	r2,r3,r2
  c00d90:	100b883a 	mov	r5,r2
  c00d94:	e13ffb17 	ldw	r4,-20(fp)
  c00d98:	0c009800 	call	c00980 <move_window>
  c00d9c:	10002a1e 	bne	r2,zero,c00e48 <get_fat+0x228>
  c00da0:	e0bffb17 	ldw	r2,-20(fp)
  c00da4:	10c00d04 	addi	r3,r2,52
  c00da8:	e0bfff17 	ldw	r2,-4(fp)
  c00dac:	1085883a 	add	r2,r2,r2
  c00db0:	10807f8c 	andi	r2,r2,510
  c00db4:	1885883a 	add	r2,r3,r2
  c00db8:	1009883a 	mov	r4,r2
  c00dbc:	0c003e40 	call	c003e4 <ld_word>
  c00dc0:	10bfffcc 	andi	r2,r2,65535
  c00dc4:	e0bffa15 	stw	r2,-24(fp)
  c00dc8:	00002206 	br	c00e54 <get_fat+0x234>
  c00dcc:	e0bffb17 	ldw	r2,-20(fp)
  c00dd0:	10c00917 	ldw	r3,36(r2)
  c00dd4:	e0bfff17 	ldw	r2,-4(fp)
  c00dd8:	1004d1fa 	srli	r2,r2,7
  c00ddc:	1885883a 	add	r2,r3,r2
  c00de0:	100b883a 	mov	r5,r2
  c00de4:	e13ffb17 	ldw	r4,-20(fp)
  c00de8:	0c009800 	call	c00980 <move_window>
  c00dec:	1000181e 	bne	r2,zero,c00e50 <get_fat+0x230>
  c00df0:	e0bffb17 	ldw	r2,-20(fp)
  c00df4:	10c00d04 	addi	r3,r2,52
  c00df8:	e0bfff17 	ldw	r2,-4(fp)
  c00dfc:	1085883a 	add	r2,r2,r2
  c00e00:	1085883a 	add	r2,r2,r2
  c00e04:	10807f0c 	andi	r2,r2,508
  c00e08:	1885883a 	add	r2,r3,r2
  c00e0c:	1009883a 	mov	r4,r2
  c00e10:	0c0043c0 	call	c0043c <ld_dword>
  c00e14:	1007883a 	mov	r3,r2
  c00e18:	00840034 	movhi	r2,4096
  c00e1c:	10bfffc4 	addi	r2,r2,-1
  c00e20:	1884703a 	and	r2,r3,r2
  c00e24:	e0bffa15 	stw	r2,-24(fp)
  c00e28:	00000a06 	br	c00e54 <get_fat+0x234>
  c00e2c:	00800044 	movi	r2,1
  c00e30:	e0bffa15 	stw	r2,-24(fp)
  c00e34:	00000706 	br	c00e54 <get_fat+0x234>
  c00e38:	0001883a 	nop
  c00e3c:	00000506 	br	c00e54 <get_fat+0x234>
  c00e40:	0001883a 	nop
  c00e44:	00000306 	br	c00e54 <get_fat+0x234>
  c00e48:	0001883a 	nop
  c00e4c:	00000106 	br	c00e54 <get_fat+0x234>
  c00e50:	0001883a 	nop
  c00e54:	e0bffa17 	ldw	r2,-24(fp)
  c00e58:	e037883a 	mov	sp,fp
  c00e5c:	dfc00117 	ldw	ra,4(sp)
  c00e60:	df000017 	ldw	fp,0(sp)
  c00e64:	dec00204 	addi	sp,sp,8
  c00e68:	f800283a 	ret

00c00e6c <put_fat>:
  c00e6c:	defff704 	addi	sp,sp,-36
  c00e70:	dfc00815 	stw	ra,32(sp)
  c00e74:	df000715 	stw	fp,28(sp)
  c00e78:	dc000615 	stw	r16,24(sp)
  c00e7c:	df000704 	addi	fp,sp,28
  c00e80:	e13ffc15 	stw	r4,-16(fp)
  c00e84:	e17ffd15 	stw	r5,-12(fp)
  c00e88:	e1bffe15 	stw	r6,-8(fp)
  c00e8c:	00800084 	movi	r2,2
  c00e90:	e0bff915 	stw	r2,-28(fp)
  c00e94:	e0bffd17 	ldw	r2,-12(fp)
  c00e98:	108000b0 	cmpltui	r2,r2,2
  c00e9c:	1000ae1e 	bne	r2,zero,c01158 <put_fat+0x2ec>
  c00ea0:	e0bffc17 	ldw	r2,-16(fp)
  c00ea4:	10800617 	ldw	r2,24(r2)
  c00ea8:	e0fffd17 	ldw	r3,-12(fp)
  c00eac:	1880aa2e 	bgeu	r3,r2,c01158 <put_fat+0x2ec>
  c00eb0:	e0bffc17 	ldw	r2,-16(fp)
  c00eb4:	10800003 	ldbu	r2,0(r2)
  c00eb8:	10803fcc 	andi	r2,r2,255
  c00ebc:	10c000a0 	cmpeqi	r3,r2,2
  c00ec0:	18005b1e 	bne	r3,zero,c01030 <put_fat+0x1c4>
  c00ec4:	10c000e0 	cmpeqi	r3,r2,3
  c00ec8:	1800731e 	bne	r3,zero,c01098 <put_fat+0x22c>
  c00ecc:	10800060 	cmpeqi	r2,r2,1
  c00ed0:	1000a126 	beq	r2,zero,c01158 <put_fat+0x2ec>
  c00ed4:	e0bffd17 	ldw	r2,-12(fp)
  c00ed8:	e0bffa15 	stw	r2,-24(fp)
  c00edc:	e0bffa17 	ldw	r2,-24(fp)
  c00ee0:	1004d07a 	srli	r2,r2,1
  c00ee4:	e0fffa17 	ldw	r3,-24(fp)
  c00ee8:	1885883a 	add	r2,r3,r2
  c00eec:	e0bffa15 	stw	r2,-24(fp)
  c00ef0:	e0bffc17 	ldw	r2,-16(fp)
  c00ef4:	10c00917 	ldw	r3,36(r2)
  c00ef8:	e0bffa17 	ldw	r2,-24(fp)
  c00efc:	1004d27a 	srli	r2,r2,9
  c00f00:	1885883a 	add	r2,r3,r2
  c00f04:	100b883a 	mov	r5,r2
  c00f08:	e13ffc17 	ldw	r4,-16(fp)
  c00f0c:	0c009800 	call	c00980 <move_window>
  c00f10:	e0bff915 	stw	r2,-28(fp)
  c00f14:	e0bff917 	ldw	r2,-28(fp)
  c00f18:	1000881e 	bne	r2,zero,c0113c <put_fat+0x2d0>
  c00f1c:	e0bffc17 	ldw	r2,-16(fp)
  c00f20:	10c00d04 	addi	r3,r2,52
  c00f24:	e0bffa17 	ldw	r2,-24(fp)
  c00f28:	11000044 	addi	r4,r2,1
  c00f2c:	e13ffa15 	stw	r4,-24(fp)
  c00f30:	10807fcc 	andi	r2,r2,511
  c00f34:	1885883a 	add	r2,r3,r2
  c00f38:	e0bffb15 	stw	r2,-20(fp)
  c00f3c:	e0bffd17 	ldw	r2,-12(fp)
  c00f40:	1080004c 	andi	r2,r2,1
  c00f44:	10000a26 	beq	r2,zero,c00f70 <put_fat+0x104>
  c00f48:	e0bffb17 	ldw	r2,-20(fp)
  c00f4c:	10800003 	ldbu	r2,0(r2)
  c00f50:	108003cc 	andi	r2,r2,15
  c00f54:	1007883a 	mov	r3,r2
  c00f58:	e0bffe17 	ldw	r2,-8(fp)
  c00f5c:	10803fcc 	andi	r2,r2,255
  c00f60:	1004913a 	slli	r2,r2,4
  c00f64:	1884b03a 	or	r2,r3,r2
  c00f68:	1007883a 	mov	r3,r2
  c00f6c:	00000206 	br	c00f78 <put_fat+0x10c>
  c00f70:	e0bffe17 	ldw	r2,-8(fp)
  c00f74:	1007883a 	mov	r3,r2
  c00f78:	e0bffb17 	ldw	r2,-20(fp)
  c00f7c:	10c00005 	stb	r3,0(r2)
  c00f80:	e0bffc17 	ldw	r2,-16(fp)
  c00f84:	00c00044 	movi	r3,1
  c00f88:	10c00105 	stb	r3,4(r2)
  c00f8c:	e0bffc17 	ldw	r2,-16(fp)
  c00f90:	10c00917 	ldw	r3,36(r2)
  c00f94:	e0bffa17 	ldw	r2,-24(fp)
  c00f98:	1004d27a 	srli	r2,r2,9
  c00f9c:	1885883a 	add	r2,r3,r2
  c00fa0:	100b883a 	mov	r5,r2
  c00fa4:	e13ffc17 	ldw	r4,-16(fp)
  c00fa8:	0c009800 	call	c00980 <move_window>
  c00fac:	e0bff915 	stw	r2,-28(fp)
  c00fb0:	e0bff917 	ldw	r2,-28(fp)
  c00fb4:	1000631e 	bne	r2,zero,c01144 <put_fat+0x2d8>
  c00fb8:	e0bffc17 	ldw	r2,-16(fp)
  c00fbc:	10c00d04 	addi	r3,r2,52
  c00fc0:	e0bffa17 	ldw	r2,-24(fp)
  c00fc4:	10807fcc 	andi	r2,r2,511
  c00fc8:	1885883a 	add	r2,r3,r2
  c00fcc:	e0bffb15 	stw	r2,-20(fp)
  c00fd0:	e0bffd17 	ldw	r2,-12(fp)
  c00fd4:	1080004c 	andi	r2,r2,1
  c00fd8:	10000426 	beq	r2,zero,c00fec <put_fat+0x180>
  c00fdc:	e0bffe17 	ldw	r2,-8(fp)
  c00fe0:	1004d13a 	srli	r2,r2,4
  c00fe4:	1007883a 	mov	r3,r2
  c00fe8:	00000b06 	br	c01018 <put_fat+0x1ac>
  c00fec:	e0bffb17 	ldw	r2,-20(fp)
  c00ff0:	10800003 	ldbu	r2,0(r2)
  c00ff4:	1007883a 	mov	r3,r2
  c00ff8:	00bffc04 	movi	r2,-16
  c00ffc:	1884703a 	and	r2,r3,r2
  c01000:	1007883a 	mov	r3,r2
  c01004:	e0bffe17 	ldw	r2,-8(fp)
  c01008:	1004d23a 	srli	r2,r2,8
  c0100c:	108003cc 	andi	r2,r2,15
  c01010:	1884b03a 	or	r2,r3,r2
  c01014:	1007883a 	mov	r3,r2
  c01018:	e0bffb17 	ldw	r2,-20(fp)
  c0101c:	10c00005 	stb	r3,0(r2)
  c01020:	e0bffc17 	ldw	r2,-16(fp)
  c01024:	00c00044 	movi	r3,1
  c01028:	10c00105 	stb	r3,4(r2)
  c0102c:	00004a06 	br	c01158 <put_fat+0x2ec>
  c01030:	e0bffc17 	ldw	r2,-16(fp)
  c01034:	10c00917 	ldw	r3,36(r2)
  c01038:	e0bffd17 	ldw	r2,-12(fp)
  c0103c:	1004d23a 	srli	r2,r2,8
  c01040:	1885883a 	add	r2,r3,r2
  c01044:	100b883a 	mov	r5,r2
  c01048:	e13ffc17 	ldw	r4,-16(fp)
  c0104c:	0c009800 	call	c00980 <move_window>
  c01050:	e0bff915 	stw	r2,-28(fp)
  c01054:	e0bff917 	ldw	r2,-28(fp)
  c01058:	10003c1e 	bne	r2,zero,c0114c <put_fat+0x2e0>
  c0105c:	e0bffc17 	ldw	r2,-16(fp)
  c01060:	10c00d04 	addi	r3,r2,52
  c01064:	e0bffd17 	ldw	r2,-12(fp)
  c01068:	1085883a 	add	r2,r2,r2
  c0106c:	10807f8c 	andi	r2,r2,510
  c01070:	1887883a 	add	r3,r3,r2
  c01074:	e0bffe17 	ldw	r2,-8(fp)
  c01078:	10bfffcc 	andi	r2,r2,65535
  c0107c:	100b883a 	mov	r5,r2
  c01080:	1809883a 	mov	r4,r3
  c01084:	0c004d00 	call	c004d0 <st_word>
  c01088:	e0bffc17 	ldw	r2,-16(fp)
  c0108c:	00c00044 	movi	r3,1
  c01090:	10c00105 	stb	r3,4(r2)
  c01094:	00003006 	br	c01158 <put_fat+0x2ec>
  c01098:	e0bffc17 	ldw	r2,-16(fp)
  c0109c:	10c00917 	ldw	r3,36(r2)
  c010a0:	e0bffd17 	ldw	r2,-12(fp)
  c010a4:	1004d1fa 	srli	r2,r2,7
  c010a8:	1885883a 	add	r2,r3,r2
  c010ac:	100b883a 	mov	r5,r2
  c010b0:	e13ffc17 	ldw	r4,-16(fp)
  c010b4:	0c009800 	call	c00980 <move_window>
  c010b8:	e0bff915 	stw	r2,-28(fp)
  c010bc:	e0bff917 	ldw	r2,-28(fp)
  c010c0:	1000241e 	bne	r2,zero,c01154 <put_fat+0x2e8>
  c010c4:	e0fffe17 	ldw	r3,-8(fp)
  c010c8:	00840034 	movhi	r2,4096
  c010cc:	10bfffc4 	addi	r2,r2,-1
  c010d0:	18a0703a 	and	r16,r3,r2
  c010d4:	e0bffc17 	ldw	r2,-16(fp)
  c010d8:	10c00d04 	addi	r3,r2,52
  c010dc:	e0bffd17 	ldw	r2,-12(fp)
  c010e0:	1085883a 	add	r2,r2,r2
  c010e4:	1085883a 	add	r2,r2,r2
  c010e8:	10807f0c 	andi	r2,r2,508
  c010ec:	1885883a 	add	r2,r3,r2
  c010f0:	1009883a 	mov	r4,r2
  c010f4:	0c0043c0 	call	c0043c <ld_dword>
  c010f8:	10bc002c 	andhi	r2,r2,61440
  c010fc:	8084b03a 	or	r2,r16,r2
  c01100:	e0bffe15 	stw	r2,-8(fp)
  c01104:	e0bffc17 	ldw	r2,-16(fp)
  c01108:	10c00d04 	addi	r3,r2,52
  c0110c:	e0bffd17 	ldw	r2,-12(fp)
  c01110:	1085883a 	add	r2,r2,r2
  c01114:	1085883a 	add	r2,r2,r2
  c01118:	10807f0c 	andi	r2,r2,508
  c0111c:	1885883a 	add	r2,r3,r2
  c01120:	e17ffe17 	ldw	r5,-8(fp)
  c01124:	1009883a 	mov	r4,r2
  c01128:	0c005300 	call	c00530 <st_dword>
  c0112c:	e0bffc17 	ldw	r2,-16(fp)
  c01130:	00c00044 	movi	r3,1
  c01134:	10c00105 	stb	r3,4(r2)
  c01138:	00000706 	br	c01158 <put_fat+0x2ec>
  c0113c:	0001883a 	nop
  c01140:	00000506 	br	c01158 <put_fat+0x2ec>
  c01144:	0001883a 	nop
  c01148:	00000306 	br	c01158 <put_fat+0x2ec>
  c0114c:	0001883a 	nop
  c01150:	00000106 	br	c01158 <put_fat+0x2ec>
  c01154:	0001883a 	nop
  c01158:	e0bff917 	ldw	r2,-28(fp)
  c0115c:	e6ffff04 	addi	sp,fp,-4
  c01160:	dfc00217 	ldw	ra,8(sp)
  c01164:	df000117 	ldw	fp,4(sp)
  c01168:	dc000017 	ldw	r16,0(sp)
  c0116c:	dec00304 	addi	sp,sp,12
  c01170:	f800283a 	ret

00c01174 <remove_chain>:
  c01174:	defff804 	addi	sp,sp,-32
  c01178:	dfc00715 	stw	ra,28(sp)
  c0117c:	df000615 	stw	fp,24(sp)
  c01180:	df000604 	addi	fp,sp,24
  c01184:	e13ffd15 	stw	r4,-12(fp)
  c01188:	e17ffe15 	stw	r5,-8(fp)
  c0118c:	e1bfff15 	stw	r6,-4(fp)
  c01190:	e03ffa15 	stw	zero,-24(fp)
  c01194:	e0bffd17 	ldw	r2,-12(fp)
  c01198:	10800017 	ldw	r2,0(r2)
  c0119c:	e0bffb15 	stw	r2,-20(fp)
  c011a0:	e0bffe17 	ldw	r2,-8(fp)
  c011a4:	108000b0 	cmpltui	r2,r2,2
  c011a8:	1000041e 	bne	r2,zero,c011bc <remove_chain+0x48>
  c011ac:	e0bffb17 	ldw	r2,-20(fp)
  c011b0:	10800617 	ldw	r2,24(r2)
  c011b4:	e0fffe17 	ldw	r3,-8(fp)
  c011b8:	18800236 	bltu	r3,r2,c011c4 <remove_chain+0x50>
  c011bc:	00800084 	movi	r2,2
  c011c0:	00003e06 	br	c012bc <remove_chain+0x148>
  c011c4:	e0bfff17 	ldw	r2,-4(fp)
  c011c8:	10000926 	beq	r2,zero,c011f0 <remove_chain+0x7c>
  c011cc:	01bfffc4 	movi	r6,-1
  c011d0:	e17fff17 	ldw	r5,-4(fp)
  c011d4:	e13ffb17 	ldw	r4,-20(fp)
  c011d8:	0c00e6c0 	call	c00e6c <put_fat>
  c011dc:	e0bffa15 	stw	r2,-24(fp)
  c011e0:	e0bffa17 	ldw	r2,-24(fp)
  c011e4:	10000226 	beq	r2,zero,c011f0 <remove_chain+0x7c>
  c011e8:	e0bffa17 	ldw	r2,-24(fp)
  c011ec:	00003306 	br	c012bc <remove_chain+0x148>
  c011f0:	e17ffe17 	ldw	r5,-8(fp)
  c011f4:	e13ffd17 	ldw	r4,-12(fp)
  c011f8:	0c00c200 	call	c00c20 <get_fat>
  c011fc:	e0bffc15 	stw	r2,-16(fp)
  c01200:	e0bffc17 	ldw	r2,-16(fp)
  c01204:	10002b26 	beq	r2,zero,c012b4 <remove_chain+0x140>
  c01208:	e0bffc17 	ldw	r2,-16(fp)
  c0120c:	10800058 	cmpnei	r2,r2,1
  c01210:	1000021e 	bne	r2,zero,c0121c <remove_chain+0xa8>
  c01214:	00800084 	movi	r2,2
  c01218:	00002806 	br	c012bc <remove_chain+0x148>
  c0121c:	e0bffc17 	ldw	r2,-16(fp)
  c01220:	10bfffd8 	cmpnei	r2,r2,-1
  c01224:	1000021e 	bne	r2,zero,c01230 <remove_chain+0xbc>
  c01228:	00800044 	movi	r2,1
  c0122c:	00002306 	br	c012bc <remove_chain+0x148>
  c01230:	000d883a 	mov	r6,zero
  c01234:	e17ffe17 	ldw	r5,-8(fp)
  c01238:	e13ffb17 	ldw	r4,-20(fp)
  c0123c:	0c00e6c0 	call	c00e6c <put_fat>
  c01240:	e0bffa15 	stw	r2,-24(fp)
  c01244:	e0bffa17 	ldw	r2,-24(fp)
  c01248:	10000226 	beq	r2,zero,c01254 <remove_chain+0xe0>
  c0124c:	e0bffa17 	ldw	r2,-24(fp)
  c01250:	00001a06 	br	c012bc <remove_chain+0x148>
  c01254:	e0bffb17 	ldw	r2,-20(fp)
  c01258:	10c00517 	ldw	r3,20(r2)
  c0125c:	e0bffb17 	ldw	r2,-20(fp)
  c01260:	10800617 	ldw	r2,24(r2)
  c01264:	10bfff84 	addi	r2,r2,-2
  c01268:	18800b2e 	bgeu	r3,r2,c01298 <remove_chain+0x124>
  c0126c:	e0bffb17 	ldw	r2,-20(fp)
  c01270:	10800517 	ldw	r2,20(r2)
  c01274:	10c00044 	addi	r3,r2,1
  c01278:	e0bffb17 	ldw	r2,-20(fp)
  c0127c:	10c00515 	stw	r3,20(r2)
  c01280:	e0bffb17 	ldw	r2,-20(fp)
  c01284:	10800143 	ldbu	r2,5(r2)
  c01288:	10800054 	ori	r2,r2,1
  c0128c:	1007883a 	mov	r3,r2
  c01290:	e0bffb17 	ldw	r2,-20(fp)
  c01294:	10c00145 	stb	r3,5(r2)
  c01298:	e0bffc17 	ldw	r2,-16(fp)
  c0129c:	e0bffe15 	stw	r2,-8(fp)
  c012a0:	e0bffb17 	ldw	r2,-20(fp)
  c012a4:	10800617 	ldw	r2,24(r2)
  c012a8:	e0fffe17 	ldw	r3,-8(fp)
  c012ac:	18bfd036 	bltu	r3,r2,c011f0 <__alt_data_end+0xffb811f0>
  c012b0:	00000106 	br	c012b8 <remove_chain+0x144>
  c012b4:	0001883a 	nop
  c012b8:	0005883a 	mov	r2,zero
  c012bc:	e037883a 	mov	sp,fp
  c012c0:	dfc00117 	ldw	ra,4(sp)
  c012c4:	df000017 	ldw	fp,0(sp)
  c012c8:	dec00204 	addi	sp,sp,8
  c012cc:	f800283a 	ret

00c012d0 <create_chain>:
  c012d0:	defff704 	addi	sp,sp,-36
  c012d4:	dfc00815 	stw	ra,32(sp)
  c012d8:	df000715 	stw	fp,28(sp)
  c012dc:	df000704 	addi	fp,sp,28
  c012e0:	e13ffe15 	stw	r4,-8(fp)
  c012e4:	e17fff15 	stw	r5,-4(fp)
  c012e8:	e0bffe17 	ldw	r2,-8(fp)
  c012ec:	10800017 	ldw	r2,0(r2)
  c012f0:	e0bffc15 	stw	r2,-16(fp)
  c012f4:	e0bfff17 	ldw	r2,-4(fp)
  c012f8:	10000c1e 	bne	r2,zero,c0132c <create_chain+0x5c>
  c012fc:	e0bffc17 	ldw	r2,-16(fp)
  c01300:	10800417 	ldw	r2,16(r2)
  c01304:	e0bffa15 	stw	r2,-24(fp)
  c01308:	e0bffa17 	ldw	r2,-24(fp)
  c0130c:	10000426 	beq	r2,zero,c01320 <create_chain+0x50>
  c01310:	e0bffc17 	ldw	r2,-16(fp)
  c01314:	10800617 	ldw	r2,24(r2)
  c01318:	e0fffa17 	ldw	r3,-24(fp)
  c0131c:	18801936 	bltu	r3,r2,c01384 <create_chain+0xb4>
  c01320:	00800044 	movi	r2,1
  c01324:	e0bffa15 	stw	r2,-24(fp)
  c01328:	00001606 	br	c01384 <create_chain+0xb4>
  c0132c:	e17fff17 	ldw	r5,-4(fp)
  c01330:	e13ffe17 	ldw	r4,-8(fp)
  c01334:	0c00c200 	call	c00c20 <get_fat>
  c01338:	e0bffd15 	stw	r2,-12(fp)
  c0133c:	e0bffd17 	ldw	r2,-12(fp)
  c01340:	108000a8 	cmpgeui	r2,r2,2
  c01344:	1000021e 	bne	r2,zero,c01350 <create_chain+0x80>
  c01348:	00800044 	movi	r2,1
  c0134c:	00008d06 	br	c01584 <create_chain+0x2b4>
  c01350:	e0bffd17 	ldw	r2,-12(fp)
  c01354:	10bfffd8 	cmpnei	r2,r2,-1
  c01358:	1000021e 	bne	r2,zero,c01364 <create_chain+0x94>
  c0135c:	e0bffd17 	ldw	r2,-12(fp)
  c01360:	00008806 	br	c01584 <create_chain+0x2b4>
  c01364:	e0bffc17 	ldw	r2,-16(fp)
  c01368:	10800617 	ldw	r2,24(r2)
  c0136c:	e0fffd17 	ldw	r3,-12(fp)
  c01370:	1880022e 	bgeu	r3,r2,c0137c <create_chain+0xac>
  c01374:	e0bffd17 	ldw	r2,-12(fp)
  c01378:	00008206 	br	c01584 <create_chain+0x2b4>
  c0137c:	e0bfff17 	ldw	r2,-4(fp)
  c01380:	e0bffa15 	stw	r2,-24(fp)
  c01384:	e0bffc17 	ldw	r2,-16(fp)
  c01388:	10800517 	ldw	r2,20(r2)
  c0138c:	1000021e 	bne	r2,zero,c01398 <create_chain+0xc8>
  c01390:	0005883a 	mov	r2,zero
  c01394:	00007b06 	br	c01584 <create_chain+0x2b4>
  c01398:	e03ff915 	stw	zero,-28(fp)
  c0139c:	e0fffa17 	ldw	r3,-24(fp)
  c013a0:	e0bfff17 	ldw	r2,-4(fp)
  c013a4:	1880241e 	bne	r3,r2,c01438 <create_chain+0x168>
  c013a8:	e0bffa17 	ldw	r2,-24(fp)
  c013ac:	10800044 	addi	r2,r2,1
  c013b0:	e0bff915 	stw	r2,-28(fp)
  c013b4:	e0bffc17 	ldw	r2,-16(fp)
  c013b8:	10800617 	ldw	r2,24(r2)
  c013bc:	e0fff917 	ldw	r3,-28(fp)
  c013c0:	18800236 	bltu	r3,r2,c013cc <create_chain+0xfc>
  c013c4:	00800084 	movi	r2,2
  c013c8:	e0bff915 	stw	r2,-28(fp)
  c013cc:	e17ff917 	ldw	r5,-28(fp)
  c013d0:	e13ffe17 	ldw	r4,-8(fp)
  c013d4:	0c00c200 	call	c00c20 <get_fat>
  c013d8:	e0bffd15 	stw	r2,-12(fp)
  c013dc:	e0bffd17 	ldw	r2,-12(fp)
  c013e0:	10800060 	cmpeqi	r2,r2,1
  c013e4:	1000031e 	bne	r2,zero,c013f4 <create_chain+0x124>
  c013e8:	e0bffd17 	ldw	r2,-12(fp)
  c013ec:	10bfffd8 	cmpnei	r2,r2,-1
  c013f0:	1000021e 	bne	r2,zero,c013fc <create_chain+0x12c>
  c013f4:	e0bffd17 	ldw	r2,-12(fp)
  c013f8:	00006206 	br	c01584 <create_chain+0x2b4>
  c013fc:	e0bffd17 	ldw	r2,-12(fp)
  c01400:	10000d26 	beq	r2,zero,c01438 <create_chain+0x168>
  c01404:	e0bffc17 	ldw	r2,-16(fp)
  c01408:	10800417 	ldw	r2,16(r2)
  c0140c:	e0bffd15 	stw	r2,-12(fp)
  c01410:	e0bffd17 	ldw	r2,-12(fp)
  c01414:	108000b0 	cmpltui	r2,r2,2
  c01418:	1000061e 	bne	r2,zero,c01434 <create_chain+0x164>
  c0141c:	e0bffc17 	ldw	r2,-16(fp)
  c01420:	10800617 	ldw	r2,24(r2)
  c01424:	e0fffd17 	ldw	r3,-12(fp)
  c01428:	1880022e 	bgeu	r3,r2,c01434 <create_chain+0x164>
  c0142c:	e0bffd17 	ldw	r2,-12(fp)
  c01430:	e0bffa15 	stw	r2,-24(fp)
  c01434:	e03ff915 	stw	zero,-28(fp)
  c01438:	e0bff917 	ldw	r2,-28(fp)
  c0143c:	1000241e 	bne	r2,zero,c014d0 <create_chain+0x200>
  c01440:	e0bffa17 	ldw	r2,-24(fp)
  c01444:	e0bff915 	stw	r2,-28(fp)
  c01448:	e0bff917 	ldw	r2,-28(fp)
  c0144c:	10800044 	addi	r2,r2,1
  c01450:	e0bff915 	stw	r2,-28(fp)
  c01454:	e0bffc17 	ldw	r2,-16(fp)
  c01458:	10800617 	ldw	r2,24(r2)
  c0145c:	e0fff917 	ldw	r3,-28(fp)
  c01460:	18800736 	bltu	r3,r2,c01480 <create_chain+0x1b0>
  c01464:	00800084 	movi	r2,2
  c01468:	e0bff915 	stw	r2,-28(fp)
  c0146c:	e0bff917 	ldw	r2,-28(fp)
  c01470:	e0fffa17 	ldw	r3,-24(fp)
  c01474:	1880022e 	bgeu	r3,r2,c01480 <create_chain+0x1b0>
  c01478:	0005883a 	mov	r2,zero
  c0147c:	00004106 	br	c01584 <create_chain+0x2b4>
  c01480:	e17ff917 	ldw	r5,-28(fp)
  c01484:	e13ffe17 	ldw	r4,-8(fp)
  c01488:	0c00c200 	call	c00c20 <get_fat>
  c0148c:	e0bffd15 	stw	r2,-12(fp)
  c01490:	e0bffd17 	ldw	r2,-12(fp)
  c01494:	10000d26 	beq	r2,zero,c014cc <create_chain+0x1fc>
  c01498:	e0bffd17 	ldw	r2,-12(fp)
  c0149c:	10800060 	cmpeqi	r2,r2,1
  c014a0:	1000031e 	bne	r2,zero,c014b0 <create_chain+0x1e0>
  c014a4:	e0bffd17 	ldw	r2,-12(fp)
  c014a8:	10bfffd8 	cmpnei	r2,r2,-1
  c014ac:	1000021e 	bne	r2,zero,c014b8 <create_chain+0x1e8>
  c014b0:	e0bffd17 	ldw	r2,-12(fp)
  c014b4:	00003306 	br	c01584 <create_chain+0x2b4>
  c014b8:	e0fff917 	ldw	r3,-28(fp)
  c014bc:	e0bffa17 	ldw	r2,-24(fp)
  c014c0:	18bfe11e 	bne	r3,r2,c01448 <__alt_data_end+0xffb81448>
  c014c4:	0005883a 	mov	r2,zero
  c014c8:	00002e06 	br	c01584 <create_chain+0x2b4>
  c014cc:	0001883a 	nop
  c014d0:	01bfffc4 	movi	r6,-1
  c014d4:	e17ff917 	ldw	r5,-28(fp)
  c014d8:	e13ffc17 	ldw	r4,-16(fp)
  c014dc:	0c00e6c0 	call	c00e6c <put_fat>
  c014e0:	e0bffb15 	stw	r2,-20(fp)
  c014e4:	e0bffb17 	ldw	r2,-20(fp)
  c014e8:	1000071e 	bne	r2,zero,c01508 <create_chain+0x238>
  c014ec:	e0bfff17 	ldw	r2,-4(fp)
  c014f0:	10000526 	beq	r2,zero,c01508 <create_chain+0x238>
  c014f4:	e1bff917 	ldw	r6,-28(fp)
  c014f8:	e17fff17 	ldw	r5,-4(fp)
  c014fc:	e13ffc17 	ldw	r4,-16(fp)
  c01500:	0c00e6c0 	call	c00e6c <put_fat>
  c01504:	e0bffb15 	stw	r2,-20(fp)
  c01508:	e0bffb17 	ldw	r2,-20(fp)
  c0150c:	1000151e 	bne	r2,zero,c01564 <create_chain+0x294>
  c01510:	e0bffc17 	ldw	r2,-16(fp)
  c01514:	e0fff917 	ldw	r3,-28(fp)
  c01518:	10c00415 	stw	r3,16(r2)
  c0151c:	e0bffc17 	ldw	r2,-16(fp)
  c01520:	10800517 	ldw	r2,20(r2)
  c01524:	e0fffc17 	ldw	r3,-16(fp)
  c01528:	18c00617 	ldw	r3,24(r3)
  c0152c:	18ffff84 	addi	r3,r3,-2
  c01530:	18800536 	bltu	r3,r2,c01548 <create_chain+0x278>
  c01534:	e0bffc17 	ldw	r2,-16(fp)
  c01538:	10800517 	ldw	r2,20(r2)
  c0153c:	10ffffc4 	addi	r3,r2,-1
  c01540:	e0bffc17 	ldw	r2,-16(fp)
  c01544:	10c00515 	stw	r3,20(r2)
  c01548:	e0bffc17 	ldw	r2,-16(fp)
  c0154c:	10800143 	ldbu	r2,5(r2)
  c01550:	10800054 	ori	r2,r2,1
  c01554:	1007883a 	mov	r3,r2
  c01558:	e0bffc17 	ldw	r2,-16(fp)
  c0155c:	10c00145 	stb	r3,5(r2)
  c01560:	00000706 	br	c01580 <create_chain+0x2b0>
  c01564:	e0bffb17 	ldw	r2,-20(fp)
  c01568:	10800058 	cmpnei	r2,r2,1
  c0156c:	1000021e 	bne	r2,zero,c01578 <create_chain+0x2a8>
  c01570:	00bfffc4 	movi	r2,-1
  c01574:	00000106 	br	c0157c <create_chain+0x2ac>
  c01578:	00800044 	movi	r2,1
  c0157c:	e0bff915 	stw	r2,-28(fp)
  c01580:	e0bff917 	ldw	r2,-28(fp)
  c01584:	e037883a 	mov	sp,fp
  c01588:	dfc00117 	ldw	ra,4(sp)
  c0158c:	df000017 	ldw	fp,0(sp)
  c01590:	dec00204 	addi	sp,sp,8
  c01594:	f800283a 	ret

00c01598 <dir_clear>:
  c01598:	defff804 	addi	sp,sp,-32
  c0159c:	dfc00715 	stw	ra,28(sp)
  c015a0:	df000615 	stw	fp,24(sp)
  c015a4:	df000604 	addi	fp,sp,24
  c015a8:	e13ffe15 	stw	r4,-8(fp)
  c015ac:	e17fff15 	stw	r5,-4(fp)
  c015b0:	e13ffe17 	ldw	r4,-8(fp)
  c015b4:	0c008900 	call	c00890 <sync_window>
  c015b8:	10000226 	beq	r2,zero,c015c4 <dir_clear+0x2c>
  c015bc:	00800044 	movi	r2,1
  c015c0:	00002e06 	br	c0167c <dir_clear+0xe4>
  c015c4:	e17fff17 	ldw	r5,-4(fp)
  c015c8:	e13ffe17 	ldw	r4,-8(fp)
  c015cc:	0c00ba00 	call	c00ba0 <clst2sect>
  c015d0:	e0bffb15 	stw	r2,-20(fp)
  c015d4:	e0bffe17 	ldw	r2,-8(fp)
  c015d8:	e0fffb17 	ldw	r3,-20(fp)
  c015dc:	10c00c15 	stw	r3,48(r2)
  c015e0:	e0bffe17 	ldw	r2,-8(fp)
  c015e4:	10800d04 	addi	r2,r2,52
  c015e8:	01808004 	movi	r6,512
  c015ec:	000b883a 	mov	r5,zero
  c015f0:	1009883a 	mov	r4,r2
  c015f4:	0c10d400 	call	c10d40 <memset>
  c015f8:	e0bffe17 	ldw	r2,-8(fp)
  c015fc:	10800d04 	addi	r2,r2,52
  c01600:	e0bffc15 	stw	r2,-16(fp)
  c01604:	00800044 	movi	r2,1
  c01608:	e0bffd15 	stw	r2,-12(fp)
  c0160c:	e03ffa15 	stw	zero,-24(fp)
  c01610:	00000406 	br	c01624 <dir_clear+0x8c>
  c01614:	e0fffa17 	ldw	r3,-24(fp)
  c01618:	e0bffd17 	ldw	r2,-12(fp)
  c0161c:	1885883a 	add	r2,r3,r2
  c01620:	e0bffa15 	stw	r2,-24(fp)
  c01624:	e0bffe17 	ldw	r2,-8(fp)
  c01628:	1080028b 	ldhu	r2,10(r2)
  c0162c:	10bfffcc 	andi	r2,r2,65535
  c01630:	e0fffa17 	ldw	r3,-24(fp)
  c01634:	18800b2e 	bgeu	r3,r2,c01664 <dir_clear+0xcc>
  c01638:	e0bffe17 	ldw	r2,-8(fp)
  c0163c:	10800043 	ldbu	r2,1(r2)
  c01640:	11003fcc 	andi	r4,r2,255
  c01644:	e0fffb17 	ldw	r3,-20(fp)
  c01648:	e0bffa17 	ldw	r2,-24(fp)
  c0164c:	1885883a 	add	r2,r3,r2
  c01650:	e1fffd17 	ldw	r7,-12(fp)
  c01654:	100d883a 	mov	r6,r2
  c01658:	e17ffc17 	ldw	r5,-16(fp)
  c0165c:	0c003540 	call	c00354 <disk_write>
  c01660:	103fec26 	beq	r2,zero,c01614 <__alt_data_end+0xffb81614>
  c01664:	e0bffe17 	ldw	r2,-8(fp)
  c01668:	1080028b 	ldhu	r2,10(r2)
  c0166c:	10ffffcc 	andi	r3,r2,65535
  c01670:	e0bffa17 	ldw	r2,-24(fp)
  c01674:	1884c03a 	cmpne	r2,r3,r2
  c01678:	10803fcc 	andi	r2,r2,255
  c0167c:	e037883a 	mov	sp,fp
  c01680:	dfc00117 	ldw	ra,4(sp)
  c01684:	df000017 	ldw	fp,0(sp)
  c01688:	dec00204 	addi	sp,sp,8
  c0168c:	f800283a 	ret

00c01690 <dir_sdi>:
  c01690:	defff904 	addi	sp,sp,-28
  c01694:	dfc00615 	stw	ra,24(sp)
  c01698:	df000515 	stw	fp,20(sp)
  c0169c:	df000504 	addi	fp,sp,20
  c016a0:	e13ffe15 	stw	r4,-8(fp)
  c016a4:	e17fff15 	stw	r5,-4(fp)
  c016a8:	e0bffe17 	ldw	r2,-8(fp)
  c016ac:	10800017 	ldw	r2,0(r2)
  c016b0:	e0bffc15 	stw	r2,-16(fp)
  c016b4:	e0ffff17 	ldw	r3,-4(fp)
  c016b8:	00800834 	movhi	r2,32
  c016bc:	1880032e 	bgeu	r3,r2,c016cc <dir_sdi+0x3c>
  c016c0:	e0bfff17 	ldw	r2,-4(fp)
  c016c4:	108007cc 	andi	r2,r2,31
  c016c8:	10000226 	beq	r2,zero,c016d4 <dir_sdi+0x44>
  c016cc:	00800084 	movi	r2,2
  c016d0:	00005c06 	br	c01844 <dir_sdi+0x1b4>
  c016d4:	e0bffe17 	ldw	r2,-8(fp)
  c016d8:	e0ffff17 	ldw	r3,-4(fp)
  c016dc:	10c00415 	stw	r3,16(r2)
  c016e0:	e0bffe17 	ldw	r2,-8(fp)
  c016e4:	10800217 	ldw	r2,8(r2)
  c016e8:	e0bffb15 	stw	r2,-20(fp)
  c016ec:	e0bffb17 	ldw	r2,-20(fp)
  c016f0:	1000081e 	bne	r2,zero,c01714 <dir_sdi+0x84>
  c016f4:	e0bffc17 	ldw	r2,-16(fp)
  c016f8:	10800003 	ldbu	r2,0(r2)
  c016fc:	10803fcc 	andi	r2,r2,255
  c01700:	108000f0 	cmpltui	r2,r2,3
  c01704:	1000031e 	bne	r2,zero,c01714 <dir_sdi+0x84>
  c01708:	e0bffc17 	ldw	r2,-16(fp)
  c0170c:	10800a17 	ldw	r2,40(r2)
  c01710:	e0bffb15 	stw	r2,-20(fp)
  c01714:	e0bffb17 	ldw	r2,-20(fp)
  c01718:	10000d1e 	bne	r2,zero,c01750 <dir_sdi+0xc0>
  c0171c:	e0bfff17 	ldw	r2,-4(fp)
  c01720:	1006d17a 	srli	r3,r2,5
  c01724:	e0bffc17 	ldw	r2,-16(fp)
  c01728:	1080020b 	ldhu	r2,8(r2)
  c0172c:	10bfffcc 	andi	r2,r2,65535
  c01730:	18800236 	bltu	r3,r2,c0173c <dir_sdi+0xac>
  c01734:	00800084 	movi	r2,2
  c01738:	00004206 	br	c01844 <dir_sdi+0x1b4>
  c0173c:	e0bffc17 	ldw	r2,-16(fp)
  c01740:	10c00a17 	ldw	r3,40(r2)
  c01744:	e0bffe17 	ldw	r2,-8(fp)
  c01748:	10c00615 	stw	r3,24(r2)
  c0174c:	00002606 	br	c017e8 <dir_sdi+0x158>
  c01750:	e0bffc17 	ldw	r2,-16(fp)
  c01754:	1080028b 	ldhu	r2,10(r2)
  c01758:	10bfffcc 	andi	r2,r2,65535
  c0175c:	1004927a 	slli	r2,r2,9
  c01760:	e0bffd15 	stw	r2,-12(fp)
  c01764:	00001706 	br	c017c4 <dir_sdi+0x134>
  c01768:	e0bffe17 	ldw	r2,-8(fp)
  c0176c:	e17ffb17 	ldw	r5,-20(fp)
  c01770:	1009883a 	mov	r4,r2
  c01774:	0c00c200 	call	c00c20 <get_fat>
  c01778:	e0bffb15 	stw	r2,-20(fp)
  c0177c:	e0bffb17 	ldw	r2,-20(fp)
  c01780:	10bfffd8 	cmpnei	r2,r2,-1
  c01784:	1000021e 	bne	r2,zero,c01790 <dir_sdi+0x100>
  c01788:	00800044 	movi	r2,1
  c0178c:	00002d06 	br	c01844 <dir_sdi+0x1b4>
  c01790:	e0bffb17 	ldw	r2,-20(fp)
  c01794:	108000b0 	cmpltui	r2,r2,2
  c01798:	1000041e 	bne	r2,zero,c017ac <dir_sdi+0x11c>
  c0179c:	e0bffc17 	ldw	r2,-16(fp)
  c017a0:	10800617 	ldw	r2,24(r2)
  c017a4:	e0fffb17 	ldw	r3,-20(fp)
  c017a8:	18800236 	bltu	r3,r2,c017b4 <dir_sdi+0x124>
  c017ac:	00800084 	movi	r2,2
  c017b0:	00002406 	br	c01844 <dir_sdi+0x1b4>
  c017b4:	e0ffff17 	ldw	r3,-4(fp)
  c017b8:	e0bffd17 	ldw	r2,-12(fp)
  c017bc:	1885c83a 	sub	r2,r3,r2
  c017c0:	e0bfff15 	stw	r2,-4(fp)
  c017c4:	e0ffff17 	ldw	r3,-4(fp)
  c017c8:	e0bffd17 	ldw	r2,-12(fp)
  c017cc:	18bfe62e 	bgeu	r3,r2,c01768 <__alt_data_end+0xffb81768>
  c017d0:	e17ffb17 	ldw	r5,-20(fp)
  c017d4:	e13ffc17 	ldw	r4,-16(fp)
  c017d8:	0c00ba00 	call	c00ba0 <clst2sect>
  c017dc:	1007883a 	mov	r3,r2
  c017e0:	e0bffe17 	ldw	r2,-8(fp)
  c017e4:	10c00615 	stw	r3,24(r2)
  c017e8:	e0bffe17 	ldw	r2,-8(fp)
  c017ec:	e0fffb17 	ldw	r3,-20(fp)
  c017f0:	10c00515 	stw	r3,20(r2)
  c017f4:	e0bffe17 	ldw	r2,-8(fp)
  c017f8:	10800617 	ldw	r2,24(r2)
  c017fc:	1000021e 	bne	r2,zero,c01808 <dir_sdi+0x178>
  c01800:	00800084 	movi	r2,2
  c01804:	00000f06 	br	c01844 <dir_sdi+0x1b4>
  c01808:	e0bffe17 	ldw	r2,-8(fp)
  c0180c:	10c00617 	ldw	r3,24(r2)
  c01810:	e0bfff17 	ldw	r2,-4(fp)
  c01814:	1004d27a 	srli	r2,r2,9
  c01818:	1887883a 	add	r3,r3,r2
  c0181c:	e0bffe17 	ldw	r2,-8(fp)
  c01820:	10c00615 	stw	r3,24(r2)
  c01824:	e0bffc17 	ldw	r2,-16(fp)
  c01828:	10c00d04 	addi	r3,r2,52
  c0182c:	e0bfff17 	ldw	r2,-4(fp)
  c01830:	10807fcc 	andi	r2,r2,511
  c01834:	1887883a 	add	r3,r3,r2
  c01838:	e0bffe17 	ldw	r2,-8(fp)
  c0183c:	10c00715 	stw	r3,28(r2)
  c01840:	0005883a 	mov	r2,zero
  c01844:	e037883a 	mov	sp,fp
  c01848:	dfc00117 	ldw	ra,4(sp)
  c0184c:	df000017 	ldw	fp,0(sp)
  c01850:	dec00204 	addi	sp,sp,8
  c01854:	f800283a 	ret

00c01858 <dir_next>:
  c01858:	defff904 	addi	sp,sp,-28
  c0185c:	dfc00615 	stw	ra,24(sp)
  c01860:	df000515 	stw	fp,20(sp)
  c01864:	df000504 	addi	fp,sp,20
  c01868:	e13ffe15 	stw	r4,-8(fp)
  c0186c:	e17fff15 	stw	r5,-4(fp)
  c01870:	e0bffe17 	ldw	r2,-8(fp)
  c01874:	10800017 	ldw	r2,0(r2)
  c01878:	e0bffc15 	stw	r2,-16(fp)
  c0187c:	e0bffe17 	ldw	r2,-8(fp)
  c01880:	10800417 	ldw	r2,16(r2)
  c01884:	10800804 	addi	r2,r2,32
  c01888:	e0bffd15 	stw	r2,-12(fp)
  c0188c:	e0fffd17 	ldw	r3,-12(fp)
  c01890:	00800834 	movhi	r2,32
  c01894:	18800236 	bltu	r3,r2,c018a0 <dir_next+0x48>
  c01898:	e0bffe17 	ldw	r2,-8(fp)
  c0189c:	10000615 	stw	zero,24(r2)
  c018a0:	e0bffe17 	ldw	r2,-8(fp)
  c018a4:	10800617 	ldw	r2,24(r2)
  c018a8:	1000021e 	bne	r2,zero,c018b4 <dir_next+0x5c>
  c018ac:	00800104 	movi	r2,4
  c018b0:	00006706 	br	c01a50 <dir_next+0x1f8>
  c018b4:	e0bffd17 	ldw	r2,-12(fp)
  c018b8:	10807fcc 	andi	r2,r2,511
  c018bc:	1000591e 	bne	r2,zero,c01a24 <dir_next+0x1cc>
  c018c0:	e0bffe17 	ldw	r2,-8(fp)
  c018c4:	10800617 	ldw	r2,24(r2)
  c018c8:	10c00044 	addi	r3,r2,1
  c018cc:	e0bffe17 	ldw	r2,-8(fp)
  c018d0:	10c00615 	stw	r3,24(r2)
  c018d4:	e0bffe17 	ldw	r2,-8(fp)
  c018d8:	10800517 	ldw	r2,20(r2)
  c018dc:	10000a1e 	bne	r2,zero,c01908 <dir_next+0xb0>
  c018e0:	e0bffd17 	ldw	r2,-12(fp)
  c018e4:	1006d17a 	srli	r3,r2,5
  c018e8:	e0bffc17 	ldw	r2,-16(fp)
  c018ec:	1080020b 	ldhu	r2,8(r2)
  c018f0:	10bfffcc 	andi	r2,r2,65535
  c018f4:	18804b36 	bltu	r3,r2,c01a24 <dir_next+0x1cc>
  c018f8:	e0bffe17 	ldw	r2,-8(fp)
  c018fc:	10000615 	stw	zero,24(r2)
  c01900:	00800104 	movi	r2,4
  c01904:	00005206 	br	c01a50 <dir_next+0x1f8>
  c01908:	e0bffd17 	ldw	r2,-12(fp)
  c0190c:	1004d27a 	srli	r2,r2,9
  c01910:	e0fffc17 	ldw	r3,-16(fp)
  c01914:	18c0028b 	ldhu	r3,10(r3)
  c01918:	18ffffcc 	andi	r3,r3,65535
  c0191c:	18ffffc4 	addi	r3,r3,-1
  c01920:	10c4703a 	and	r2,r2,r3
  c01924:	10003f1e 	bne	r2,zero,c01a24 <dir_next+0x1cc>
  c01928:	e0fffe17 	ldw	r3,-8(fp)
  c0192c:	e0bffe17 	ldw	r2,-8(fp)
  c01930:	10800517 	ldw	r2,20(r2)
  c01934:	100b883a 	mov	r5,r2
  c01938:	1809883a 	mov	r4,r3
  c0193c:	0c00c200 	call	c00c20 <get_fat>
  c01940:	e0bffb15 	stw	r2,-20(fp)
  c01944:	e0bffb17 	ldw	r2,-20(fp)
  c01948:	108000a8 	cmpgeui	r2,r2,2
  c0194c:	1000021e 	bne	r2,zero,c01958 <dir_next+0x100>
  c01950:	00800084 	movi	r2,2
  c01954:	00003e06 	br	c01a50 <dir_next+0x1f8>
  c01958:	e0bffb17 	ldw	r2,-20(fp)
  c0195c:	10bfffd8 	cmpnei	r2,r2,-1
  c01960:	1000021e 	bne	r2,zero,c0196c <dir_next+0x114>
  c01964:	00800044 	movi	r2,1
  c01968:	00003906 	br	c01a50 <dir_next+0x1f8>
  c0196c:	e0bffc17 	ldw	r2,-16(fp)
  c01970:	10800617 	ldw	r2,24(r2)
  c01974:	e0fffb17 	ldw	r3,-20(fp)
  c01978:	18802136 	bltu	r3,r2,c01a00 <dir_next+0x1a8>
  c0197c:	e0bfff17 	ldw	r2,-4(fp)
  c01980:	1000041e 	bne	r2,zero,c01994 <dir_next+0x13c>
  c01984:	e0bffe17 	ldw	r2,-8(fp)
  c01988:	10000615 	stw	zero,24(r2)
  c0198c:	00800104 	movi	r2,4
  c01990:	00002f06 	br	c01a50 <dir_next+0x1f8>
  c01994:	e0fffe17 	ldw	r3,-8(fp)
  c01998:	e0bffe17 	ldw	r2,-8(fp)
  c0199c:	10800517 	ldw	r2,20(r2)
  c019a0:	100b883a 	mov	r5,r2
  c019a4:	1809883a 	mov	r4,r3
  c019a8:	0c012d00 	call	c012d0 <create_chain>
  c019ac:	e0bffb15 	stw	r2,-20(fp)
  c019b0:	e0bffb17 	ldw	r2,-20(fp)
  c019b4:	1000021e 	bne	r2,zero,c019c0 <dir_next+0x168>
  c019b8:	008001c4 	movi	r2,7
  c019bc:	00002406 	br	c01a50 <dir_next+0x1f8>
  c019c0:	e0bffb17 	ldw	r2,-20(fp)
  c019c4:	10800058 	cmpnei	r2,r2,1
  c019c8:	1000021e 	bne	r2,zero,c019d4 <dir_next+0x17c>
  c019cc:	00800084 	movi	r2,2
  c019d0:	00001f06 	br	c01a50 <dir_next+0x1f8>
  c019d4:	e0bffb17 	ldw	r2,-20(fp)
  c019d8:	10bfffd8 	cmpnei	r2,r2,-1
  c019dc:	1000021e 	bne	r2,zero,c019e8 <dir_next+0x190>
  c019e0:	00800044 	movi	r2,1
  c019e4:	00001a06 	br	c01a50 <dir_next+0x1f8>
  c019e8:	e17ffb17 	ldw	r5,-20(fp)
  c019ec:	e13ffc17 	ldw	r4,-16(fp)
  c019f0:	0c015980 	call	c01598 <dir_clear>
  c019f4:	10000226 	beq	r2,zero,c01a00 <dir_next+0x1a8>
  c019f8:	00800044 	movi	r2,1
  c019fc:	00001406 	br	c01a50 <dir_next+0x1f8>
  c01a00:	e0bffe17 	ldw	r2,-8(fp)
  c01a04:	e0fffb17 	ldw	r3,-20(fp)
  c01a08:	10c00515 	stw	r3,20(r2)
  c01a0c:	e17ffb17 	ldw	r5,-20(fp)
  c01a10:	e13ffc17 	ldw	r4,-16(fp)
  c01a14:	0c00ba00 	call	c00ba0 <clst2sect>
  c01a18:	1007883a 	mov	r3,r2
  c01a1c:	e0bffe17 	ldw	r2,-8(fp)
  c01a20:	10c00615 	stw	r3,24(r2)
  c01a24:	e0bffe17 	ldw	r2,-8(fp)
  c01a28:	e0fffd17 	ldw	r3,-12(fp)
  c01a2c:	10c00415 	stw	r3,16(r2)
  c01a30:	e0bffc17 	ldw	r2,-16(fp)
  c01a34:	10c00d04 	addi	r3,r2,52
  c01a38:	e0bffd17 	ldw	r2,-12(fp)
  c01a3c:	10807fcc 	andi	r2,r2,511
  c01a40:	1887883a 	add	r3,r3,r2
  c01a44:	e0bffe17 	ldw	r2,-8(fp)
  c01a48:	10c00715 	stw	r3,28(r2)
  c01a4c:	0005883a 	mov	r2,zero
  c01a50:	e037883a 	mov	sp,fp
  c01a54:	dfc00117 	ldw	ra,4(sp)
  c01a58:	df000017 	ldw	fp,0(sp)
  c01a5c:	dec00204 	addi	sp,sp,8
  c01a60:	f800283a 	ret

00c01a64 <dir_alloc>:
  c01a64:	defff904 	addi	sp,sp,-28
  c01a68:	dfc00615 	stw	ra,24(sp)
  c01a6c:	df000515 	stw	fp,20(sp)
  c01a70:	df000504 	addi	fp,sp,20
  c01a74:	e13ffe15 	stw	r4,-8(fp)
  c01a78:	e17fff15 	stw	r5,-4(fp)
  c01a7c:	e0bffe17 	ldw	r2,-8(fp)
  c01a80:	10800017 	ldw	r2,0(r2)
  c01a84:	e0bffd15 	stw	r2,-12(fp)
  c01a88:	000b883a 	mov	r5,zero
  c01a8c:	e13ffe17 	ldw	r4,-8(fp)
  c01a90:	0c016900 	call	c01690 <dir_sdi>
  c01a94:	e0bffb15 	stw	r2,-20(fp)
  c01a98:	e0bffb17 	ldw	r2,-20(fp)
  c01a9c:	1000241e 	bne	r2,zero,c01b30 <dir_alloc+0xcc>
  c01aa0:	e03ffc15 	stw	zero,-16(fp)
  c01aa4:	e0bffe17 	ldw	r2,-8(fp)
  c01aa8:	10800617 	ldw	r2,24(r2)
  c01aac:	100b883a 	mov	r5,r2
  c01ab0:	e13ffd17 	ldw	r4,-12(fp)
  c01ab4:	0c009800 	call	c00980 <move_window>
  c01ab8:	e0bffb15 	stw	r2,-20(fp)
  c01abc:	e0bffb17 	ldw	r2,-20(fp)
  c01ac0:	10001a1e 	bne	r2,zero,c01b2c <dir_alloc+0xc8>
  c01ac4:	e0bffe17 	ldw	r2,-8(fp)
  c01ac8:	10800717 	ldw	r2,28(r2)
  c01acc:	10800003 	ldbu	r2,0(r2)
  c01ad0:	10803fcc 	andi	r2,r2,255
  c01ad4:	10803960 	cmpeqi	r2,r2,229
  c01ad8:	1000051e 	bne	r2,zero,c01af0 <dir_alloc+0x8c>
  c01adc:	e0bffe17 	ldw	r2,-8(fp)
  c01ae0:	10800717 	ldw	r2,28(r2)
  c01ae4:	10800003 	ldbu	r2,0(r2)
  c01ae8:	10803fcc 	andi	r2,r2,255
  c01aec:	1000071e 	bne	r2,zero,c01b0c <dir_alloc+0xa8>
  c01af0:	e0bffc17 	ldw	r2,-16(fp)
  c01af4:	10800044 	addi	r2,r2,1
  c01af8:	e0bffc15 	stw	r2,-16(fp)
  c01afc:	e0fffc17 	ldw	r3,-16(fp)
  c01b00:	e0bfff17 	ldw	r2,-4(fp)
  c01b04:	1880021e 	bne	r3,r2,c01b10 <dir_alloc+0xac>
  c01b08:	00000906 	br	c01b30 <dir_alloc+0xcc>
  c01b0c:	e03ffc15 	stw	zero,-16(fp)
  c01b10:	01400044 	movi	r5,1
  c01b14:	e13ffe17 	ldw	r4,-8(fp)
  c01b18:	0c018580 	call	c01858 <dir_next>
  c01b1c:	e0bffb15 	stw	r2,-20(fp)
  c01b20:	e0bffb17 	ldw	r2,-20(fp)
  c01b24:	103fdf26 	beq	r2,zero,c01aa4 <__alt_data_end+0xffb81aa4>
  c01b28:	00000106 	br	c01b30 <dir_alloc+0xcc>
  c01b2c:	0001883a 	nop
  c01b30:	e0bffb17 	ldw	r2,-20(fp)
  c01b34:	10800118 	cmpnei	r2,r2,4
  c01b38:	1000021e 	bne	r2,zero,c01b44 <dir_alloc+0xe0>
  c01b3c:	008001c4 	movi	r2,7
  c01b40:	e0bffb15 	stw	r2,-20(fp)
  c01b44:	e0bffb17 	ldw	r2,-20(fp)
  c01b48:	e037883a 	mov	sp,fp
  c01b4c:	dfc00117 	ldw	ra,4(sp)
  c01b50:	df000017 	ldw	fp,0(sp)
  c01b54:	dec00204 	addi	sp,sp,8
  c01b58:	f800283a 	ret

00c01b5c <ld_clust>:
  c01b5c:	defffb04 	addi	sp,sp,-20
  c01b60:	dfc00415 	stw	ra,16(sp)
  c01b64:	df000315 	stw	fp,12(sp)
  c01b68:	df000304 	addi	fp,sp,12
  c01b6c:	e13ffe15 	stw	r4,-8(fp)
  c01b70:	e17fff15 	stw	r5,-4(fp)
  c01b74:	e0bfff17 	ldw	r2,-4(fp)
  c01b78:	10800684 	addi	r2,r2,26
  c01b7c:	1009883a 	mov	r4,r2
  c01b80:	0c003e40 	call	c003e4 <ld_word>
  c01b84:	10bfffcc 	andi	r2,r2,65535
  c01b88:	e0bffd15 	stw	r2,-12(fp)
  c01b8c:	e0bffe17 	ldw	r2,-8(fp)
  c01b90:	10800003 	ldbu	r2,0(r2)
  c01b94:	10803fcc 	andi	r2,r2,255
  c01b98:	108000d8 	cmpnei	r2,r2,3
  c01b9c:	1000091e 	bne	r2,zero,c01bc4 <ld_clust+0x68>
  c01ba0:	e0bfff17 	ldw	r2,-4(fp)
  c01ba4:	10800504 	addi	r2,r2,20
  c01ba8:	1009883a 	mov	r4,r2
  c01bac:	0c003e40 	call	c003e4 <ld_word>
  c01bb0:	10bfffcc 	andi	r2,r2,65535
  c01bb4:	1004943a 	slli	r2,r2,16
  c01bb8:	e0fffd17 	ldw	r3,-12(fp)
  c01bbc:	1884b03a 	or	r2,r3,r2
  c01bc0:	e0bffd15 	stw	r2,-12(fp)
  c01bc4:	e0bffd17 	ldw	r2,-12(fp)
  c01bc8:	e037883a 	mov	sp,fp
  c01bcc:	dfc00117 	ldw	ra,4(sp)
  c01bd0:	df000017 	ldw	fp,0(sp)
  c01bd4:	dec00204 	addi	sp,sp,8
  c01bd8:	f800283a 	ret

00c01bdc <st_clust>:
  c01bdc:	defffb04 	addi	sp,sp,-20
  c01be0:	dfc00415 	stw	ra,16(sp)
  c01be4:	df000315 	stw	fp,12(sp)
  c01be8:	df000304 	addi	fp,sp,12
  c01bec:	e13ffd15 	stw	r4,-12(fp)
  c01bf0:	e17ffe15 	stw	r5,-8(fp)
  c01bf4:	e1bfff15 	stw	r6,-4(fp)
  c01bf8:	e0bffe17 	ldw	r2,-8(fp)
  c01bfc:	10c00684 	addi	r3,r2,26
  c01c00:	e0bfff17 	ldw	r2,-4(fp)
  c01c04:	10bfffcc 	andi	r2,r2,65535
  c01c08:	100b883a 	mov	r5,r2
  c01c0c:	1809883a 	mov	r4,r3
  c01c10:	0c004d00 	call	c004d0 <st_word>
  c01c14:	e0bffd17 	ldw	r2,-12(fp)
  c01c18:	10800003 	ldbu	r2,0(r2)
  c01c1c:	10803fcc 	andi	r2,r2,255
  c01c20:	108000d8 	cmpnei	r2,r2,3
  c01c24:	1000071e 	bne	r2,zero,c01c44 <st_clust+0x68>
  c01c28:	e0bffe17 	ldw	r2,-8(fp)
  c01c2c:	10c00504 	addi	r3,r2,20
  c01c30:	e0bfff17 	ldw	r2,-4(fp)
  c01c34:	1004d43a 	srli	r2,r2,16
  c01c38:	100b883a 	mov	r5,r2
  c01c3c:	1809883a 	mov	r4,r3
  c01c40:	0c004d00 	call	c004d0 <st_word>
  c01c44:	0001883a 	nop
  c01c48:	e037883a 	mov	sp,fp
  c01c4c:	dfc00117 	ldw	ra,4(sp)
  c01c50:	df000017 	ldw	fp,0(sp)
  c01c54:	dec00204 	addi	sp,sp,8
  c01c58:	f800283a 	ret

00c01c5c <cmp_lfn>:
  c01c5c:	defff804 	addi	sp,sp,-32
  c01c60:	dfc00715 	stw	ra,28(sp)
  c01c64:	df000615 	stw	fp,24(sp)
  c01c68:	dc000515 	stw	r16,20(sp)
  c01c6c:	df000604 	addi	fp,sp,24
  c01c70:	e13ffd15 	stw	r4,-12(fp)
  c01c74:	e17ffe15 	stw	r5,-8(fp)
  c01c78:	e0bffe17 	ldw	r2,-8(fp)
  c01c7c:	10800684 	addi	r2,r2,26
  c01c80:	1009883a 	mov	r4,r2
  c01c84:	0c003e40 	call	c003e4 <ld_word>
  c01c88:	10bfffcc 	andi	r2,r2,65535
  c01c8c:	10000226 	beq	r2,zero,c01c98 <cmp_lfn+0x3c>
  c01c90:	0005883a 	mov	r2,zero
  c01c94:	00004f06 	br	c01dd4 <cmp_lfn+0x178>
  c01c98:	e0bffe17 	ldw	r2,-8(fp)
  c01c9c:	10800003 	ldbu	r2,0(r2)
  c01ca0:	10803fcc 	andi	r2,r2,255
  c01ca4:	10800fcc 	andi	r2,r2,63
  c01ca8:	10bfffc4 	addi	r2,r2,-1
  c01cac:	01400344 	movi	r5,13
  c01cb0:	1009883a 	mov	r4,r2
  c01cb4:	0c0e2fc0 	call	c0e2fc <__mulsi3>
  c01cb8:	e0bffa15 	stw	r2,-24(fp)
  c01cbc:	00800044 	movi	r2,1
  c01cc0:	e0bffc0d 	sth	r2,-16(fp)
  c01cc4:	e03ffb15 	stw	zero,-20(fp)
  c01cc8:	00002d06 	br	c01d80 <cmp_lfn+0x124>
  c01ccc:	00804134 	movhi	r2,260
  c01cd0:	10808c04 	addi	r2,r2,560
  c01cd4:	e0fffb17 	ldw	r3,-20(fp)
  c01cd8:	10c5883a 	add	r2,r2,r3
  c01cdc:	10800003 	ldbu	r2,0(r2)
  c01ce0:	10803fcc 	andi	r2,r2,255
  c01ce4:	e0fffe17 	ldw	r3,-8(fp)
  c01ce8:	1885883a 	add	r2,r3,r2
  c01cec:	1009883a 	mov	r4,r2
  c01cf0:	0c003e40 	call	c003e4 <ld_word>
  c01cf4:	e0bffc8d 	sth	r2,-14(fp)
  c01cf8:	e0bffc0b 	ldhu	r2,-16(fp)
  c01cfc:	10001826 	beq	r2,zero,c01d60 <cmp_lfn+0x104>
  c01d00:	e0bffa17 	ldw	r2,-24(fp)
  c01d04:	10804028 	cmpgeui	r2,r2,256
  c01d08:	1000101e 	bne	r2,zero,c01d4c <cmp_lfn+0xf0>
  c01d0c:	e0bffc8b 	ldhu	r2,-14(fp)
  c01d10:	1009883a 	mov	r4,r2
  c01d14:	0c061a80 	call	c061a8 <ff_wtoupper>
  c01d18:	1021883a 	mov	r16,r2
  c01d1c:	e0bffa17 	ldw	r2,-24(fp)
  c01d20:	10c00044 	addi	r3,r2,1
  c01d24:	e0fffa15 	stw	r3,-24(fp)
  c01d28:	1085883a 	add	r2,r2,r2
  c01d2c:	1007883a 	mov	r3,r2
  c01d30:	e0bffd17 	ldw	r2,-12(fp)
  c01d34:	10c5883a 	add	r2,r2,r3
  c01d38:	1080000b 	ldhu	r2,0(r2)
  c01d3c:	10bfffcc 	andi	r2,r2,65535
  c01d40:	1009883a 	mov	r4,r2
  c01d44:	0c061a80 	call	c061a8 <ff_wtoupper>
  c01d48:	80800226 	beq	r16,r2,c01d54 <cmp_lfn+0xf8>
  c01d4c:	0005883a 	mov	r2,zero
  c01d50:	00002006 	br	c01dd4 <cmp_lfn+0x178>
  c01d54:	e0bffc8b 	ldhu	r2,-14(fp)
  c01d58:	e0bffc0d 	sth	r2,-16(fp)
  c01d5c:	00000506 	br	c01d74 <cmp_lfn+0x118>
  c01d60:	e0fffc8b 	ldhu	r3,-14(fp)
  c01d64:	00bfffd4 	movui	r2,65535
  c01d68:	18800226 	beq	r3,r2,c01d74 <cmp_lfn+0x118>
  c01d6c:	0005883a 	mov	r2,zero
  c01d70:	00001806 	br	c01dd4 <cmp_lfn+0x178>
  c01d74:	e0bffb17 	ldw	r2,-20(fp)
  c01d78:	10800044 	addi	r2,r2,1
  c01d7c:	e0bffb15 	stw	r2,-20(fp)
  c01d80:	e0bffb17 	ldw	r2,-20(fp)
  c01d84:	10800370 	cmpltui	r2,r2,13
  c01d88:	103fd01e 	bne	r2,zero,c01ccc <__alt_data_end+0xffb81ccc>
  c01d8c:	e0bffe17 	ldw	r2,-8(fp)
  c01d90:	10800003 	ldbu	r2,0(r2)
  c01d94:	10803fcc 	andi	r2,r2,255
  c01d98:	1080100c 	andi	r2,r2,64
  c01d9c:	10000c26 	beq	r2,zero,c01dd0 <cmp_lfn+0x174>
  c01da0:	e0bffc0b 	ldhu	r2,-16(fp)
  c01da4:	10000a26 	beq	r2,zero,c01dd0 <cmp_lfn+0x174>
  c01da8:	e0bffa17 	ldw	r2,-24(fp)
  c01dac:	1085883a 	add	r2,r2,r2
  c01db0:	1007883a 	mov	r3,r2
  c01db4:	e0bffd17 	ldw	r2,-12(fp)
  c01db8:	10c5883a 	add	r2,r2,r3
  c01dbc:	1080000b 	ldhu	r2,0(r2)
  c01dc0:	10bfffcc 	andi	r2,r2,65535
  c01dc4:	10000226 	beq	r2,zero,c01dd0 <cmp_lfn+0x174>
  c01dc8:	0005883a 	mov	r2,zero
  c01dcc:	00000106 	br	c01dd4 <cmp_lfn+0x178>
  c01dd0:	00800044 	movi	r2,1
  c01dd4:	e6ffff04 	addi	sp,fp,-4
  c01dd8:	dfc00217 	ldw	ra,8(sp)
  c01ddc:	df000117 	ldw	fp,4(sp)
  c01de0:	dc000017 	ldw	r16,0(sp)
  c01de4:	dec00304 	addi	sp,sp,12
  c01de8:	f800283a 	ret

00c01dec <pick_lfn>:
  c01dec:	defff904 	addi	sp,sp,-28
  c01df0:	dfc00615 	stw	ra,24(sp)
  c01df4:	df000515 	stw	fp,20(sp)
  c01df8:	df000504 	addi	fp,sp,20
  c01dfc:	e13ffe15 	stw	r4,-8(fp)
  c01e00:	e17fff15 	stw	r5,-4(fp)
  c01e04:	e0bfff17 	ldw	r2,-4(fp)
  c01e08:	10800684 	addi	r2,r2,26
  c01e0c:	1009883a 	mov	r4,r2
  c01e10:	0c003e40 	call	c003e4 <ld_word>
  c01e14:	10bfffcc 	andi	r2,r2,65535
  c01e18:	10000226 	beq	r2,zero,c01e24 <pick_lfn+0x38>
  c01e1c:	0005883a 	mov	r2,zero
  c01e20:	00004a06 	br	c01f4c <pick_lfn+0x160>
  c01e24:	e0bfff17 	ldw	r2,-4(fp)
  c01e28:	10800003 	ldbu	r2,0(r2)
  c01e2c:	10c03fcc 	andi	r3,r2,255
  c01e30:	00bfefc4 	movi	r2,-65
  c01e34:	1884703a 	and	r2,r3,r2
  c01e38:	10bfffc4 	addi	r2,r2,-1
  c01e3c:	01400344 	movi	r5,13
  c01e40:	1009883a 	mov	r4,r2
  c01e44:	0c0e2fc0 	call	c0e2fc <__mulsi3>
  c01e48:	e0bffb15 	stw	r2,-20(fp)
  c01e4c:	00800044 	movi	r2,1
  c01e50:	e0bffd0d 	sth	r2,-12(fp)
  c01e54:	e03ffc15 	stw	zero,-16(fp)
  c01e58:	00002606 	br	c01ef4 <pick_lfn+0x108>
  c01e5c:	00804134 	movhi	r2,260
  c01e60:	10808c04 	addi	r2,r2,560
  c01e64:	e0fffc17 	ldw	r3,-16(fp)
  c01e68:	10c5883a 	add	r2,r2,r3
  c01e6c:	10800003 	ldbu	r2,0(r2)
  c01e70:	10803fcc 	andi	r2,r2,255
  c01e74:	e0ffff17 	ldw	r3,-4(fp)
  c01e78:	1885883a 	add	r2,r3,r2
  c01e7c:	1009883a 	mov	r4,r2
  c01e80:	0c003e40 	call	c003e4 <ld_word>
  c01e84:	e0bffd8d 	sth	r2,-10(fp)
  c01e88:	e0bffd0b 	ldhu	r2,-12(fp)
  c01e8c:	10001126 	beq	r2,zero,c01ed4 <pick_lfn+0xe8>
  c01e90:	e0bffb17 	ldw	r2,-20(fp)
  c01e94:	10804030 	cmpltui	r2,r2,256
  c01e98:	1000021e 	bne	r2,zero,c01ea4 <pick_lfn+0xb8>
  c01e9c:	0005883a 	mov	r2,zero
  c01ea0:	00002a06 	br	c01f4c <pick_lfn+0x160>
  c01ea4:	e0bffb17 	ldw	r2,-20(fp)
  c01ea8:	10c00044 	addi	r3,r2,1
  c01eac:	e0fffb15 	stw	r3,-20(fp)
  c01eb0:	1085883a 	add	r2,r2,r2
  c01eb4:	1007883a 	mov	r3,r2
  c01eb8:	e0bffe17 	ldw	r2,-8(fp)
  c01ebc:	10c5883a 	add	r2,r2,r3
  c01ec0:	e0fffd8b 	ldhu	r3,-10(fp)
  c01ec4:	e0fffd0d 	sth	r3,-12(fp)
  c01ec8:	e0fffd0b 	ldhu	r3,-12(fp)
  c01ecc:	10c0000d 	sth	r3,0(r2)
  c01ed0:	00000506 	br	c01ee8 <pick_lfn+0xfc>
  c01ed4:	e0fffd8b 	ldhu	r3,-10(fp)
  c01ed8:	00bfffd4 	movui	r2,65535
  c01edc:	18800226 	beq	r3,r2,c01ee8 <pick_lfn+0xfc>
  c01ee0:	0005883a 	mov	r2,zero
  c01ee4:	00001906 	br	c01f4c <pick_lfn+0x160>
  c01ee8:	e0bffc17 	ldw	r2,-16(fp)
  c01eec:	10800044 	addi	r2,r2,1
  c01ef0:	e0bffc15 	stw	r2,-16(fp)
  c01ef4:	e0bffc17 	ldw	r2,-16(fp)
  c01ef8:	10800370 	cmpltui	r2,r2,13
  c01efc:	103fd71e 	bne	r2,zero,c01e5c <__alt_data_end+0xffb81e5c>
  c01f00:	e0bfff17 	ldw	r2,-4(fp)
  c01f04:	10800003 	ldbu	r2,0(r2)
  c01f08:	10803fcc 	andi	r2,r2,255
  c01f0c:	1080100c 	andi	r2,r2,64
  c01f10:	10000d26 	beq	r2,zero,c01f48 <pick_lfn+0x15c>
  c01f14:	e0bffd0b 	ldhu	r2,-12(fp)
  c01f18:	10000b26 	beq	r2,zero,c01f48 <pick_lfn+0x15c>
  c01f1c:	e0bffb17 	ldw	r2,-20(fp)
  c01f20:	10804030 	cmpltui	r2,r2,256
  c01f24:	1000021e 	bne	r2,zero,c01f30 <pick_lfn+0x144>
  c01f28:	0005883a 	mov	r2,zero
  c01f2c:	00000706 	br	c01f4c <pick_lfn+0x160>
  c01f30:	e0bffb17 	ldw	r2,-20(fp)
  c01f34:	1085883a 	add	r2,r2,r2
  c01f38:	1007883a 	mov	r3,r2
  c01f3c:	e0bffe17 	ldw	r2,-8(fp)
  c01f40:	10c5883a 	add	r2,r2,r3
  c01f44:	1000000d 	sth	zero,0(r2)
  c01f48:	00800044 	movi	r2,1
  c01f4c:	e037883a 	mov	sp,fp
  c01f50:	dfc00117 	ldw	ra,4(sp)
  c01f54:	df000017 	ldw	fp,0(sp)
  c01f58:	dec00204 	addi	sp,sp,8
  c01f5c:	f800283a 	ret

00c01f60 <put_lfn>:
  c01f60:	defff704 	addi	sp,sp,-36
  c01f64:	dfc00815 	stw	ra,32(sp)
  c01f68:	df000715 	stw	fp,28(sp)
  c01f6c:	df000704 	addi	fp,sp,28
  c01f70:	e13ffc15 	stw	r4,-16(fp)
  c01f74:	e17ffd15 	stw	r5,-12(fp)
  c01f78:	3007883a 	mov	r3,r6
  c01f7c:	3805883a 	mov	r2,r7
  c01f80:	e0fffe05 	stb	r3,-8(fp)
  c01f84:	e0bfff05 	stb	r2,-4(fp)
  c01f88:	e0bffd17 	ldw	r2,-12(fp)
  c01f8c:	10800344 	addi	r2,r2,13
  c01f90:	e0ffff03 	ldbu	r3,-4(fp)
  c01f94:	10c00005 	stb	r3,0(r2)
  c01f98:	e0bffd17 	ldw	r2,-12(fp)
  c01f9c:	108002c4 	addi	r2,r2,11
  c01fa0:	00c003c4 	movi	r3,15
  c01fa4:	10c00005 	stb	r3,0(r2)
  c01fa8:	e0bffd17 	ldw	r2,-12(fp)
  c01fac:	10800304 	addi	r2,r2,12
  c01fb0:	10000005 	stb	zero,0(r2)
  c01fb4:	e0bffd17 	ldw	r2,-12(fp)
  c01fb8:	10800684 	addi	r2,r2,26
  c01fbc:	000b883a 	mov	r5,zero
  c01fc0:	1009883a 	mov	r4,r2
  c01fc4:	0c004d00 	call	c004d0 <st_word>
  c01fc8:	e0bffe03 	ldbu	r2,-8(fp)
  c01fcc:	10bfffc4 	addi	r2,r2,-1
  c01fd0:	01400344 	movi	r5,13
  c01fd4:	1009883a 	mov	r4,r2
  c01fd8:	0c0e2fc0 	call	c0e2fc <__mulsi3>
  c01fdc:	e0bff915 	stw	r2,-28(fp)
  c01fe0:	e03ffb0d 	sth	zero,-20(fp)
  c01fe4:	e03ffa15 	stw	zero,-24(fp)
  c01fe8:	e0fffb0b 	ldhu	r3,-20(fp)
  c01fec:	00bfffd4 	movui	r2,65535
  c01ff0:	18800926 	beq	r3,r2,c02018 <put_lfn+0xb8>
  c01ff4:	e0bff917 	ldw	r2,-28(fp)
  c01ff8:	10c00044 	addi	r3,r2,1
  c01ffc:	e0fff915 	stw	r3,-28(fp)
  c02000:	1085883a 	add	r2,r2,r2
  c02004:	1007883a 	mov	r3,r2
  c02008:	e0bffc17 	ldw	r2,-16(fp)
  c0200c:	10c5883a 	add	r2,r2,r3
  c02010:	1080000b 	ldhu	r2,0(r2)
  c02014:	e0bffb0d 	sth	r2,-20(fp)
  c02018:	00804134 	movhi	r2,260
  c0201c:	10808c04 	addi	r2,r2,560
  c02020:	e0fffa17 	ldw	r3,-24(fp)
  c02024:	10c5883a 	add	r2,r2,r3
  c02028:	10800003 	ldbu	r2,0(r2)
  c0202c:	10803fcc 	andi	r2,r2,255
  c02030:	e0fffd17 	ldw	r3,-12(fp)
  c02034:	1885883a 	add	r2,r3,r2
  c02038:	e0fffb0b 	ldhu	r3,-20(fp)
  c0203c:	180b883a 	mov	r5,r3
  c02040:	1009883a 	mov	r4,r2
  c02044:	0c004d00 	call	c004d0 <st_word>
  c02048:	e0bffb0b 	ldhu	r2,-20(fp)
  c0204c:	1000021e 	bne	r2,zero,c02058 <put_lfn+0xf8>
  c02050:	00bfffc4 	movi	r2,-1
  c02054:	e0bffb0d 	sth	r2,-20(fp)
  c02058:	e0bffa17 	ldw	r2,-24(fp)
  c0205c:	10800044 	addi	r2,r2,1
  c02060:	e0bffa15 	stw	r2,-24(fp)
  c02064:	e0bffa17 	ldw	r2,-24(fp)
  c02068:	10800370 	cmpltui	r2,r2,13
  c0206c:	103fde1e 	bne	r2,zero,c01fe8 <__alt_data_end+0xffb81fe8>
  c02070:	e0fffb0b 	ldhu	r3,-20(fp)
  c02074:	00bfffd4 	movui	r2,65535
  c02078:	18800826 	beq	r3,r2,c0209c <put_lfn+0x13c>
  c0207c:	e0bff917 	ldw	r2,-28(fp)
  c02080:	1085883a 	add	r2,r2,r2
  c02084:	1007883a 	mov	r3,r2
  c02088:	e0bffc17 	ldw	r2,-16(fp)
  c0208c:	10c5883a 	add	r2,r2,r3
  c02090:	1080000b 	ldhu	r2,0(r2)
  c02094:	10bfffcc 	andi	r2,r2,65535
  c02098:	1000031e 	bne	r2,zero,c020a8 <put_lfn+0x148>
  c0209c:	e0bffe03 	ldbu	r2,-8(fp)
  c020a0:	10801014 	ori	r2,r2,64
  c020a4:	e0bffe05 	stb	r2,-8(fp)
  c020a8:	e0bffd17 	ldw	r2,-12(fp)
  c020ac:	e0fffe03 	ldbu	r3,-8(fp)
  c020b0:	10c00005 	stb	r3,0(r2)
  c020b4:	0001883a 	nop
  c020b8:	e037883a 	mov	sp,fp
  c020bc:	dfc00117 	ldw	ra,4(sp)
  c020c0:	df000017 	ldw	fp,0(sp)
  c020c4:	dec00204 	addi	sp,sp,8
  c020c8:	f800283a 	ret

00c020cc <gen_numname>:
  c020cc:	defff304 	addi	sp,sp,-52
  c020d0:	dfc00c15 	stw	ra,48(sp)
  c020d4:	df000b15 	stw	fp,44(sp)
  c020d8:	df000b04 	addi	fp,sp,44
  c020dc:	e13ffc15 	stw	r4,-16(fp)
  c020e0:	e17ffd15 	stw	r5,-12(fp)
  c020e4:	e1bffe15 	stw	r6,-8(fp)
  c020e8:	e1ffff15 	stw	r7,-4(fp)
  c020ec:	018002c4 	movi	r6,11
  c020f0:	e17ffd17 	ldw	r5,-12(fp)
  c020f4:	e13ffc17 	ldw	r4,-16(fp)
  c020f8:	0c10bf80 	call	c10bf8 <memcpy>
  c020fc:	e0bfff17 	ldw	r2,-4(fp)
  c02100:	108001b0 	cmpltui	r2,r2,6
  c02104:	1000281e 	bne	r2,zero,c021a8 <gen_numname+0xdc>
  c02108:	e0bfff17 	ldw	r2,-4(fp)
  c0210c:	e0bff915 	stw	r2,-28(fp)
  c02110:	00001f06 	br	c02190 <gen_numname+0xc4>
  c02114:	e0bffe17 	ldw	r2,-8(fp)
  c02118:	10c00084 	addi	r3,r2,2
  c0211c:	e0fffe15 	stw	r3,-8(fp)
  c02120:	1080000b 	ldhu	r2,0(r2)
  c02124:	e0bff80d 	sth	r2,-32(fp)
  c02128:	e03ff615 	stw	zero,-40(fp)
  c0212c:	00001506 	br	c02184 <gen_numname+0xb8>
  c02130:	e0bff917 	ldw	r2,-28(fp)
  c02134:	1085883a 	add	r2,r2,r2
  c02138:	1007883a 	mov	r3,r2
  c0213c:	e0bff80b 	ldhu	r2,-32(fp)
  c02140:	1080004c 	andi	r2,r2,1
  c02144:	1885883a 	add	r2,r3,r2
  c02148:	e0bff915 	stw	r2,-28(fp)
  c0214c:	e0bff80b 	ldhu	r2,-32(fp)
  c02150:	1004d07a 	srli	r2,r2,1
  c02154:	e0bff80d 	sth	r2,-32(fp)
  c02158:	e0bff917 	ldw	r2,-28(fp)
  c0215c:	1080006c 	andhi	r2,r2,1
  c02160:	10000526 	beq	r2,zero,c02178 <gen_numname+0xac>
  c02164:	e0fff917 	ldw	r3,-28(fp)
  c02168:	00800074 	movhi	r2,1
  c0216c:	10840844 	addi	r2,r2,4129
  c02170:	1884f03a 	xor	r2,r3,r2
  c02174:	e0bff915 	stw	r2,-28(fp)
  c02178:	e0bff617 	ldw	r2,-40(fp)
  c0217c:	10800044 	addi	r2,r2,1
  c02180:	e0bff615 	stw	r2,-40(fp)
  c02184:	e0bff617 	ldw	r2,-40(fp)
  c02188:	10800430 	cmpltui	r2,r2,16
  c0218c:	103fe81e 	bne	r2,zero,c02130 <__alt_data_end+0xffb82130>
  c02190:	e0bffe17 	ldw	r2,-8(fp)
  c02194:	1080000b 	ldhu	r2,0(r2)
  c02198:	10bfffcc 	andi	r2,r2,65535
  c0219c:	103fdd1e 	bne	r2,zero,c02114 <__alt_data_end+0xffb82114>
  c021a0:	e0bff917 	ldw	r2,-28(fp)
  c021a4:	e0bfff15 	stw	r2,-4(fp)
  c021a8:	008001c4 	movi	r2,7
  c021ac:	e0bff615 	stw	r2,-40(fp)
  c021b0:	e0bfff17 	ldw	r2,-4(fp)
  c021b4:	108003cc 	andi	r2,r2,15
  c021b8:	10800c04 	addi	r2,r2,48
  c021bc:	e0bff505 	stb	r2,-44(fp)
  c021c0:	e0bfff17 	ldw	r2,-4(fp)
  c021c4:	1004d13a 	srli	r2,r2,4
  c021c8:	e0bfff15 	stw	r2,-4(fp)
  c021cc:	e0bff503 	ldbu	r2,-44(fp)
  c021d0:	10800eb0 	cmpltui	r2,r2,58
  c021d4:	1000031e 	bne	r2,zero,c021e4 <gen_numname+0x118>
  c021d8:	e0bff503 	ldbu	r2,-44(fp)
  c021dc:	108001c4 	addi	r2,r2,7
  c021e0:	e0bff505 	stb	r2,-44(fp)
  c021e4:	e0bff617 	ldw	r2,-40(fp)
  c021e8:	10ffffc4 	addi	r3,r2,-1
  c021ec:	e0fff615 	stw	r3,-40(fp)
  c021f0:	e0fffa04 	addi	r3,fp,-24
  c021f4:	1885883a 	add	r2,r3,r2
  c021f8:	e0fff503 	ldbu	r3,-44(fp)
  c021fc:	10c00005 	stb	r3,0(r2)
  c02200:	e0bff617 	ldw	r2,-40(fp)
  c02204:	10000226 	beq	r2,zero,c02210 <gen_numname+0x144>
  c02208:	e0bfff17 	ldw	r2,-4(fp)
  c0220c:	103fe81e 	bne	r2,zero,c021b0 <__alt_data_end+0xffb821b0>
  c02210:	e0fffa04 	addi	r3,fp,-24
  c02214:	e0bff617 	ldw	r2,-40(fp)
  c02218:	1885883a 	add	r2,r3,r2
  c0221c:	00c01f84 	movi	r3,126
  c02220:	10c00005 	stb	r3,0(r2)
  c02224:	e03ff715 	stw	zero,-36(fp)
  c02228:	00001306 	br	c02278 <gen_numname+0x1ac>
  c0222c:	e0fffc17 	ldw	r3,-16(fp)
  c02230:	e0bff717 	ldw	r2,-36(fp)
  c02234:	1885883a 	add	r2,r3,r2
  c02238:	10800003 	ldbu	r2,0(r2)
  c0223c:	10803fcc 	andi	r2,r2,255
  c02240:	1009883a 	mov	r4,r2
  c02244:	0c005cc0 	call	c005cc <dbc_1st>
  c02248:	10000826 	beq	r2,zero,c0226c <gen_numname+0x1a0>
  c0224c:	e0bff617 	ldw	r2,-40(fp)
  c02250:	10ffffc4 	addi	r3,r2,-1
  c02254:	e0bff717 	ldw	r2,-36(fp)
  c02258:	1880011e 	bne	r3,r2,c02260 <gen_numname+0x194>
  c0225c:	00001006 	br	c022a0 <gen_numname+0x1d4>
  c02260:	e0bff717 	ldw	r2,-36(fp)
  c02264:	10800044 	addi	r2,r2,1
  c02268:	e0bff715 	stw	r2,-36(fp)
  c0226c:	e0bff717 	ldw	r2,-36(fp)
  c02270:	10800044 	addi	r2,r2,1
  c02274:	e0bff715 	stw	r2,-36(fp)
  c02278:	e0fff717 	ldw	r3,-36(fp)
  c0227c:	e0bff617 	ldw	r2,-40(fp)
  c02280:	1880072e 	bgeu	r3,r2,c022a0 <gen_numname+0x1d4>
  c02284:	e0fffc17 	ldw	r3,-16(fp)
  c02288:	e0bff717 	ldw	r2,-36(fp)
  c0228c:	1885883a 	add	r2,r3,r2
  c02290:	10800003 	ldbu	r2,0(r2)
  c02294:	10803fcc 	andi	r2,r2,255
  c02298:	10800818 	cmpnei	r2,r2,32
  c0229c:	103fe31e 	bne	r2,zero,c0222c <__alt_data_end+0xffb8222c>
  c022a0:	e0bff717 	ldw	r2,-36(fp)
  c022a4:	10c00044 	addi	r3,r2,1
  c022a8:	e0fff715 	stw	r3,-36(fp)
  c022ac:	e0fffc17 	ldw	r3,-16(fp)
  c022b0:	1887883a 	add	r3,r3,r2
  c022b4:	e0bff617 	ldw	r2,-40(fp)
  c022b8:	10800228 	cmpgeui	r2,r2,8
  c022bc:	1000071e 	bne	r2,zero,c022dc <gen_numname+0x210>
  c022c0:	e0bff617 	ldw	r2,-40(fp)
  c022c4:	11000044 	addi	r4,r2,1
  c022c8:	e13ff615 	stw	r4,-40(fp)
  c022cc:	e13ffa04 	addi	r4,fp,-24
  c022d0:	2085883a 	add	r2,r4,r2
  c022d4:	10800003 	ldbu	r2,0(r2)
  c022d8:	00000106 	br	c022e0 <gen_numname+0x214>
  c022dc:	00800804 	movi	r2,32
  c022e0:	18800005 	stb	r2,0(r3)
  c022e4:	e0bff717 	ldw	r2,-36(fp)
  c022e8:	10800230 	cmpltui	r2,r2,8
  c022ec:	103fec1e 	bne	r2,zero,c022a0 <__alt_data_end+0xffb822a0>
  c022f0:	0001883a 	nop
  c022f4:	e037883a 	mov	sp,fp
  c022f8:	dfc00117 	ldw	ra,4(sp)
  c022fc:	df000017 	ldw	fp,0(sp)
  c02300:	dec00204 	addi	sp,sp,8
  c02304:	f800283a 	ret

00c02308 <sum_sfn>:
  c02308:	defffc04 	addi	sp,sp,-16
  c0230c:	df000315 	stw	fp,12(sp)
  c02310:	df000304 	addi	fp,sp,12
  c02314:	e13fff15 	stw	r4,-4(fp)
  c02318:	e03ffd05 	stb	zero,-12(fp)
  c0231c:	008002c4 	movi	r2,11
  c02320:	e0bffe15 	stw	r2,-8(fp)
  c02324:	e0bffd03 	ldbu	r2,-12(fp)
  c02328:	10c03fcc 	andi	r3,r2,255
  c0232c:	1806d07a 	srli	r3,r3,1
  c02330:	100491fa 	slli	r2,r2,7
  c02334:	1884b03a 	or	r2,r3,r2
  c02338:	1009883a 	mov	r4,r2
  c0233c:	e0bfff17 	ldw	r2,-4(fp)
  c02340:	10c00044 	addi	r3,r2,1
  c02344:	e0ffff15 	stw	r3,-4(fp)
  c02348:	10800003 	ldbu	r2,0(r2)
  c0234c:	2085883a 	add	r2,r4,r2
  c02350:	e0bffd05 	stb	r2,-12(fp)
  c02354:	e0bffe17 	ldw	r2,-8(fp)
  c02358:	10bfffc4 	addi	r2,r2,-1
  c0235c:	e0bffe15 	stw	r2,-8(fp)
  c02360:	e0bffe17 	ldw	r2,-8(fp)
  c02364:	103fef1e 	bne	r2,zero,c02324 <__alt_data_end+0xffb82324>
  c02368:	e0bffd03 	ldbu	r2,-12(fp)
  c0236c:	e037883a 	mov	sp,fp
  c02370:	df000017 	ldw	fp,0(sp)
  c02374:	dec00104 	addi	sp,sp,4
  c02378:	f800283a 	ret

00c0237c <dir_read>:
  c0237c:	defff804 	addi	sp,sp,-32
  c02380:	dfc00715 	stw	ra,28(sp)
  c02384:	df000615 	stw	fp,24(sp)
  c02388:	df000604 	addi	fp,sp,24
  c0238c:	e13ffe15 	stw	r4,-8(fp)
  c02390:	e17fff15 	stw	r5,-4(fp)
  c02394:	00800104 	movi	r2,4
  c02398:	e0bffa15 	stw	r2,-24(fp)
  c0239c:	e0bffe17 	ldw	r2,-8(fp)
  c023a0:	10800017 	ldw	r2,0(r2)
  c023a4:	e0bffc15 	stw	r2,-16(fp)
  c023a8:	00bfffc4 	movi	r2,-1
  c023ac:	e0bffb45 	stb	r2,-19(fp)
  c023b0:	00bfffc4 	movi	r2,-1
  c023b4:	e0bffb85 	stb	r2,-18(fp)
  c023b8:	00006906 	br	c02560 <dir_read+0x1e4>
  c023bc:	e0bffe17 	ldw	r2,-8(fp)
  c023c0:	10800617 	ldw	r2,24(r2)
  c023c4:	100b883a 	mov	r5,r2
  c023c8:	e13ffc17 	ldw	r4,-16(fp)
  c023cc:	0c009800 	call	c00980 <move_window>
  c023d0:	e0bffa15 	stw	r2,-24(fp)
  c023d4:	e0bffa17 	ldw	r2,-24(fp)
  c023d8:	1000651e 	bne	r2,zero,c02570 <dir_read+0x1f4>
  c023dc:	e0bffe17 	ldw	r2,-8(fp)
  c023e0:	10800717 	ldw	r2,28(r2)
  c023e4:	10800003 	ldbu	r2,0(r2)
  c023e8:	e0bffb05 	stb	r2,-20(fp)
  c023ec:	e0bffb03 	ldbu	r2,-20(fp)
  c023f0:	1000031e 	bne	r2,zero,c02400 <dir_read+0x84>
  c023f4:	00800104 	movi	r2,4
  c023f8:	e0bffa15 	stw	r2,-24(fp)
  c023fc:	00006106 	br	c02584 <dir_read+0x208>
  c02400:	e0bffe17 	ldw	r2,-8(fp)
  c02404:	10800717 	ldw	r2,28(r2)
  c02408:	108002c4 	addi	r2,r2,11
  c0240c:	10800003 	ldbu	r2,0(r2)
  c02410:	10800fcc 	andi	r2,r2,63
  c02414:	e0bffd05 	stb	r2,-12(fp)
  c02418:	e0bffe17 	ldw	r2,-8(fp)
  c0241c:	e0fffd03 	ldbu	r3,-12(fp)
  c02420:	10c00185 	stb	r3,6(r2)
  c02424:	e0bffb03 	ldbu	r2,-20(fp)
  c02428:	10803960 	cmpeqi	r2,r2,229
  c0242c:	10000a1e 	bne	r2,zero,c02458 <dir_read+0xdc>
  c02430:	e0bffb03 	ldbu	r2,-20(fp)
  c02434:	10800ba0 	cmpeqi	r2,r2,46
  c02438:	1000071e 	bne	r2,zero,c02458 <dir_read+0xdc>
  c0243c:	e0fffd03 	ldbu	r3,-12(fp)
  c02440:	00bff7c4 	movi	r2,-33
  c02444:	1884703a 	and	r2,r3,r2
  c02448:	10800220 	cmpeqi	r2,r2,8
  c0244c:	10c03fcc 	andi	r3,r2,255
  c02450:	e0bfff17 	ldw	r2,-4(fp)
  c02454:	18800326 	beq	r3,r2,c02464 <dir_read+0xe8>
  c02458:	00bfffc4 	movi	r2,-1
  c0245c:	e0bffb45 	stb	r2,-19(fp)
  c02460:	00003906 	br	c02548 <dir_read+0x1cc>
  c02464:	e0bffd03 	ldbu	r2,-12(fp)
  c02468:	108003d8 	cmpnei	r2,r2,15
  c0246c:	1000291e 	bne	r2,zero,c02514 <dir_read+0x198>
  c02470:	e0bffb03 	ldbu	r2,-20(fp)
  c02474:	1080100c 	andi	r2,r2,64
  c02478:	10000e26 	beq	r2,zero,c024b4 <dir_read+0x138>
  c0247c:	e0bffe17 	ldw	r2,-8(fp)
  c02480:	10800717 	ldw	r2,28(r2)
  c02484:	10800343 	ldbu	r2,13(r2)
  c02488:	e0bffb85 	stb	r2,-18(fp)
  c0248c:	e0fffb03 	ldbu	r3,-20(fp)
  c02490:	00bfefc4 	movi	r2,-65
  c02494:	1884703a 	and	r2,r3,r2
  c02498:	e0bffb05 	stb	r2,-20(fp)
  c0249c:	e0bffb03 	ldbu	r2,-20(fp)
  c024a0:	e0bffb45 	stb	r2,-19(fp)
  c024a4:	e0bffe17 	ldw	r2,-8(fp)
  c024a8:	10c00417 	ldw	r3,16(r2)
  c024ac:	e0bffe17 	ldw	r2,-8(fp)
  c024b0:	10c00b15 	stw	r3,44(r2)
  c024b4:	e0fffb03 	ldbu	r3,-20(fp)
  c024b8:	e0bffb43 	ldbu	r2,-19(fp)
  c024bc:	1880121e 	bne	r3,r2,c02508 <dir_read+0x18c>
  c024c0:	e0bffe17 	ldw	r2,-8(fp)
  c024c4:	10800717 	ldw	r2,28(r2)
  c024c8:	10800344 	addi	r2,r2,13
  c024cc:	10800003 	ldbu	r2,0(r2)
  c024d0:	10c03fcc 	andi	r3,r2,255
  c024d4:	e0bffb83 	ldbu	r2,-18(fp)
  c024d8:	18800b1e 	bne	r3,r2,c02508 <dir_read+0x18c>
  c024dc:	e0bffc17 	ldw	r2,-16(fp)
  c024e0:	10c00317 	ldw	r3,12(r2)
  c024e4:	e0bffe17 	ldw	r2,-8(fp)
  c024e8:	10800717 	ldw	r2,28(r2)
  c024ec:	100b883a 	mov	r5,r2
  c024f0:	1809883a 	mov	r4,r3
  c024f4:	0c01dec0 	call	c01dec <pick_lfn>
  c024f8:	10000326 	beq	r2,zero,c02508 <dir_read+0x18c>
  c024fc:	e0bffb43 	ldbu	r2,-19(fp)
  c02500:	10bfffc4 	addi	r2,r2,-1
  c02504:	00000106 	br	c0250c <dir_read+0x190>
  c02508:	00bfffc4 	movi	r2,-1
  c0250c:	e0bffb45 	stb	r2,-19(fp)
  c02510:	00000d06 	br	c02548 <dir_read+0x1cc>
  c02514:	e0bffb43 	ldbu	r2,-19(fp)
  c02518:	1000071e 	bne	r2,zero,c02538 <dir_read+0x1bc>
  c0251c:	e0bffe17 	ldw	r2,-8(fp)
  c02520:	10800717 	ldw	r2,28(r2)
  c02524:	1009883a 	mov	r4,r2
  c02528:	0c023080 	call	c02308 <sum_sfn>
  c0252c:	10c03fcc 	andi	r3,r2,255
  c02530:	e0bffb83 	ldbu	r2,-18(fp)
  c02534:	18801026 	beq	r3,r2,c02578 <dir_read+0x1fc>
  c02538:	e0bffe17 	ldw	r2,-8(fp)
  c0253c:	00ffffc4 	movi	r3,-1
  c02540:	10c00b15 	stw	r3,44(r2)
  c02544:	00000c06 	br	c02578 <dir_read+0x1fc>
  c02548:	000b883a 	mov	r5,zero
  c0254c:	e13ffe17 	ldw	r4,-8(fp)
  c02550:	0c018580 	call	c01858 <dir_next>
  c02554:	e0bffa15 	stw	r2,-24(fp)
  c02558:	e0bffa17 	ldw	r2,-24(fp)
  c0255c:	1000081e 	bne	r2,zero,c02580 <dir_read+0x204>
  c02560:	e0bffe17 	ldw	r2,-8(fp)
  c02564:	10800617 	ldw	r2,24(r2)
  c02568:	103f941e 	bne	r2,zero,c023bc <__alt_data_end+0xffb823bc>
  c0256c:	00000506 	br	c02584 <dir_read+0x208>
  c02570:	0001883a 	nop
  c02574:	00000306 	br	c02584 <dir_read+0x208>
  c02578:	0001883a 	nop
  c0257c:	00000106 	br	c02584 <dir_read+0x208>
  c02580:	0001883a 	nop
  c02584:	e0bffa17 	ldw	r2,-24(fp)
  c02588:	10000226 	beq	r2,zero,c02594 <dir_read+0x218>
  c0258c:	e0bffe17 	ldw	r2,-8(fp)
  c02590:	10000615 	stw	zero,24(r2)
  c02594:	e0bffa17 	ldw	r2,-24(fp)
  c02598:	e037883a 	mov	sp,fp
  c0259c:	dfc00117 	ldw	ra,4(sp)
  c025a0:	df000017 	ldw	fp,0(sp)
  c025a4:	dec00204 	addi	sp,sp,8
  c025a8:	f800283a 	ret

00c025ac <dir_find>:
  c025ac:	defff904 	addi	sp,sp,-28
  c025b0:	dfc00615 	stw	ra,24(sp)
  c025b4:	df000515 	stw	fp,20(sp)
  c025b8:	df000504 	addi	fp,sp,20
  c025bc:	e13fff15 	stw	r4,-4(fp)
  c025c0:	e0bfff17 	ldw	r2,-4(fp)
  c025c4:	10800017 	ldw	r2,0(r2)
  c025c8:	e0bffd15 	stw	r2,-12(fp)
  c025cc:	000b883a 	mov	r5,zero
  c025d0:	e13fff17 	ldw	r4,-4(fp)
  c025d4:	0c016900 	call	c01690 <dir_sdi>
  c025d8:	e0bffb15 	stw	r2,-20(fp)
  c025dc:	e0bffb17 	ldw	r2,-20(fp)
  c025e0:	10000226 	beq	r2,zero,c025ec <dir_find+0x40>
  c025e4:	e0bffb17 	ldw	r2,-20(fp)
  c025e8:	00008a06 	br	c02814 <dir_find+0x268>
  c025ec:	00bfffc4 	movi	r2,-1
  c025f0:	e0bffc85 	stb	r2,-14(fp)
  c025f4:	e0bffc83 	ldbu	r2,-14(fp)
  c025f8:	e0bffc45 	stb	r2,-15(fp)
  c025fc:	e0bfff17 	ldw	r2,-4(fp)
  c02600:	00ffffc4 	movi	r3,-1
  c02604:	10c00b15 	stw	r3,44(r2)
  c02608:	e0bfff17 	ldw	r2,-4(fp)
  c0260c:	10800617 	ldw	r2,24(r2)
  c02610:	100b883a 	mov	r5,r2
  c02614:	e13ffd17 	ldw	r4,-12(fp)
  c02618:	0c009800 	call	c00980 <move_window>
  c0261c:	e0bffb15 	stw	r2,-20(fp)
  c02620:	e0bffb17 	ldw	r2,-20(fp)
  c02624:	1000751e 	bne	r2,zero,c027fc <dir_find+0x250>
  c02628:	e0bfff17 	ldw	r2,-4(fp)
  c0262c:	10800717 	ldw	r2,28(r2)
  c02630:	10800003 	ldbu	r2,0(r2)
  c02634:	e0bffc05 	stb	r2,-16(fp)
  c02638:	e0bffc03 	ldbu	r2,-16(fp)
  c0263c:	1000031e 	bne	r2,zero,c0264c <dir_find+0xa0>
  c02640:	00800104 	movi	r2,4
  c02644:	e0bffb15 	stw	r2,-20(fp)
  c02648:	00007106 	br	c02810 <dir_find+0x264>
  c0264c:	e0bfff17 	ldw	r2,-4(fp)
  c02650:	10800717 	ldw	r2,28(r2)
  c02654:	108002c4 	addi	r2,r2,11
  c02658:	10800003 	ldbu	r2,0(r2)
  c0265c:	10800fcc 	andi	r2,r2,63
  c02660:	e0bffe05 	stb	r2,-8(fp)
  c02664:	e0bfff17 	ldw	r2,-4(fp)
  c02668:	e0fffe03 	ldbu	r3,-8(fp)
  c0266c:	10c00185 	stb	r3,6(r2)
  c02670:	e0bffc03 	ldbu	r2,-16(fp)
  c02674:	10803960 	cmpeqi	r2,r2,229
  c02678:	1000061e 	bne	r2,zero,c02694 <dir_find+0xe8>
  c0267c:	e0bffe03 	ldbu	r2,-8(fp)
  c02680:	1080020c 	andi	r2,r2,8
  c02684:	10000926 	beq	r2,zero,c026ac <dir_find+0x100>
  c02688:	e0bffe03 	ldbu	r2,-8(fp)
  c0268c:	108003e0 	cmpeqi	r2,r2,15
  c02690:	1000061e 	bne	r2,zero,c026ac <dir_find+0x100>
  c02694:	00bfffc4 	movi	r2,-1
  c02698:	e0bffc45 	stb	r2,-15(fp)
  c0269c:	e0bfff17 	ldw	r2,-4(fp)
  c026a0:	00ffffc4 	movi	r3,-1
  c026a4:	10c00b15 	stw	r3,44(r2)
  c026a8:	00004d06 	br	c027e0 <dir_find+0x234>
  c026ac:	e0bffe03 	ldbu	r2,-8(fp)
  c026b0:	108003d8 	cmpnei	r2,r2,15
  c026b4:	10002e1e 	bne	r2,zero,c02770 <dir_find+0x1c4>
  c026b8:	e0bfff17 	ldw	r2,-4(fp)
  c026bc:	10800ac3 	ldbu	r2,43(r2)
  c026c0:	10803fcc 	andi	r2,r2,255
  c026c4:	1080100c 	andi	r2,r2,64
  c026c8:	1000451e 	bne	r2,zero,c027e0 <dir_find+0x234>
  c026cc:	e0bffc03 	ldbu	r2,-16(fp)
  c026d0:	1080100c 	andi	r2,r2,64
  c026d4:	10000e26 	beq	r2,zero,c02710 <dir_find+0x164>
  c026d8:	e0bfff17 	ldw	r2,-4(fp)
  c026dc:	10800717 	ldw	r2,28(r2)
  c026e0:	10800343 	ldbu	r2,13(r2)
  c026e4:	e0bffc85 	stb	r2,-14(fp)
  c026e8:	e0fffc03 	ldbu	r3,-16(fp)
  c026ec:	00bfefc4 	movi	r2,-65
  c026f0:	1884703a 	and	r2,r3,r2
  c026f4:	e0bffc05 	stb	r2,-16(fp)
  c026f8:	e0bffc03 	ldbu	r2,-16(fp)
  c026fc:	e0bffc45 	stb	r2,-15(fp)
  c02700:	e0bfff17 	ldw	r2,-4(fp)
  c02704:	10c00417 	ldw	r3,16(r2)
  c02708:	e0bfff17 	ldw	r2,-4(fp)
  c0270c:	10c00b15 	stw	r3,44(r2)
  c02710:	e0fffc03 	ldbu	r3,-16(fp)
  c02714:	e0bffc43 	ldbu	r2,-15(fp)
  c02718:	1880121e 	bne	r3,r2,c02764 <dir_find+0x1b8>
  c0271c:	e0bfff17 	ldw	r2,-4(fp)
  c02720:	10800717 	ldw	r2,28(r2)
  c02724:	10800344 	addi	r2,r2,13
  c02728:	10800003 	ldbu	r2,0(r2)
  c0272c:	10c03fcc 	andi	r3,r2,255
  c02730:	e0bffc83 	ldbu	r2,-14(fp)
  c02734:	18800b1e 	bne	r3,r2,c02764 <dir_find+0x1b8>
  c02738:	e0bffd17 	ldw	r2,-12(fp)
  c0273c:	10c00317 	ldw	r3,12(r2)
  c02740:	e0bfff17 	ldw	r2,-4(fp)
  c02744:	10800717 	ldw	r2,28(r2)
  c02748:	100b883a 	mov	r5,r2
  c0274c:	1809883a 	mov	r4,r3
  c02750:	0c01c5c0 	call	c01c5c <cmp_lfn>
  c02754:	10000326 	beq	r2,zero,c02764 <dir_find+0x1b8>
  c02758:	e0bffc43 	ldbu	r2,-15(fp)
  c0275c:	10bfffc4 	addi	r2,r2,-1
  c02760:	00000106 	br	c02768 <dir_find+0x1bc>
  c02764:	00bfffc4 	movi	r2,-1
  c02768:	e0bffc45 	stb	r2,-15(fp)
  c0276c:	00001c06 	br	c027e0 <dir_find+0x234>
  c02770:	e0bffc43 	ldbu	r2,-15(fp)
  c02774:	1000071e 	bne	r2,zero,c02794 <dir_find+0x1e8>
  c02778:	e0bfff17 	ldw	r2,-4(fp)
  c0277c:	10800717 	ldw	r2,28(r2)
  c02780:	1009883a 	mov	r4,r2
  c02784:	0c023080 	call	c02308 <sum_sfn>
  c02788:	10c03fcc 	andi	r3,r2,255
  c0278c:	e0bffc83 	ldbu	r2,-14(fp)
  c02790:	18801c26 	beq	r3,r2,c02804 <dir_find+0x258>
  c02794:	e0bfff17 	ldw	r2,-4(fp)
  c02798:	10800ac3 	ldbu	r2,43(r2)
  c0279c:	10803fcc 	andi	r2,r2,255
  c027a0:	1080004c 	andi	r2,r2,1
  c027a4:	1000091e 	bne	r2,zero,c027cc <dir_find+0x220>
  c027a8:	e0bfff17 	ldw	r2,-4(fp)
  c027ac:	10c00717 	ldw	r3,28(r2)
  c027b0:	e0bfff17 	ldw	r2,-4(fp)
  c027b4:	10800804 	addi	r2,r2,32
  c027b8:	018002c4 	movi	r6,11
  c027bc:	100b883a 	mov	r5,r2
  c027c0:	1809883a 	mov	r4,r3
  c027c4:	0c10b7c0 	call	c10b7c <memcmp>
  c027c8:	10001026 	beq	r2,zero,c0280c <dir_find+0x260>
  c027cc:	00bfffc4 	movi	r2,-1
  c027d0:	e0bffc45 	stb	r2,-15(fp)
  c027d4:	e0bfff17 	ldw	r2,-4(fp)
  c027d8:	00ffffc4 	movi	r3,-1
  c027dc:	10c00b15 	stw	r3,44(r2)
  c027e0:	000b883a 	mov	r5,zero
  c027e4:	e13fff17 	ldw	r4,-4(fp)
  c027e8:	0c018580 	call	c01858 <dir_next>
  c027ec:	e0bffb15 	stw	r2,-20(fp)
  c027f0:	e0bffb17 	ldw	r2,-20(fp)
  c027f4:	103f8426 	beq	r2,zero,c02608 <__alt_data_end+0xffb82608>
  c027f8:	00000506 	br	c02810 <dir_find+0x264>
  c027fc:	0001883a 	nop
  c02800:	00000306 	br	c02810 <dir_find+0x264>
  c02804:	0001883a 	nop
  c02808:	00000106 	br	c02810 <dir_find+0x264>
  c0280c:	0001883a 	nop
  c02810:	e0bffb17 	ldw	r2,-20(fp)
  c02814:	e037883a 	mov	sp,fp
  c02818:	dfc00117 	ldw	ra,4(sp)
  c0281c:	df000017 	ldw	fp,0(sp)
  c02820:	dec00204 	addi	sp,sp,8
  c02824:	f800283a 	ret

00c02828 <dir_register>:
  c02828:	defff404 	addi	sp,sp,-48
  c0282c:	dfc00b15 	stw	ra,44(sp)
  c02830:	df000a15 	stw	fp,40(sp)
  c02834:	df000a04 	addi	fp,sp,40
  c02838:	e13fff15 	stw	r4,-4(fp)
  c0283c:	e0bfff17 	ldw	r2,-4(fp)
  c02840:	10800017 	ldw	r2,0(r2)
  c02844:	e0bffa15 	stw	r2,-24(fp)
  c02848:	e0bfff17 	ldw	r2,-4(fp)
  c0284c:	10800ac3 	ldbu	r2,43(r2)
  c02850:	10803fcc 	andi	r2,r2,255
  c02854:	1080280c 	andi	r2,r2,160
  c02858:	10000226 	beq	r2,zero,c02864 <dir_register+0x3c>
  c0285c:	00800184 	movi	r2,6
  c02860:	0000c406 	br	c02b74 <dir_register+0x34c>
  c02864:	e03ff815 	stw	zero,-32(fp)
  c02868:	00000306 	br	c02878 <dir_register+0x50>
  c0286c:	e0bff817 	ldw	r2,-32(fp)
  c02870:	10800044 	addi	r2,r2,1
  c02874:	e0bff815 	stw	r2,-32(fp)
  c02878:	e0bffa17 	ldw	r2,-24(fp)
  c0287c:	10c00317 	ldw	r3,12(r2)
  c02880:	e0bff817 	ldw	r2,-32(fp)
  c02884:	1085883a 	add	r2,r2,r2
  c02888:	1885883a 	add	r2,r3,r2
  c0288c:	1080000b 	ldhu	r2,0(r2)
  c02890:	10bfffcc 	andi	r2,r2,65535
  c02894:	103ff51e 	bne	r2,zero,c0286c <__alt_data_end+0xffb8286c>
  c02898:	e0bfff17 	ldw	r2,-4(fp)
  c0289c:	10800804 	addi	r2,r2,32
  c028a0:	10c00003 	ldbu	r3,0(r2)
  c028a4:	e0fffb45 	stb	r3,-19(fp)
  c028a8:	10c00043 	ldbu	r3,1(r2)
  c028ac:	e0fffb85 	stb	r3,-18(fp)
  c028b0:	10c00083 	ldbu	r3,2(r2)
  c028b4:	e0fffbc5 	stb	r3,-17(fp)
  c028b8:	10c000c3 	ldbu	r3,3(r2)
  c028bc:	e0fffc05 	stb	r3,-16(fp)
  c028c0:	10c00103 	ldbu	r3,4(r2)
  c028c4:	e0fffc45 	stb	r3,-15(fp)
  c028c8:	10c00143 	ldbu	r3,5(r2)
  c028cc:	e0fffc85 	stb	r3,-14(fp)
  c028d0:	10c00183 	ldbu	r3,6(r2)
  c028d4:	e0fffcc5 	stb	r3,-13(fp)
  c028d8:	10c001c3 	ldbu	r3,7(r2)
  c028dc:	e0fffd05 	stb	r3,-12(fp)
  c028e0:	10c00203 	ldbu	r3,8(r2)
  c028e4:	e0fffd45 	stb	r3,-11(fp)
  c028e8:	10c00243 	ldbu	r3,9(r2)
  c028ec:	e0fffd85 	stb	r3,-10(fp)
  c028f0:	10c00283 	ldbu	r3,10(r2)
  c028f4:	e0fffdc5 	stb	r3,-9(fp)
  c028f8:	108002c3 	ldbu	r2,11(r2)
  c028fc:	e0bffe05 	stb	r2,-8(fp)
  c02900:	e0bffe03 	ldbu	r2,-8(fp)
  c02904:	10803fcc 	andi	r2,r2,255
  c02908:	1080004c 	andi	r2,r2,1
  c0290c:	10002a26 	beq	r2,zero,c029b8 <dir_register+0x190>
  c02910:	e0bfff17 	ldw	r2,-4(fp)
  c02914:	00c01004 	movi	r3,64
  c02918:	10c00ac5 	stb	r3,43(r2)
  c0291c:	00800044 	movi	r2,1
  c02920:	e0bff715 	stw	r2,-36(fp)
  c02924:	00001206 	br	c02970 <dir_register+0x148>
  c02928:	e0bfff17 	ldw	r2,-4(fp)
  c0292c:	10c00804 	addi	r3,r2,32
  c02930:	e0bffa17 	ldw	r2,-24(fp)
  c02934:	11000317 	ldw	r4,12(r2)
  c02938:	e0bffb44 	addi	r2,fp,-19
  c0293c:	e1fff717 	ldw	r7,-36(fp)
  c02940:	200d883a 	mov	r6,r4
  c02944:	100b883a 	mov	r5,r2
  c02948:	1809883a 	mov	r4,r3
  c0294c:	0c020cc0 	call	c020cc <gen_numname>
  c02950:	e13fff17 	ldw	r4,-4(fp)
  c02954:	0c025ac0 	call	c025ac <dir_find>
  c02958:	e0bff615 	stw	r2,-40(fp)
  c0295c:	e0bff617 	ldw	r2,-40(fp)
  c02960:	1000071e 	bne	r2,zero,c02980 <dir_register+0x158>
  c02964:	e0bff717 	ldw	r2,-36(fp)
  c02968:	10800044 	addi	r2,r2,1
  c0296c:	e0bff715 	stw	r2,-36(fp)
  c02970:	e0bff717 	ldw	r2,-36(fp)
  c02974:	10801930 	cmpltui	r2,r2,100
  c02978:	103feb1e 	bne	r2,zero,c02928 <__alt_data_end+0xffb82928>
  c0297c:	00000106 	br	c02984 <dir_register+0x15c>
  c02980:	0001883a 	nop
  c02984:	e0bff717 	ldw	r2,-36(fp)
  c02988:	10801918 	cmpnei	r2,r2,100
  c0298c:	1000021e 	bne	r2,zero,c02998 <dir_register+0x170>
  c02990:	008001c4 	movi	r2,7
  c02994:	00007706 	br	c02b74 <dir_register+0x34c>
  c02998:	e0bff617 	ldw	r2,-40(fp)
  c0299c:	10800120 	cmpeqi	r2,r2,4
  c029a0:	1000021e 	bne	r2,zero,c029ac <dir_register+0x184>
  c029a4:	e0bff617 	ldw	r2,-40(fp)
  c029a8:	00007206 	br	c02b74 <dir_register+0x34c>
  c029ac:	e0fffe03 	ldbu	r3,-8(fp)
  c029b0:	e0bfff17 	ldw	r2,-4(fp)
  c029b4:	10c00ac5 	stb	r3,43(r2)
  c029b8:	e0bffe03 	ldbu	r2,-8(fp)
  c029bc:	10803fcc 	andi	r2,r2,255
  c029c0:	1080008c 	andi	r2,r2,2
  c029c4:	10000726 	beq	r2,zero,c029e4 <dir_register+0x1bc>
  c029c8:	e0bff817 	ldw	r2,-32(fp)
  c029cc:	10800304 	addi	r2,r2,12
  c029d0:	01400344 	movi	r5,13
  c029d4:	1009883a 	mov	r4,r2
  c029d8:	0c0e2400 	call	c0e240 <__udivsi3>
  c029dc:	10800044 	addi	r2,r2,1
  c029e0:	00000106 	br	c029e8 <dir_register+0x1c0>
  c029e4:	00800044 	movi	r2,1
  c029e8:	e0bff915 	stw	r2,-28(fp)
  c029ec:	e17ff917 	ldw	r5,-28(fp)
  c029f0:	e13fff17 	ldw	r4,-4(fp)
  c029f4:	0c01a640 	call	c01a64 <dir_alloc>
  c029f8:	e0bff615 	stw	r2,-40(fp)
  c029fc:	e0bff617 	ldw	r2,-40(fp)
  c02a00:	1000391e 	bne	r2,zero,c02ae8 <dir_register+0x2c0>
  c02a04:	e0bff917 	ldw	r2,-28(fp)
  c02a08:	10bfffc4 	addi	r2,r2,-1
  c02a0c:	e0bff915 	stw	r2,-28(fp)
  c02a10:	e0bff917 	ldw	r2,-28(fp)
  c02a14:	10003426 	beq	r2,zero,c02ae8 <dir_register+0x2c0>
  c02a18:	e0bfff17 	ldw	r2,-4(fp)
  c02a1c:	10c00417 	ldw	r3,16(r2)
  c02a20:	e0bff917 	ldw	r2,-28(fp)
  c02a24:	1004917a 	slli	r2,r2,5
  c02a28:	1885c83a 	sub	r2,r3,r2
  c02a2c:	100b883a 	mov	r5,r2
  c02a30:	e13fff17 	ldw	r4,-4(fp)
  c02a34:	0c016900 	call	c01690 <dir_sdi>
  c02a38:	e0bff615 	stw	r2,-40(fp)
  c02a3c:	e0bff617 	ldw	r2,-40(fp)
  c02a40:	1000291e 	bne	r2,zero,c02ae8 <dir_register+0x2c0>
  c02a44:	e0bfff17 	ldw	r2,-4(fp)
  c02a48:	10800804 	addi	r2,r2,32
  c02a4c:	1009883a 	mov	r4,r2
  c02a50:	0c023080 	call	c02308 <sum_sfn>
  c02a54:	e0bffb05 	stb	r2,-20(fp)
  c02a58:	e0bfff17 	ldw	r2,-4(fp)
  c02a5c:	10800617 	ldw	r2,24(r2)
  c02a60:	100b883a 	mov	r5,r2
  c02a64:	e13ffa17 	ldw	r4,-24(fp)
  c02a68:	0c009800 	call	c00980 <move_window>
  c02a6c:	e0bff615 	stw	r2,-40(fp)
  c02a70:	e0bff617 	ldw	r2,-40(fp)
  c02a74:	10001b1e 	bne	r2,zero,c02ae4 <dir_register+0x2bc>
  c02a78:	e0bffa17 	ldw	r2,-24(fp)
  c02a7c:	10c00317 	ldw	r3,12(r2)
  c02a80:	e0bfff17 	ldw	r2,-4(fp)
  c02a84:	11000717 	ldw	r4,28(r2)
  c02a88:	e0bff917 	ldw	r2,-28(fp)
  c02a8c:	10803fcc 	andi	r2,r2,255
  c02a90:	e17ffb03 	ldbu	r5,-20(fp)
  c02a94:	280f883a 	mov	r7,r5
  c02a98:	100d883a 	mov	r6,r2
  c02a9c:	200b883a 	mov	r5,r4
  c02aa0:	1809883a 	mov	r4,r3
  c02aa4:	0c01f600 	call	c01f60 <put_lfn>
  c02aa8:	e0bffa17 	ldw	r2,-24(fp)
  c02aac:	00c00044 	movi	r3,1
  c02ab0:	10c00105 	stb	r3,4(r2)
  c02ab4:	000b883a 	mov	r5,zero
  c02ab8:	e13fff17 	ldw	r4,-4(fp)
  c02abc:	0c018580 	call	c01858 <dir_next>
  c02ac0:	e0bff615 	stw	r2,-40(fp)
  c02ac4:	e0bff617 	ldw	r2,-40(fp)
  c02ac8:	1000071e 	bne	r2,zero,c02ae8 <dir_register+0x2c0>
  c02acc:	e0bff917 	ldw	r2,-28(fp)
  c02ad0:	10bfffc4 	addi	r2,r2,-1
  c02ad4:	e0bff915 	stw	r2,-28(fp)
  c02ad8:	e0bff917 	ldw	r2,-28(fp)
  c02adc:	103fde1e 	bne	r2,zero,c02a58 <__alt_data_end+0xffb82a58>
  c02ae0:	00000106 	br	c02ae8 <dir_register+0x2c0>
  c02ae4:	0001883a 	nop
  c02ae8:	e0bff617 	ldw	r2,-40(fp)
  c02aec:	1000201e 	bne	r2,zero,c02b70 <dir_register+0x348>
  c02af0:	e0bfff17 	ldw	r2,-4(fp)
  c02af4:	10800617 	ldw	r2,24(r2)
  c02af8:	100b883a 	mov	r5,r2
  c02afc:	e13ffa17 	ldw	r4,-24(fp)
  c02b00:	0c009800 	call	c00980 <move_window>
  c02b04:	e0bff615 	stw	r2,-40(fp)
  c02b08:	e0bff617 	ldw	r2,-40(fp)
  c02b0c:	1000181e 	bne	r2,zero,c02b70 <dir_register+0x348>
  c02b10:	e0bfff17 	ldw	r2,-4(fp)
  c02b14:	10800717 	ldw	r2,28(r2)
  c02b18:	01800804 	movi	r6,32
  c02b1c:	000b883a 	mov	r5,zero
  c02b20:	1009883a 	mov	r4,r2
  c02b24:	0c10d400 	call	c10d40 <memset>
  c02b28:	e0bfff17 	ldw	r2,-4(fp)
  c02b2c:	10c00717 	ldw	r3,28(r2)
  c02b30:	e0bfff17 	ldw	r2,-4(fp)
  c02b34:	10800804 	addi	r2,r2,32
  c02b38:	018002c4 	movi	r6,11
  c02b3c:	100b883a 	mov	r5,r2
  c02b40:	1809883a 	mov	r4,r3
  c02b44:	0c10bf80 	call	c10bf8 <memcpy>
  c02b48:	e0bfff17 	ldw	r2,-4(fp)
  c02b4c:	10800717 	ldw	r2,28(r2)
  c02b50:	10800304 	addi	r2,r2,12
  c02b54:	e0ffff17 	ldw	r3,-4(fp)
  c02b58:	18c00ac3 	ldbu	r3,43(r3)
  c02b5c:	18c0060c 	andi	r3,r3,24
  c02b60:	10c00005 	stb	r3,0(r2)
  c02b64:	e0bffa17 	ldw	r2,-24(fp)
  c02b68:	00c00044 	movi	r3,1
  c02b6c:	10c00105 	stb	r3,4(r2)
  c02b70:	e0bff617 	ldw	r2,-40(fp)
  c02b74:	e037883a 	mov	sp,fp
  c02b78:	dfc00117 	ldw	ra,4(sp)
  c02b7c:	df000017 	ldw	fp,0(sp)
  c02b80:	dec00204 	addi	sp,sp,8
  c02b84:	f800283a 	ret

00c02b88 <get_fileinfo>:
  c02b88:	defff604 	addi	sp,sp,-40
  c02b8c:	dfc00915 	stw	ra,36(sp)
  c02b90:	df000815 	stw	fp,32(sp)
  c02b94:	df000804 	addi	fp,sp,32
  c02b98:	e13ffe15 	stw	r4,-8(fp)
  c02b9c:	e17fff15 	stw	r5,-4(fp)
  c02ba0:	e0bffe17 	ldw	r2,-8(fp)
  c02ba4:	10800017 	ldw	r2,0(r2)
  c02ba8:	e0bffc15 	stw	r2,-16(fp)
  c02bac:	e0bfff17 	ldw	r2,-4(fp)
  c02bb0:	10000585 	stb	zero,22(r2)
  c02bb4:	e0bffe17 	ldw	r2,-8(fp)
  c02bb8:	10800617 	ldw	r2,24(r2)
  c02bbc:	1000f426 	beq	r2,zero,c02f90 <get_fileinfo+0x408>
  c02bc0:	e0bffe17 	ldw	r2,-8(fp)
  c02bc4:	10800b17 	ldw	r2,44(r2)
  c02bc8:	10bfffe0 	cmpeqi	r2,r2,-1
  c02bcc:	1000411e 	bne	r2,zero,c02cd4 <get_fileinfo+0x14c>
  c02bd0:	e03ff915 	stw	zero,-28(fp)
  c02bd4:	e0bff917 	ldw	r2,-28(fp)
  c02bd8:	e0bff815 	stw	r2,-32(fp)
  c02bdc:	e03ffb0d 	sth	zero,-20(fp)
  c02be0:	00002c06 	br	c02c94 <get_fileinfo+0x10c>
  c02be4:	e0bffc17 	ldw	r2,-16(fp)
  c02be8:	10c00317 	ldw	r3,12(r2)
  c02bec:	e0bff817 	ldw	r2,-32(fp)
  c02bf0:	11000044 	addi	r4,r2,1
  c02bf4:	e13ff815 	stw	r4,-32(fp)
  c02bf8:	1085883a 	add	r2,r2,r2
  c02bfc:	1885883a 	add	r2,r3,r2
  c02c00:	1080000b 	ldhu	r2,0(r2)
  c02c04:	e0bffa8d 	sth	r2,-22(fp)
  c02c08:	e0bffb0b 	ldhu	r2,-20(fp)
  c02c0c:	1000091e 	bne	r2,zero,c02c34 <get_fileinfo+0xac>
  c02c10:	e0bffa8b 	ldhu	r2,-22(fp)
  c02c14:	10b60030 	cmpltui	r2,r2,55296
  c02c18:	1000061e 	bne	r2,zero,c02c34 <get_fileinfo+0xac>
  c02c1c:	e0bffa8b 	ldhu	r2,-22(fp)
  c02c20:	10b80028 	cmpgeui	r2,r2,57344
  c02c24:	1000031e 	bne	r2,zero,c02c34 <get_fileinfo+0xac>
  c02c28:	e0bffa8b 	ldhu	r2,-22(fp)
  c02c2c:	e0bffb0d 	sth	r2,-20(fp)
  c02c30:	00001806 	br	c02c94 <get_fileinfo+0x10c>
  c02c34:	e0bffb0b 	ldhu	r2,-20(fp)
  c02c38:	1006943a 	slli	r3,r2,16
  c02c3c:	e0bffa8b 	ldhu	r2,-22(fp)
  c02c40:	1888b03a 	or	r4,r3,r2
  c02c44:	e0bff917 	ldw	r2,-28(fp)
  c02c48:	10800504 	addi	r2,r2,20
  c02c4c:	e0ffff17 	ldw	r3,-4(fp)
  c02c50:	1885883a 	add	r2,r3,r2
  c02c54:	11400084 	addi	r5,r2,2
  c02c58:	00c03fc4 	movi	r3,255
  c02c5c:	e0bff917 	ldw	r2,-28(fp)
  c02c60:	1885c83a 	sub	r2,r3,r2
  c02c64:	100d883a 	mov	r6,r2
  c02c68:	0c007cc0 	call	c007cc <put_utf>
  c02c6c:	e0bffd15 	stw	r2,-12(fp)
  c02c70:	e0bffd17 	ldw	r2,-12(fp)
  c02c74:	1000021e 	bne	r2,zero,c02c80 <get_fileinfo+0xf8>
  c02c78:	e03ff915 	stw	zero,-28(fp)
  c02c7c:	00000d06 	br	c02cb4 <get_fileinfo+0x12c>
  c02c80:	e0fff917 	ldw	r3,-28(fp)
  c02c84:	e0bffd17 	ldw	r2,-12(fp)
  c02c88:	1885883a 	add	r2,r3,r2
  c02c8c:	e0bff915 	stw	r2,-28(fp)
  c02c90:	e03ffb0d 	sth	zero,-20(fp)
  c02c94:	e0bffc17 	ldw	r2,-16(fp)
  c02c98:	10c00317 	ldw	r3,12(r2)
  c02c9c:	e0bff817 	ldw	r2,-32(fp)
  c02ca0:	1085883a 	add	r2,r2,r2
  c02ca4:	1885883a 	add	r2,r3,r2
  c02ca8:	1080000b 	ldhu	r2,0(r2)
  c02cac:	10bfffcc 	andi	r2,r2,65535
  c02cb0:	103fcc1e 	bne	r2,zero,c02be4 <__alt_data_end+0xffb82be4>
  c02cb4:	e0bffb0b 	ldhu	r2,-20(fp)
  c02cb8:	10000126 	beq	r2,zero,c02cc0 <get_fileinfo+0x138>
  c02cbc:	e03ff915 	stw	zero,-28(fp)
  c02cc0:	e0ffff17 	ldw	r3,-4(fp)
  c02cc4:	e0bff917 	ldw	r2,-28(fp)
  c02cc8:	1885883a 	add	r2,r3,r2
  c02ccc:	10800584 	addi	r2,r2,22
  c02cd0:	10000005 	stb	zero,0(r2)
  c02cd4:	e03ff915 	stw	zero,-28(fp)
  c02cd8:	e0bff917 	ldw	r2,-28(fp)
  c02cdc:	e0bff815 	stw	r2,-32(fp)
  c02ce0:	00002906 	br	c02d88 <get_fileinfo+0x200>
  c02ce4:	e0bffe17 	ldw	r2,-8(fp)
  c02ce8:	10c00717 	ldw	r3,28(r2)
  c02cec:	e0bff817 	ldw	r2,-32(fp)
  c02cf0:	11000044 	addi	r4,r2,1
  c02cf4:	e13ff815 	stw	r4,-32(fp)
  c02cf8:	1885883a 	add	r2,r3,r2
  c02cfc:	10800003 	ldbu	r2,0(r2)
  c02d00:	10803fcc 	andi	r2,r2,255
  c02d04:	e0bffa8d 	sth	r2,-22(fp)
  c02d08:	e0bffa8b 	ldhu	r2,-22(fp)
  c02d0c:	10800818 	cmpnei	r2,r2,32
  c02d10:	1000011e 	bne	r2,zero,c02d18 <get_fileinfo+0x190>
  c02d14:	00001c06 	br	c02d88 <get_fileinfo+0x200>
  c02d18:	e0bffa8b 	ldhu	r2,-22(fp)
  c02d1c:	10800158 	cmpnei	r2,r2,5
  c02d20:	1000021e 	bne	r2,zero,c02d2c <get_fileinfo+0x1a4>
  c02d24:	00803944 	movi	r2,229
  c02d28:	e0bffa8d 	sth	r2,-22(fp)
  c02d2c:	e0bff817 	ldw	r2,-32(fp)
  c02d30:	10800258 	cmpnei	r2,r2,9
  c02d34:	10000b1e 	bne	r2,zero,c02d64 <get_fileinfo+0x1dc>
  c02d38:	e0bff917 	ldw	r2,-28(fp)
  c02d3c:	10800328 	cmpgeui	r2,r2,12
  c02d40:	1000081e 	bne	r2,zero,c02d64 <get_fileinfo+0x1dc>
  c02d44:	e0bff917 	ldw	r2,-28(fp)
  c02d48:	10c00044 	addi	r3,r2,1
  c02d4c:	e0fff915 	stw	r3,-28(fp)
  c02d50:	e0ffff17 	ldw	r3,-4(fp)
  c02d54:	1885883a 	add	r2,r3,r2
  c02d58:	10800244 	addi	r2,r2,9
  c02d5c:	00c00b84 	movi	r3,46
  c02d60:	10c00005 	stb	r3,0(r2)
  c02d64:	e0bff917 	ldw	r2,-28(fp)
  c02d68:	10c00044 	addi	r3,r2,1
  c02d6c:	e0fff915 	stw	r3,-28(fp)
  c02d70:	e0fffa8b 	ldhu	r3,-22(fp)
  c02d74:	1809883a 	mov	r4,r3
  c02d78:	e0ffff17 	ldw	r3,-4(fp)
  c02d7c:	1885883a 	add	r2,r3,r2
  c02d80:	10800244 	addi	r2,r2,9
  c02d84:	11000005 	stb	r4,0(r2)
  c02d88:	e0bff817 	ldw	r2,-32(fp)
  c02d8c:	108002f0 	cmpltui	r2,r2,11
  c02d90:	103fd41e 	bne	r2,zero,c02ce4 <__alt_data_end+0xffb82ce4>
  c02d94:	e0ffff17 	ldw	r3,-4(fp)
  c02d98:	e0bff917 	ldw	r2,-28(fp)
  c02d9c:	1885883a 	add	r2,r3,r2
  c02da0:	10800244 	addi	r2,r2,9
  c02da4:	10000005 	stb	zero,0(r2)
  c02da8:	e0bfff17 	ldw	r2,-4(fp)
  c02dac:	10800583 	ldbu	r2,22(r2)
  c02db0:	10803fcc 	andi	r2,r2,255
  c02db4:	1080201c 	xori	r2,r2,128
  c02db8:	10bfe004 	addi	r2,r2,-128
  c02dbc:	1000531e 	bne	r2,zero,c02f0c <get_fileinfo+0x384>
  c02dc0:	e0bff917 	ldw	r2,-28(fp)
  c02dc4:	1000091e 	bne	r2,zero,c02dec <get_fileinfo+0x264>
  c02dc8:	e0bff917 	ldw	r2,-28(fp)
  c02dcc:	10c00044 	addi	r3,r2,1
  c02dd0:	e0fff915 	stw	r3,-28(fp)
  c02dd4:	e0ffff17 	ldw	r3,-4(fp)
  c02dd8:	1885883a 	add	r2,r3,r2
  c02ddc:	10800584 	addi	r2,r2,22
  c02de0:	00c00fc4 	movi	r3,63
  c02de4:	10c00005 	stb	r3,0(r2)
  c02de8:	00003b06 	br	c02ed8 <get_fileinfo+0x350>
  c02dec:	e03ff915 	stw	zero,-28(fp)
  c02df0:	e0bff917 	ldw	r2,-28(fp)
  c02df4:	e0bff815 	stw	r2,-32(fp)
  c02df8:	00800204 	movi	r2,8
  c02dfc:	e0bffa05 	stb	r2,-24(fp)
  c02e00:	00002c06 	br	c02eb4 <get_fileinfo+0x32c>
  c02e04:	e0ffff17 	ldw	r3,-4(fp)
  c02e08:	e0bff817 	ldw	r2,-32(fp)
  c02e0c:	1885883a 	add	r2,r3,r2
  c02e10:	10800244 	addi	r2,r2,9
  c02e14:	10800003 	ldbu	r2,0(r2)
  c02e18:	10803fcc 	andi	r2,r2,255
  c02e1c:	1080201c 	xori	r2,r2,128
  c02e20:	10bfe004 	addi	r2,r2,-128
  c02e24:	e0bffa8d 	sth	r2,-22(fp)
  c02e28:	e0bffa8b 	ldhu	r2,-22(fp)
  c02e2c:	10800b98 	cmpnei	r2,r2,46
  c02e30:	1000021e 	bne	r2,zero,c02e3c <get_fileinfo+0x2b4>
  c02e34:	00800404 	movi	r2,16
  c02e38:	e0bffa05 	stb	r2,-24(fp)
  c02e3c:	e0bffa8b 	ldhu	r2,-22(fp)
  c02e40:	10801070 	cmpltui	r2,r2,65
  c02e44:	10000e1e 	bne	r2,zero,c02e80 <get_fileinfo+0x2f8>
  c02e48:	e0bffa8b 	ldhu	r2,-22(fp)
  c02e4c:	108016e8 	cmpgeui	r2,r2,91
  c02e50:	10000b1e 	bne	r2,zero,c02e80 <get_fileinfo+0x2f8>
  c02e54:	e0bffe17 	ldw	r2,-8(fp)
  c02e58:	10800717 	ldw	r2,28(r2)
  c02e5c:	10800304 	addi	r2,r2,12
  c02e60:	10c00003 	ldbu	r3,0(r2)
  c02e64:	e0bffa03 	ldbu	r2,-24(fp)
  c02e68:	1884703a 	and	r2,r3,r2
  c02e6c:	10803fcc 	andi	r2,r2,255
  c02e70:	10000326 	beq	r2,zero,c02e80 <get_fileinfo+0x2f8>
  c02e74:	e0bffa8b 	ldhu	r2,-22(fp)
  c02e78:	10800804 	addi	r2,r2,32
  c02e7c:	e0bffa8d 	sth	r2,-22(fp)
  c02e80:	e0bffa8b 	ldhu	r2,-22(fp)
  c02e84:	1009883a 	mov	r4,r2
  c02e88:	e0ffff17 	ldw	r3,-4(fp)
  c02e8c:	e0bff917 	ldw	r2,-28(fp)
  c02e90:	1885883a 	add	r2,r3,r2
  c02e94:	10800584 	addi	r2,r2,22
  c02e98:	11000005 	stb	r4,0(r2)
  c02e9c:	e0bff817 	ldw	r2,-32(fp)
  c02ea0:	10800044 	addi	r2,r2,1
  c02ea4:	e0bff815 	stw	r2,-32(fp)
  c02ea8:	e0bff917 	ldw	r2,-28(fp)
  c02eac:	10800044 	addi	r2,r2,1
  c02eb0:	e0bff915 	stw	r2,-28(fp)
  c02eb4:	e0ffff17 	ldw	r3,-4(fp)
  c02eb8:	e0bff817 	ldw	r2,-32(fp)
  c02ebc:	1885883a 	add	r2,r3,r2
  c02ec0:	10800244 	addi	r2,r2,9
  c02ec4:	10800003 	ldbu	r2,0(r2)
  c02ec8:	10803fcc 	andi	r2,r2,255
  c02ecc:	1080201c 	xori	r2,r2,128
  c02ed0:	10bfe004 	addi	r2,r2,-128
  c02ed4:	103fcb1e 	bne	r2,zero,c02e04 <__alt_data_end+0xffb82e04>
  c02ed8:	e0ffff17 	ldw	r3,-4(fp)
  c02edc:	e0bff917 	ldw	r2,-28(fp)
  c02ee0:	1885883a 	add	r2,r3,r2
  c02ee4:	10800584 	addi	r2,r2,22
  c02ee8:	10000005 	stb	zero,0(r2)
  c02eec:	e0bffe17 	ldw	r2,-8(fp)
  c02ef0:	10800717 	ldw	r2,28(r2)
  c02ef4:	10800304 	addi	r2,r2,12
  c02ef8:	10800003 	ldbu	r2,0(r2)
  c02efc:	10803fcc 	andi	r2,r2,255
  c02f00:	1000021e 	bne	r2,zero,c02f0c <get_fileinfo+0x384>
  c02f04:	e0bfff17 	ldw	r2,-4(fp)
  c02f08:	10000245 	stb	zero,9(r2)
  c02f0c:	e0bffe17 	ldw	r2,-8(fp)
  c02f10:	10800717 	ldw	r2,28(r2)
  c02f14:	108002c4 	addi	r2,r2,11
  c02f18:	10800003 	ldbu	r2,0(r2)
  c02f1c:	10800fcc 	andi	r2,r2,63
  c02f20:	1007883a 	mov	r3,r2
  c02f24:	e0bfff17 	ldw	r2,-4(fp)
  c02f28:	10c00205 	stb	r3,8(r2)
  c02f2c:	e0bffe17 	ldw	r2,-8(fp)
  c02f30:	10800717 	ldw	r2,28(r2)
  c02f34:	10800704 	addi	r2,r2,28
  c02f38:	1009883a 	mov	r4,r2
  c02f3c:	0c0043c0 	call	c0043c <ld_dword>
  c02f40:	1007883a 	mov	r3,r2
  c02f44:	e0bfff17 	ldw	r2,-4(fp)
  c02f48:	10c00015 	stw	r3,0(r2)
  c02f4c:	e0bffe17 	ldw	r2,-8(fp)
  c02f50:	10800717 	ldw	r2,28(r2)
  c02f54:	10800584 	addi	r2,r2,22
  c02f58:	1009883a 	mov	r4,r2
  c02f5c:	0c003e40 	call	c003e4 <ld_word>
  c02f60:	1007883a 	mov	r3,r2
  c02f64:	e0bfff17 	ldw	r2,-4(fp)
  c02f68:	10c0018d 	sth	r3,6(r2)
  c02f6c:	e0bffe17 	ldw	r2,-8(fp)
  c02f70:	10800717 	ldw	r2,28(r2)
  c02f74:	10800604 	addi	r2,r2,24
  c02f78:	1009883a 	mov	r4,r2
  c02f7c:	0c003e40 	call	c003e4 <ld_word>
  c02f80:	1007883a 	mov	r3,r2
  c02f84:	e0bfff17 	ldw	r2,-4(fp)
  c02f88:	10c0010d 	sth	r3,4(r2)
  c02f8c:	00000106 	br	c02f94 <get_fileinfo+0x40c>
  c02f90:	0001883a 	nop
  c02f94:	e037883a 	mov	sp,fp
  c02f98:	dfc00117 	ldw	ra,4(sp)
  c02f9c:	df000017 	ldw	fp,0(sp)
  c02fa0:	dec00204 	addi	sp,sp,8
  c02fa4:	f800283a 	ret

00c02fa8 <get_achar>:
  c02fa8:	defffc04 	addi	sp,sp,-16
  c02fac:	dfc00315 	stw	ra,12(sp)
  c02fb0:	df000215 	stw	fp,8(sp)
  c02fb4:	df000204 	addi	fp,sp,8
  c02fb8:	e13fff15 	stw	r4,-4(fp)
  c02fbc:	e0bfff17 	ldw	r2,-4(fp)
  c02fc0:	10800017 	ldw	r2,0(r2)
  c02fc4:	11000044 	addi	r4,r2,1
  c02fc8:	e0ffff17 	ldw	r3,-4(fp)
  c02fcc:	19000015 	stw	r4,0(r3)
  c02fd0:	10800003 	ldbu	r2,0(r2)
  c02fd4:	10803fcc 	andi	r2,r2,255
  c02fd8:	e0bffe15 	stw	r2,-8(fp)
  c02fdc:	e0bffe17 	ldw	r2,-8(fp)
  c02fe0:	10801870 	cmpltui	r2,r2,97
  c02fe4:	1000061e 	bne	r2,zero,c03000 <get_achar+0x58>
  c02fe8:	e0bffe17 	ldw	r2,-8(fp)
  c02fec:	10801ee8 	cmpgeui	r2,r2,123
  c02ff0:	1000031e 	bne	r2,zero,c03000 <get_achar+0x58>
  c02ff4:	e0bffe17 	ldw	r2,-8(fp)
  c02ff8:	10bff804 	addi	r2,r2,-32
  c02ffc:	e0bffe15 	stw	r2,-8(fp)
  c03000:	e0bffe17 	ldw	r2,-8(fp)
  c03004:	10803fcc 	andi	r2,r2,255
  c03008:	1009883a 	mov	r4,r2
  c0300c:	0c005cc0 	call	c005cc <dbc_1st>
  c03010:	10001426 	beq	r2,zero,c03064 <get_achar+0xbc>
  c03014:	e0bfff17 	ldw	r2,-4(fp)
  c03018:	10800017 	ldw	r2,0(r2)
  c0301c:	10800003 	ldbu	r2,0(r2)
  c03020:	10803fcc 	andi	r2,r2,255
  c03024:	1009883a 	mov	r4,r2
  c03028:	0c006440 	call	c00644 <dbc_2nd>
  c0302c:	10000b26 	beq	r2,zero,c0305c <get_achar+0xb4>
  c03030:	e0bffe17 	ldw	r2,-8(fp)
  c03034:	1006923a 	slli	r3,r2,8
  c03038:	e0bfff17 	ldw	r2,-4(fp)
  c0303c:	10800017 	ldw	r2,0(r2)
  c03040:	11400044 	addi	r5,r2,1
  c03044:	e13fff17 	ldw	r4,-4(fp)
  c03048:	21400015 	stw	r5,0(r4)
  c0304c:	10800003 	ldbu	r2,0(r2)
  c03050:	10803fcc 	andi	r2,r2,255
  c03054:	1884b03a 	or	r2,r3,r2
  c03058:	00000106 	br	c03060 <get_achar+0xb8>
  c0305c:	0005883a 	mov	r2,zero
  c03060:	e0bffe15 	stw	r2,-8(fp)
  c03064:	e0bffe17 	ldw	r2,-8(fp)
  c03068:	e037883a 	mov	sp,fp
  c0306c:	dfc00117 	ldw	ra,4(sp)
  c03070:	df000017 	ldw	fp,0(sp)
  c03074:	dec00204 	addi	sp,sp,8
  c03078:	f800283a 	ret

00c0307c <pattern_match>:
  c0307c:	defff504 	addi	sp,sp,-44
  c03080:	dfc00a15 	stw	ra,40(sp)
  c03084:	df000915 	stw	fp,36(sp)
  c03088:	df000904 	addi	fp,sp,36
  c0308c:	e13ffc15 	stw	r4,-16(fp)
  c03090:	e17ffd15 	stw	r5,-12(fp)
  c03094:	e1bffe15 	stw	r6,-8(fp)
  c03098:	e1ffff15 	stw	r7,-4(fp)
  c0309c:	00000906 	br	c030c4 <pattern_match+0x48>
  c030a0:	e0bffd04 	addi	r2,fp,-12
  c030a4:	1009883a 	mov	r4,r2
  c030a8:	0c02fa80 	call	c02fa8 <get_achar>
  c030ac:	1000021e 	bne	r2,zero,c030b8 <pattern_match+0x3c>
  c030b0:	0005883a 	mov	r2,zero
  c030b4:	00007006 	br	c03278 <pattern_match+0x1fc>
  c030b8:	e0bffe17 	ldw	r2,-8(fp)
  c030bc:	10bfffc4 	addi	r2,r2,-1
  c030c0:	e0bffe15 	stw	r2,-8(fp)
  c030c4:	e0bffe17 	ldw	r2,-8(fp)
  c030c8:	10803fcc 	andi	r2,r2,255
  c030cc:	103ff41e 	bne	r2,zero,c030a0 <__alt_data_end+0xffb830a0>
  c030d0:	e0bffc17 	ldw	r2,-16(fp)
  c030d4:	10800003 	ldbu	r2,0(r2)
  c030d8:	10803fcc 	andi	r2,r2,255
  c030dc:	1080201c 	xori	r2,r2,128
  c030e0:	10bfe004 	addi	r2,r2,-128
  c030e4:	1000041e 	bne	r2,zero,c030f8 <pattern_match+0x7c>
  c030e8:	e0bffe17 	ldw	r2,-8(fp)
  c030ec:	10000226 	beq	r2,zero,c030f8 <pattern_match+0x7c>
  c030f0:	00800044 	movi	r2,1
  c030f4:	00006006 	br	c03278 <pattern_match+0x1fc>
  c030f8:	e0bffc17 	ldw	r2,-16(fp)
  c030fc:	e0bffa15 	stw	r2,-24(fp)
  c03100:	e0bffd17 	ldw	r2,-12(fp)
  c03104:	e0bffb15 	stw	r2,-20(fp)
  c03108:	e0bffa17 	ldw	r2,-24(fp)
  c0310c:	10800003 	ldbu	r2,0(r2)
  c03110:	10803fcc 	andi	r2,r2,255
  c03114:	1080201c 	xori	r2,r2,128
  c03118:	10bfe004 	addi	r2,r2,-128
  c0311c:	10800fe0 	cmpeqi	r2,r2,63
  c03120:	1000071e 	bne	r2,zero,c03140 <pattern_match+0xc4>
  c03124:	e0bffa17 	ldw	r2,-24(fp)
  c03128:	10800003 	ldbu	r2,0(r2)
  c0312c:	10803fcc 	andi	r2,r2,255
  c03130:	1080201c 	xori	r2,r2,128
  c03134:	10bfe004 	addi	r2,r2,-128
  c03138:	10800a98 	cmpnei	r2,r2,42
  c0313c:	1000361e 	bne	r2,zero,c03218 <pattern_match+0x19c>
  c03140:	e0bfff17 	ldw	r2,-4(fp)
  c03144:	1000021e 	bne	r2,zero,c03150 <pattern_match+0xd4>
  c03148:	0005883a 	mov	r2,zero
  c0314c:	00004a06 	br	c03278 <pattern_match+0x1fc>
  c03150:	e03ff815 	stw	zero,-32(fp)
  c03154:	e0bffa17 	ldw	r2,-24(fp)
  c03158:	10c00044 	addi	r3,r2,1
  c0315c:	e0fffa15 	stw	r3,-24(fp)
  c03160:	10800003 	ldbu	r2,0(r2)
  c03164:	10803fcc 	andi	r2,r2,255
  c03168:	1080201c 	xori	r2,r2,128
  c0316c:	10bfe004 	addi	r2,r2,-128
  c03170:	10800fd8 	cmpnei	r2,r2,63
  c03174:	1000041e 	bne	r2,zero,c03188 <pattern_match+0x10c>
  c03178:	e0bff817 	ldw	r2,-32(fp)
  c0317c:	10800044 	addi	r2,r2,1
  c03180:	e0bff815 	stw	r2,-32(fp)
  c03184:	00000306 	br	c03194 <pattern_match+0x118>
  c03188:	e0bff817 	ldw	r2,-32(fp)
  c0318c:	10804014 	ori	r2,r2,256
  c03190:	e0bff815 	stw	r2,-32(fp)
  c03194:	e0bffa17 	ldw	r2,-24(fp)
  c03198:	10800003 	ldbu	r2,0(r2)
  c0319c:	10803fcc 	andi	r2,r2,255
  c031a0:	1080201c 	xori	r2,r2,128
  c031a4:	10bfe004 	addi	r2,r2,-128
  c031a8:	10800fe0 	cmpeqi	r2,r2,63
  c031ac:	103fe91e 	bne	r2,zero,c03154 <__alt_data_end+0xffb83154>
  c031b0:	e0bffa17 	ldw	r2,-24(fp)
  c031b4:	10800003 	ldbu	r2,0(r2)
  c031b8:	10803fcc 	andi	r2,r2,255
  c031bc:	1080201c 	xori	r2,r2,128
  c031c0:	10bfe004 	addi	r2,r2,-128
  c031c4:	10800aa0 	cmpeqi	r2,r2,42
  c031c8:	103fe21e 	bne	r2,zero,c03154 <__alt_data_end+0xffb83154>
  c031cc:	e0fffa17 	ldw	r3,-24(fp)
  c031d0:	e13ffb17 	ldw	r4,-20(fp)
  c031d4:	e0bfff17 	ldw	r2,-4(fp)
  c031d8:	10bfffc4 	addi	r2,r2,-1
  c031dc:	100f883a 	mov	r7,r2
  c031e0:	e1bff817 	ldw	r6,-32(fp)
  c031e4:	200b883a 	mov	r5,r4
  c031e8:	1809883a 	mov	r4,r3
  c031ec:	0c0307c0 	call	c0307c <pattern_match>
  c031f0:	10000226 	beq	r2,zero,c031fc <pattern_match+0x180>
  c031f4:	00800044 	movi	r2,1
  c031f8:	00001f06 	br	c03278 <pattern_match+0x1fc>
  c031fc:	e0bffb17 	ldw	r2,-20(fp)
  c03200:	10800003 	ldbu	r2,0(r2)
  c03204:	10803fcc 	andi	r2,r2,255
  c03208:	1080201c 	xori	r2,r2,128
  c0320c:	10bfe004 	addi	r2,r2,-128
  c03210:	e0bff715 	stw	r2,-36(fp)
  c03214:	00001006 	br	c03258 <pattern_match+0x1dc>
  c03218:	e0bffa04 	addi	r2,fp,-24
  c0321c:	1009883a 	mov	r4,r2
  c03220:	0c02fa80 	call	c02fa8 <get_achar>
  c03224:	e0bff915 	stw	r2,-28(fp)
  c03228:	e0bffb04 	addi	r2,fp,-20
  c0322c:	1009883a 	mov	r4,r2
  c03230:	0c02fa80 	call	c02fa8 <get_achar>
  c03234:	e0bff715 	stw	r2,-36(fp)
  c03238:	e0fff917 	ldw	r3,-28(fp)
  c0323c:	e0bff717 	ldw	r2,-36(fp)
  c03240:	1880041e 	bne	r3,r2,c03254 <pattern_match+0x1d8>
  c03244:	e0bff917 	ldw	r2,-28(fp)
  c03248:	103faf1e 	bne	r2,zero,c03108 <__alt_data_end+0xffb83108>
  c0324c:	00800044 	movi	r2,1
  c03250:	00000906 	br	c03278 <pattern_match+0x1fc>
  c03254:	0001883a 	nop
  c03258:	e0bffd04 	addi	r2,fp,-12
  c0325c:	1009883a 	mov	r4,r2
  c03260:	0c02fa80 	call	c02fa8 <get_achar>
  c03264:	e0bffe17 	ldw	r2,-8(fp)
  c03268:	10000226 	beq	r2,zero,c03274 <pattern_match+0x1f8>
  c0326c:	e0bff717 	ldw	r2,-36(fp)
  c03270:	103fa11e 	bne	r2,zero,c030f8 <__alt_data_end+0xffb830f8>
  c03274:	0005883a 	mov	r2,zero
  c03278:	e037883a 	mov	sp,fp
  c0327c:	dfc00117 	ldw	ra,4(sp)
  c03280:	df000017 	ldw	fp,0(sp)
  c03284:	dec00204 	addi	sp,sp,8
  c03288:	f800283a 	ret

00c0328c <create_name>:
  c0328c:	defff404 	addi	sp,sp,-48
  c03290:	dfc00b15 	stw	ra,44(sp)
  c03294:	df000a15 	stw	fp,40(sp)
  c03298:	df000a04 	addi	fp,sp,40
  c0329c:	e13ffe15 	stw	r4,-8(fp)
  c032a0:	e17fff15 	stw	r5,-4(fp)
  c032a4:	e0bfff17 	ldw	r2,-4(fp)
  c032a8:	10800017 	ldw	r2,0(r2)
  c032ac:	e0bffd15 	stw	r2,-12(fp)
  c032b0:	e0bffe17 	ldw	r2,-8(fp)
  c032b4:	10800017 	ldw	r2,0(r2)
  c032b8:	10800317 	ldw	r2,12(r2)
  c032bc:	e0bffb15 	stw	r2,-20(fp)
  c032c0:	e03ffa15 	stw	zero,-24(fp)
  c032c4:	e0bffd04 	addi	r2,fp,-12
  c032c8:	1009883a 	mov	r4,r2
  c032cc:	0c006e40 	call	c006e4 <tchar2uni>
  c032d0:	e0bffc15 	stw	r2,-16(fp)
  c032d4:	e0bffc17 	ldw	r2,-16(fp)
  c032d8:	10bfffd8 	cmpnei	r2,r2,-1
  c032dc:	1000021e 	bne	r2,zero,c032e8 <create_name+0x5c>
  c032e0:	00800184 	movi	r2,6
  c032e4:	00016906 	br	c0388c <create_name+0x600>
  c032e8:	e0bffc17 	ldw	r2,-16(fp)
  c032ec:	00ffffd4 	movui	r3,65535
  c032f0:	18800a2e 	bgeu	r3,r2,c0331c <create_name+0x90>
  c032f4:	e0bffa17 	ldw	r2,-24(fp)
  c032f8:	10c00044 	addi	r3,r2,1
  c032fc:	e0fffa15 	stw	r3,-24(fp)
  c03300:	1085883a 	add	r2,r2,r2
  c03304:	1007883a 	mov	r3,r2
  c03308:	e0bffb17 	ldw	r2,-20(fp)
  c0330c:	10c5883a 	add	r2,r2,r3
  c03310:	e0fffc17 	ldw	r3,-16(fp)
  c03314:	1806d43a 	srli	r3,r3,16
  c03318:	10c0000d 	sth	r3,0(r2)
  c0331c:	e0bffc17 	ldw	r2,-16(fp)
  c03320:	e0bff68d 	sth	r2,-38(fp)
  c03324:	e0bff68b 	ldhu	r2,-38(fp)
  c03328:	10800830 	cmpltui	r2,r2,32
  c0332c:	1000201e 	bne	r2,zero,c033b0 <create_name+0x124>
  c03330:	e0bff68b 	ldhu	r2,-38(fp)
  c03334:	10800be0 	cmpeqi	r2,r2,47
  c03338:	10001d1e 	bne	r2,zero,c033b0 <create_name+0x124>
  c0333c:	e0bff68b 	ldhu	r2,-38(fp)
  c03340:	10801720 	cmpeqi	r2,r2,92
  c03344:	10001a1e 	bne	r2,zero,c033b0 <create_name+0x124>
  c03348:	e0bff68b 	ldhu	r2,-38(fp)
  c0334c:	10802028 	cmpgeui	r2,r2,128
  c03350:	1000081e 	bne	r2,zero,c03374 <create_name+0xe8>
  c03354:	e0bff68b 	ldhu	r2,-38(fp)
  c03358:	100b883a 	mov	r5,r2
  c0335c:	01004134 	movhi	r4,260
  c03360:	21009204 	addi	r4,r4,584
  c03364:	0c112280 	call	c11228 <strchr>
  c03368:	10000226 	beq	r2,zero,c03374 <create_name+0xe8>
  c0336c:	00800184 	movi	r2,6
  c03370:	00014606 	br	c0388c <create_name+0x600>
  c03374:	e0bffa17 	ldw	r2,-24(fp)
  c03378:	10803ff0 	cmpltui	r2,r2,255
  c0337c:	1000021e 	bne	r2,zero,c03388 <create_name+0xfc>
  c03380:	00800184 	movi	r2,6
  c03384:	00014106 	br	c0388c <create_name+0x600>
  c03388:	e0bffa17 	ldw	r2,-24(fp)
  c0338c:	10c00044 	addi	r3,r2,1
  c03390:	e0fffa15 	stw	r3,-24(fp)
  c03394:	1085883a 	add	r2,r2,r2
  c03398:	1007883a 	mov	r3,r2
  c0339c:	e0bffb17 	ldw	r2,-20(fp)
  c033a0:	10c5883a 	add	r2,r2,r3
  c033a4:	e0fff68b 	ldhu	r3,-38(fp)
  c033a8:	10c0000d 	sth	r3,0(r2)
  c033ac:	003fc506 	br	c032c4 <__alt_data_end+0xffb832c4>
  c033b0:	e0bff68b 	ldhu	r2,-38(fp)
  c033b4:	10800828 	cmpgeui	r2,r2,32
  c033b8:	1000061e 	bne	r2,zero,c033d4 <create_name+0x148>
  c033bc:	00800104 	movi	r2,4
  c033c0:	e0bff645 	stb	r2,-39(fp)
  c033c4:	00001906 	br	c0342c <create_name+0x1a0>
  c033c8:	e0bffd17 	ldw	r2,-12(fp)
  c033cc:	10800044 	addi	r2,r2,1
  c033d0:	e0bffd15 	stw	r2,-12(fp)
  c033d4:	e0bffd17 	ldw	r2,-12(fp)
  c033d8:	10800003 	ldbu	r2,0(r2)
  c033dc:	10803fcc 	andi	r2,r2,255
  c033e0:	1080201c 	xori	r2,r2,128
  c033e4:	10bfe004 	addi	r2,r2,-128
  c033e8:	10800be0 	cmpeqi	r2,r2,47
  c033ec:	103ff61e 	bne	r2,zero,c033c8 <__alt_data_end+0xffb833c8>
  c033f0:	e0bffd17 	ldw	r2,-12(fp)
  c033f4:	10800003 	ldbu	r2,0(r2)
  c033f8:	10803fcc 	andi	r2,r2,255
  c033fc:	1080201c 	xori	r2,r2,128
  c03400:	10bfe004 	addi	r2,r2,-128
  c03404:	10801720 	cmpeqi	r2,r2,92
  c03408:	103fef1e 	bne	r2,zero,c033c8 <__alt_data_end+0xffb833c8>
  c0340c:	e03ff645 	stb	zero,-39(fp)
  c03410:	e0bffd17 	ldw	r2,-12(fp)
  c03414:	10800003 	ldbu	r2,0(r2)
  c03418:	10803fcc 	andi	r2,r2,255
  c0341c:	10800828 	cmpgeui	r2,r2,32
  c03420:	1000021e 	bne	r2,zero,c0342c <create_name+0x1a0>
  c03424:	00800104 	movi	r2,4
  c03428:	e0bff645 	stb	r2,-39(fp)
  c0342c:	e0fffd17 	ldw	r3,-12(fp)
  c03430:	e0bfff17 	ldw	r2,-4(fp)
  c03434:	10c00015 	stw	r3,0(r2)
  c03438:	00001306 	br	c03488 <create_name+0x1fc>
  c0343c:	e0fffa17 	ldw	r3,-24(fp)
  c03440:	00a00034 	movhi	r2,32768
  c03444:	10bfffc4 	addi	r2,r2,-1
  c03448:	1885883a 	add	r2,r3,r2
  c0344c:	1085883a 	add	r2,r2,r2
  c03450:	1007883a 	mov	r3,r2
  c03454:	e0bffb17 	ldw	r2,-20(fp)
  c03458:	10c5883a 	add	r2,r2,r3
  c0345c:	1080000b 	ldhu	r2,0(r2)
  c03460:	e0bff68d 	sth	r2,-38(fp)
  c03464:	e0bff68b 	ldhu	r2,-38(fp)
  c03468:	10800820 	cmpeqi	r2,r2,32
  c0346c:	1000031e 	bne	r2,zero,c0347c <create_name+0x1f0>
  c03470:	e0bff68b 	ldhu	r2,-38(fp)
  c03474:	10800ba0 	cmpeqi	r2,r2,46
  c03478:	10000626 	beq	r2,zero,c03494 <create_name+0x208>
  c0347c:	e0bffa17 	ldw	r2,-24(fp)
  c03480:	10bfffc4 	addi	r2,r2,-1
  c03484:	e0bffa15 	stw	r2,-24(fp)
  c03488:	e0bffa17 	ldw	r2,-24(fp)
  c0348c:	103feb1e 	bne	r2,zero,c0343c <__alt_data_end+0xffb8343c>
  c03490:	00000106 	br	c03498 <create_name+0x20c>
  c03494:	0001883a 	nop
  c03498:	e0bffa17 	ldw	r2,-24(fp)
  c0349c:	1085883a 	add	r2,r2,r2
  c034a0:	1007883a 	mov	r3,r2
  c034a4:	e0bffb17 	ldw	r2,-20(fp)
  c034a8:	10c5883a 	add	r2,r2,r3
  c034ac:	1000000d 	sth	zero,0(r2)
  c034b0:	e0bffa17 	ldw	r2,-24(fp)
  c034b4:	1000021e 	bne	r2,zero,c034c0 <create_name+0x234>
  c034b8:	00800184 	movi	r2,6
  c034bc:	0000f306 	br	c0388c <create_name+0x600>
  c034c0:	e03ff915 	stw	zero,-28(fp)
  c034c4:	00000306 	br	c034d4 <create_name+0x248>
  c034c8:	e0bff917 	ldw	r2,-28(fp)
  c034cc:	10800044 	addi	r2,r2,1
  c034d0:	e0bff915 	stw	r2,-28(fp)
  c034d4:	e0bff917 	ldw	r2,-28(fp)
  c034d8:	1085883a 	add	r2,r2,r2
  c034dc:	1007883a 	mov	r3,r2
  c034e0:	e0bffb17 	ldw	r2,-20(fp)
  c034e4:	10c5883a 	add	r2,r2,r3
  c034e8:	1080000b 	ldhu	r2,0(r2)
  c034ec:	10bfffcc 	andi	r2,r2,65535
  c034f0:	10800820 	cmpeqi	r2,r2,32
  c034f4:	103ff41e 	bne	r2,zero,c034c8 <__alt_data_end+0xffb834c8>
  c034f8:	e0bff917 	ldw	r2,-28(fp)
  c034fc:	1000091e 	bne	r2,zero,c03524 <create_name+0x298>
  c03500:	e0bff917 	ldw	r2,-28(fp)
  c03504:	1085883a 	add	r2,r2,r2
  c03508:	1007883a 	mov	r3,r2
  c0350c:	e0bffb17 	ldw	r2,-20(fp)
  c03510:	10c5883a 	add	r2,r2,r3
  c03514:	1080000b 	ldhu	r2,0(r2)
  c03518:	10bfffcc 	andi	r2,r2,65535
  c0351c:	10800b98 	cmpnei	r2,r2,46
  c03520:	1000071e 	bne	r2,zero,c03540 <create_name+0x2b4>
  c03524:	e0bff643 	ldbu	r2,-39(fp)
  c03528:	108000d4 	ori	r2,r2,3
  c0352c:	e0bff645 	stb	r2,-39(fp)
  c03530:	00000306 	br	c03540 <create_name+0x2b4>
  c03534:	e0bffa17 	ldw	r2,-24(fp)
  c03538:	10bfffc4 	addi	r2,r2,-1
  c0353c:	e0bffa15 	stw	r2,-24(fp)
  c03540:	e0bffa17 	ldw	r2,-24(fp)
  c03544:	10000c26 	beq	r2,zero,c03578 <create_name+0x2ec>
  c03548:	e0fffa17 	ldw	r3,-24(fp)
  c0354c:	00a00034 	movhi	r2,32768
  c03550:	10bfffc4 	addi	r2,r2,-1
  c03554:	1885883a 	add	r2,r3,r2
  c03558:	1085883a 	add	r2,r2,r2
  c0355c:	1007883a 	mov	r3,r2
  c03560:	e0bffb17 	ldw	r2,-20(fp)
  c03564:	10c5883a 	add	r2,r2,r3
  c03568:	1080000b 	ldhu	r2,0(r2)
  c0356c:	10bfffcc 	andi	r2,r2,65535
  c03570:	10800b98 	cmpnei	r2,r2,46
  c03574:	103fef1e 	bne	r2,zero,c03534 <__alt_data_end+0xffb83534>
  c03578:	e0bffe17 	ldw	r2,-8(fp)
  c0357c:	10800804 	addi	r2,r2,32
  c03580:	018002c4 	movi	r6,11
  c03584:	01400804 	movi	r5,32
  c03588:	1009883a 	mov	r4,r2
  c0358c:	0c10d400 	call	c10d40 <memset>
  c03590:	e03ff605 	stb	zero,-40(fp)
  c03594:	e03ff715 	stw	zero,-36(fp)
  c03598:	00800204 	movi	r2,8
  c0359c:	e0bff815 	stw	r2,-32(fp)
  c035a0:	e0bff917 	ldw	r2,-28(fp)
  c035a4:	10c00044 	addi	r3,r2,1
  c035a8:	e0fff915 	stw	r3,-28(fp)
  c035ac:	1085883a 	add	r2,r2,r2
  c035b0:	1007883a 	mov	r3,r2
  c035b4:	e0bffb17 	ldw	r2,-20(fp)
  c035b8:	10c5883a 	add	r2,r2,r3
  c035bc:	1080000b 	ldhu	r2,0(r2)
  c035c0:	e0bff68d 	sth	r2,-38(fp)
  c035c4:	e0bff68b 	ldhu	r2,-38(fp)
  c035c8:	10008026 	beq	r2,zero,c037cc <create_name+0x540>
  c035cc:	e0bff68b 	ldhu	r2,-38(fp)
  c035d0:	10800820 	cmpeqi	r2,r2,32
  c035d4:	1000061e 	bne	r2,zero,c035f0 <create_name+0x364>
  c035d8:	e0bff68b 	ldhu	r2,-38(fp)
  c035dc:	10800b98 	cmpnei	r2,r2,46
  c035e0:	1000071e 	bne	r2,zero,c03600 <create_name+0x374>
  c035e4:	e0fff917 	ldw	r3,-28(fp)
  c035e8:	e0bffa17 	ldw	r2,-24(fp)
  c035ec:	18800426 	beq	r3,r2,c03600 <create_name+0x374>
  c035f0:	e0bff643 	ldbu	r2,-39(fp)
  c035f4:	108000d4 	ori	r2,r2,3
  c035f8:	e0bff645 	stb	r2,-39(fp)
  c035fc:	00007206 	br	c037c8 <create_name+0x53c>
  c03600:	e0fff717 	ldw	r3,-36(fp)
  c03604:	e0bff817 	ldw	r2,-32(fp)
  c03608:	1880032e 	bgeu	r3,r2,c03618 <create_name+0x38c>
  c0360c:	e0fff917 	ldw	r3,-28(fp)
  c03610:	e0bffa17 	ldw	r2,-24(fp)
  c03614:	18801b1e 	bne	r3,r2,c03684 <create_name+0x3f8>
  c03618:	e0bff817 	ldw	r2,-32(fp)
  c0361c:	108002d8 	cmpnei	r2,r2,11
  c03620:	1000041e 	bne	r2,zero,c03634 <create_name+0x3a8>
  c03624:	e0bff643 	ldbu	r2,-39(fp)
  c03628:	108000d4 	ori	r2,r2,3
  c0362c:	e0bff645 	stb	r2,-39(fp)
  c03630:	00006906 	br	c037d8 <create_name+0x54c>
  c03634:	e0fff917 	ldw	r3,-28(fp)
  c03638:	e0bffa17 	ldw	r2,-24(fp)
  c0363c:	18800326 	beq	r3,r2,c0364c <create_name+0x3c0>
  c03640:	e0bff643 	ldbu	r2,-39(fp)
  c03644:	108000d4 	ori	r2,r2,3
  c03648:	e0bff645 	stb	r2,-39(fp)
  c0364c:	e0bff917 	ldw	r2,-28(fp)
  c03650:	e0fffa17 	ldw	r3,-24(fp)
  c03654:	18805f36 	bltu	r3,r2,c037d4 <create_name+0x548>
  c03658:	e0bffa17 	ldw	r2,-24(fp)
  c0365c:	e0bff915 	stw	r2,-28(fp)
  c03660:	00800204 	movi	r2,8
  c03664:	e0bff715 	stw	r2,-36(fp)
  c03668:	008002c4 	movi	r2,11
  c0366c:	e0bff815 	stw	r2,-32(fp)
  c03670:	e0bff603 	ldbu	r2,-40(fp)
  c03674:	1085883a 	add	r2,r2,r2
  c03678:	1085883a 	add	r2,r2,r2
  c0367c:	e0bff605 	stb	r2,-40(fp)
  c03680:	00005106 	br	c037c8 <create_name+0x53c>
  c03684:	e0bff68b 	ldhu	r2,-38(fp)
  c03688:	10802030 	cmpltui	r2,r2,128
  c0368c:	10000a1e 	bne	r2,zero,c036b8 <create_name+0x42c>
  c03690:	e0bff643 	ldbu	r2,-39(fp)
  c03694:	10800094 	ori	r2,r2,2
  c03698:	e0bff645 	stb	r2,-39(fp)
  c0369c:	e0bff68b 	ldhu	r2,-38(fp)
  c036a0:	1009883a 	mov	r4,r2
  c036a4:	0c061a80 	call	c061a8 <ff_wtoupper>
  c036a8:	0140e904 	movi	r5,932
  c036ac:	1009883a 	mov	r4,r2
  c036b0:	0c05f100 	call	c05f10 <ff_uni2oem>
  c036b4:	e0bff68d 	sth	r2,-38(fp)
  c036b8:	e0bff68b 	ldhu	r2,-38(fp)
  c036bc:	10804030 	cmpltui	r2,r2,256
  c036c0:	1000151e 	bne	r2,zero,c03718 <create_name+0x48c>
  c036c4:	e0bff817 	ldw	r2,-32(fp)
  c036c8:	10bfffc4 	addi	r2,r2,-1
  c036cc:	e0fff717 	ldw	r3,-36(fp)
  c036d0:	18800636 	bltu	r3,r2,c036ec <create_name+0x460>
  c036d4:	e0bff643 	ldbu	r2,-39(fp)
  c036d8:	108000d4 	ori	r2,r2,3
  c036dc:	e0bff645 	stb	r2,-39(fp)
  c036e0:	e0bff817 	ldw	r2,-32(fp)
  c036e4:	e0bff715 	stw	r2,-36(fp)
  c036e8:	00003706 	br	c037c8 <create_name+0x53c>
  c036ec:	e0bff717 	ldw	r2,-36(fp)
  c036f0:	10c00044 	addi	r3,r2,1
  c036f4:	e0fff715 	stw	r3,-36(fp)
  c036f8:	e0fff68b 	ldhu	r3,-38(fp)
  c036fc:	1806d23a 	srli	r3,r3,8
  c03700:	1809883a 	mov	r4,r3
  c03704:	e0fffe17 	ldw	r3,-8(fp)
  c03708:	1885883a 	add	r2,r3,r2
  c0370c:	10800804 	addi	r2,r2,32
  c03710:	11000005 	stb	r4,0(r2)
  c03714:	00002306 	br	c037a4 <create_name+0x518>
  c03718:	e0bff68b 	ldhu	r2,-38(fp)
  c0371c:	10000626 	beq	r2,zero,c03738 <create_name+0x4ac>
  c03720:	e0bff68b 	ldhu	r2,-38(fp)
  c03724:	100b883a 	mov	r5,r2
  c03728:	01004134 	movhi	r4,260
  c0372c:	21009504 	addi	r4,r4,596
  c03730:	0c112280 	call	c11228 <strchr>
  c03734:	10000626 	beq	r2,zero,c03750 <create_name+0x4c4>
  c03738:	008017c4 	movi	r2,95
  c0373c:	e0bff68d 	sth	r2,-38(fp)
  c03740:	e0bff643 	ldbu	r2,-39(fp)
  c03744:	108000d4 	ori	r2,r2,3
  c03748:	e0bff645 	stb	r2,-39(fp)
  c0374c:	00001506 	br	c037a4 <create_name+0x518>
  c03750:	e0bff68b 	ldhu	r2,-38(fp)
  c03754:	10801070 	cmpltui	r2,r2,65
  c03758:	1000061e 	bne	r2,zero,c03774 <create_name+0x4e8>
  c0375c:	e0bff68b 	ldhu	r2,-38(fp)
  c03760:	108016e8 	cmpgeui	r2,r2,91
  c03764:	1000031e 	bne	r2,zero,c03774 <create_name+0x4e8>
  c03768:	e0bff603 	ldbu	r2,-40(fp)
  c0376c:	10800094 	ori	r2,r2,2
  c03770:	e0bff605 	stb	r2,-40(fp)
  c03774:	e0bff68b 	ldhu	r2,-38(fp)
  c03778:	10801870 	cmpltui	r2,r2,97
  c0377c:	1000091e 	bne	r2,zero,c037a4 <create_name+0x518>
  c03780:	e0bff68b 	ldhu	r2,-38(fp)
  c03784:	10801ee8 	cmpgeui	r2,r2,123
  c03788:	1000061e 	bne	r2,zero,c037a4 <create_name+0x518>
  c0378c:	e0bff603 	ldbu	r2,-40(fp)
  c03790:	10800054 	ori	r2,r2,1
  c03794:	e0bff605 	stb	r2,-40(fp)
  c03798:	e0bff68b 	ldhu	r2,-38(fp)
  c0379c:	10bff804 	addi	r2,r2,-32
  c037a0:	e0bff68d 	sth	r2,-38(fp)
  c037a4:	e0bff717 	ldw	r2,-36(fp)
  c037a8:	10c00044 	addi	r3,r2,1
  c037ac:	e0fff715 	stw	r3,-36(fp)
  c037b0:	e0fff68b 	ldhu	r3,-38(fp)
  c037b4:	1809883a 	mov	r4,r3
  c037b8:	e0fffe17 	ldw	r3,-8(fp)
  c037bc:	1885883a 	add	r2,r3,r2
  c037c0:	10800804 	addi	r2,r2,32
  c037c4:	11000005 	stb	r4,0(r2)
  c037c8:	003f7506 	br	c035a0 <__alt_data_end+0xffb835a0>
  c037cc:	0001883a 	nop
  c037d0:	00000106 	br	c037d8 <create_name+0x54c>
  c037d4:	0001883a 	nop
  c037d8:	e0bffe17 	ldw	r2,-8(fp)
  c037dc:	10800803 	ldbu	r2,32(r2)
  c037e0:	10803fcc 	andi	r2,r2,255
  c037e4:	10803958 	cmpnei	r2,r2,229
  c037e8:	1000031e 	bne	r2,zero,c037f8 <create_name+0x56c>
  c037ec:	e0bffe17 	ldw	r2,-8(fp)
  c037f0:	00c00144 	movi	r3,5
  c037f4:	10c00805 	stb	r3,32(r2)
  c037f8:	e0bff817 	ldw	r2,-32(fp)
  c037fc:	10800218 	cmpnei	r2,r2,8
  c03800:	1000041e 	bne	r2,zero,c03814 <create_name+0x588>
  c03804:	e0bff603 	ldbu	r2,-40(fp)
  c03808:	1085883a 	add	r2,r2,r2
  c0380c:	1085883a 	add	r2,r2,r2
  c03810:	e0bff605 	stb	r2,-40(fp)
  c03814:	e0bff603 	ldbu	r2,-40(fp)
  c03818:	1080030c 	andi	r2,r2,12
  c0381c:	10800320 	cmpeqi	r2,r2,12
  c03820:	1000041e 	bne	r2,zero,c03834 <create_name+0x5a8>
  c03824:	e0bff603 	ldbu	r2,-40(fp)
  c03828:	108000cc 	andi	r2,r2,3
  c0382c:	108000d8 	cmpnei	r2,r2,3
  c03830:	1000031e 	bne	r2,zero,c03840 <create_name+0x5b4>
  c03834:	e0bff643 	ldbu	r2,-39(fp)
  c03838:	10800094 	ori	r2,r2,2
  c0383c:	e0bff645 	stb	r2,-39(fp)
  c03840:	e0bff643 	ldbu	r2,-39(fp)
  c03844:	1080008c 	andi	r2,r2,2
  c03848:	10000c1e 	bne	r2,zero,c0387c <create_name+0x5f0>
  c0384c:	e0bff603 	ldbu	r2,-40(fp)
  c03850:	1080004c 	andi	r2,r2,1
  c03854:	10000326 	beq	r2,zero,c03864 <create_name+0x5d8>
  c03858:	e0bff643 	ldbu	r2,-39(fp)
  c0385c:	10800414 	ori	r2,r2,16
  c03860:	e0bff645 	stb	r2,-39(fp)
  c03864:	e0bff603 	ldbu	r2,-40(fp)
  c03868:	1080010c 	andi	r2,r2,4
  c0386c:	10000326 	beq	r2,zero,c0387c <create_name+0x5f0>
  c03870:	e0bff643 	ldbu	r2,-39(fp)
  c03874:	10800214 	ori	r2,r2,8
  c03878:	e0bff645 	stb	r2,-39(fp)
  c0387c:	e0bffe17 	ldw	r2,-8(fp)
  c03880:	e0fff643 	ldbu	r3,-39(fp)
  c03884:	10c00ac5 	stb	r3,43(r2)
  c03888:	0005883a 	mov	r2,zero
  c0388c:	e037883a 	mov	sp,fp
  c03890:	dfc00117 	ldw	ra,4(sp)
  c03894:	df000017 	ldw	fp,0(sp)
  c03898:	dec00204 	addi	sp,sp,8
  c0389c:	f800283a 	ret

00c038a0 <follow_path>:
  c038a0:	defff904 	addi	sp,sp,-28
  c038a4:	dfc00615 	stw	ra,24(sp)
  c038a8:	df000515 	stw	fp,20(sp)
  c038ac:	df000504 	addi	fp,sp,20
  c038b0:	e13ffe15 	stw	r4,-8(fp)
  c038b4:	e17fff15 	stw	r5,-4(fp)
  c038b8:	e0bffe17 	ldw	r2,-8(fp)
  c038bc:	10800017 	ldw	r2,0(r2)
  c038c0:	e0bffc15 	stw	r2,-16(fp)
  c038c4:	00000306 	br	c038d4 <follow_path+0x34>
  c038c8:	e0bfff17 	ldw	r2,-4(fp)
  c038cc:	10800044 	addi	r2,r2,1
  c038d0:	e0bfff15 	stw	r2,-4(fp)
  c038d4:	e0bfff17 	ldw	r2,-4(fp)
  c038d8:	10800003 	ldbu	r2,0(r2)
  c038dc:	10803fcc 	andi	r2,r2,255
  c038e0:	1080201c 	xori	r2,r2,128
  c038e4:	10bfe004 	addi	r2,r2,-128
  c038e8:	10800be0 	cmpeqi	r2,r2,47
  c038ec:	103ff61e 	bne	r2,zero,c038c8 <__alt_data_end+0xffb838c8>
  c038f0:	e0bfff17 	ldw	r2,-4(fp)
  c038f4:	10800003 	ldbu	r2,0(r2)
  c038f8:	10803fcc 	andi	r2,r2,255
  c038fc:	1080201c 	xori	r2,r2,128
  c03900:	10bfe004 	addi	r2,r2,-128
  c03904:	10801720 	cmpeqi	r2,r2,92
  c03908:	103fef1e 	bne	r2,zero,c038c8 <__alt_data_end+0xffb838c8>
  c0390c:	e0bffe17 	ldw	r2,-8(fp)
  c03910:	10000215 	stw	zero,8(r2)
  c03914:	e0bfff17 	ldw	r2,-4(fp)
  c03918:	10800003 	ldbu	r2,0(r2)
  c0391c:	10803fcc 	andi	r2,r2,255
  c03920:	10800828 	cmpgeui	r2,r2,32
  c03924:	1000081e 	bne	r2,zero,c03948 <follow_path+0xa8>
  c03928:	e0bffe17 	ldw	r2,-8(fp)
  c0392c:	00ffe004 	movi	r3,-128
  c03930:	10c00ac5 	stb	r3,43(r2)
  c03934:	000b883a 	mov	r5,zero
  c03938:	e13ffe17 	ldw	r4,-8(fp)
  c0393c:	0c016900 	call	c01690 <dir_sdi>
  c03940:	e0bffb15 	stw	r2,-20(fp)
  c03944:	00003506 	br	c03a1c <follow_path+0x17c>
  c03948:	e0bfff04 	addi	r2,fp,-4
  c0394c:	100b883a 	mov	r5,r2
  c03950:	e13ffe17 	ldw	r4,-8(fp)
  c03954:	0c0328c0 	call	c0328c <create_name>
  c03958:	e0bffb15 	stw	r2,-20(fp)
  c0395c:	e0bffb17 	ldw	r2,-20(fp)
  c03960:	1000291e 	bne	r2,zero,c03a08 <follow_path+0x168>
  c03964:	e13ffe17 	ldw	r4,-8(fp)
  c03968:	0c025ac0 	call	c025ac <dir_find>
  c0396c:	e0bffb15 	stw	r2,-20(fp)
  c03970:	e0bffe17 	ldw	r2,-8(fp)
  c03974:	10800ac3 	ldbu	r2,43(r2)
  c03978:	e0bffd05 	stb	r2,-12(fp)
  c0397c:	e0bffb17 	ldw	r2,-20(fp)
  c03980:	10000926 	beq	r2,zero,c039a8 <follow_path+0x108>
  c03984:	e0bffb17 	ldw	r2,-20(fp)
  c03988:	10800118 	cmpnei	r2,r2,4
  c0398c:	1000201e 	bne	r2,zero,c03a10 <follow_path+0x170>
  c03990:	e0bffd03 	ldbu	r2,-12(fp)
  c03994:	1080010c 	andi	r2,r2,4
  c03998:	10001d1e 	bne	r2,zero,c03a10 <follow_path+0x170>
  c0399c:	00800144 	movi	r2,5
  c039a0:	e0bffb15 	stw	r2,-20(fp)
  c039a4:	00001a06 	br	c03a10 <follow_path+0x170>
  c039a8:	e0bffd03 	ldbu	r2,-12(fp)
  c039ac:	1080010c 	andi	r2,r2,4
  c039b0:	1000191e 	bne	r2,zero,c03a18 <follow_path+0x178>
  c039b4:	e0bffe17 	ldw	r2,-8(fp)
  c039b8:	10800183 	ldbu	r2,6(r2)
  c039bc:	10803fcc 	andi	r2,r2,255
  c039c0:	1080040c 	andi	r2,r2,16
  c039c4:	1000031e 	bne	r2,zero,c039d4 <follow_path+0x134>
  c039c8:	00800144 	movi	r2,5
  c039cc:	e0bffb15 	stw	r2,-20(fp)
  c039d0:	00001206 	br	c03a1c <follow_path+0x17c>
  c039d4:	e0bffc17 	ldw	r2,-16(fp)
  c039d8:	10c00d04 	addi	r3,r2,52
  c039dc:	e0bffe17 	ldw	r2,-8(fp)
  c039e0:	10800417 	ldw	r2,16(r2)
  c039e4:	10807fcc 	andi	r2,r2,511
  c039e8:	1885883a 	add	r2,r3,r2
  c039ec:	100b883a 	mov	r5,r2
  c039f0:	e13ffc17 	ldw	r4,-16(fp)
  c039f4:	0c01b5c0 	call	c01b5c <ld_clust>
  c039f8:	1007883a 	mov	r3,r2
  c039fc:	e0bffe17 	ldw	r2,-8(fp)
  c03a00:	10c00215 	stw	r3,8(r2)
  c03a04:	003fd006 	br	c03948 <__alt_data_end+0xffb83948>
  c03a08:	0001883a 	nop
  c03a0c:	00000306 	br	c03a1c <follow_path+0x17c>
  c03a10:	0001883a 	nop
  c03a14:	00000106 	br	c03a1c <follow_path+0x17c>
  c03a18:	0001883a 	nop
  c03a1c:	e0bffb17 	ldw	r2,-20(fp)
  c03a20:	e037883a 	mov	sp,fp
  c03a24:	dfc00117 	ldw	ra,4(sp)
  c03a28:	df000017 	ldw	fp,0(sp)
  c03a2c:	dec00204 	addi	sp,sp,8
  c03a30:	f800283a 	ret

00c03a34 <get_ldnumber>:
  c03a34:	defff904 	addi	sp,sp,-28
  c03a38:	df000615 	stw	fp,24(sp)
  c03a3c:	df000604 	addi	fp,sp,24
  c03a40:	e13fff15 	stw	r4,-4(fp)
  c03a44:	00bfffc4 	movi	r2,-1
  c03a48:	e0bffc15 	stw	r2,-16(fp)
  c03a4c:	e0bfff17 	ldw	r2,-4(fp)
  c03a50:	10800017 	ldw	r2,0(r2)
  c03a54:	e0bffd15 	stw	r2,-12(fp)
  c03a58:	e0bffd17 	ldw	r2,-12(fp)
  c03a5c:	e0bffa15 	stw	r2,-24(fp)
  c03a60:	e0bffd17 	ldw	r2,-12(fp)
  c03a64:	1000021e 	bne	r2,zero,c03a70 <get_ldnumber+0x3c>
  c03a68:	e0bffc17 	ldw	r2,-16(fp)
  c03a6c:	00003506 	br	c03b44 <get_ldnumber+0x110>
  c03a70:	e0bffa17 	ldw	r2,-24(fp)
  c03a74:	10c00044 	addi	r3,r2,1
  c03a78:	e0fffa15 	stw	r3,-24(fp)
  c03a7c:	10800003 	ldbu	r2,0(r2)
  c03a80:	e0bffe05 	stb	r2,-8(fp)
  c03a84:	e0bffe03 	ldbu	r2,-8(fp)
  c03a88:	10803fcc 	andi	r2,r2,255
  c03a8c:	10800830 	cmpltui	r2,r2,32
  c03a90:	1000031e 	bne	r2,zero,c03aa0 <get_ldnumber+0x6c>
  c03a94:	e0bffe07 	ldb	r2,-8(fp)
  c03a98:	10800e98 	cmpnei	r2,r2,58
  c03a9c:	103ff41e 	bne	r2,zero,c03a70 <__alt_data_end+0xffb83a70>
  c03aa0:	e0bffe07 	ldb	r2,-8(fp)
  c03aa4:	10800e98 	cmpnei	r2,r2,58
  c03aa8:	1000241e 	bne	r2,zero,c03b3c <get_ldnumber+0x108>
  c03aac:	00800044 	movi	r2,1
  c03ab0:	e0bffb15 	stw	r2,-20(fp)
  c03ab4:	e0bffd17 	ldw	r2,-12(fp)
  c03ab8:	10800003 	ldbu	r2,0(r2)
  c03abc:	10803fcc 	andi	r2,r2,255
  c03ac0:	1080201c 	xori	r2,r2,128
  c03ac4:	10bfe004 	addi	r2,r2,-128
  c03ac8:	10800c10 	cmplti	r2,r2,48
  c03acc:	1000121e 	bne	r2,zero,c03b18 <get_ldnumber+0xe4>
  c03ad0:	e0bffd17 	ldw	r2,-12(fp)
  c03ad4:	10800003 	ldbu	r2,0(r2)
  c03ad8:	10803fcc 	andi	r2,r2,255
  c03adc:	1080201c 	xori	r2,r2,128
  c03ae0:	10bfe004 	addi	r2,r2,-128
  c03ae4:	10800e88 	cmpgei	r2,r2,58
  c03ae8:	10000b1e 	bne	r2,zero,c03b18 <get_ldnumber+0xe4>
  c03aec:	e0bffd17 	ldw	r2,-12(fp)
  c03af0:	10c00084 	addi	r3,r2,2
  c03af4:	e0bffa17 	ldw	r2,-24(fp)
  c03af8:	1880071e 	bne	r3,r2,c03b18 <get_ldnumber+0xe4>
  c03afc:	e0bffd17 	ldw	r2,-12(fp)
  c03b00:	10800003 	ldbu	r2,0(r2)
  c03b04:	10803fcc 	andi	r2,r2,255
  c03b08:	1080201c 	xori	r2,r2,128
  c03b0c:	10bfe004 	addi	r2,r2,-128
  c03b10:	10bff404 	addi	r2,r2,-48
  c03b14:	e0bffb15 	stw	r2,-20(fp)
  c03b18:	e0bffb17 	ldw	r2,-20(fp)
  c03b1c:	00800516 	blt	zero,r2,c03b34 <get_ldnumber+0x100>
  c03b20:	e0bffb17 	ldw	r2,-20(fp)
  c03b24:	e0bffc15 	stw	r2,-16(fp)
  c03b28:	e0bfff17 	ldw	r2,-4(fp)
  c03b2c:	e0fffa17 	ldw	r3,-24(fp)
  c03b30:	10c00015 	stw	r3,0(r2)
  c03b34:	e0bffc17 	ldw	r2,-16(fp)
  c03b38:	00000206 	br	c03b44 <get_ldnumber+0x110>
  c03b3c:	e03ffc15 	stw	zero,-16(fp)
  c03b40:	e0bffc17 	ldw	r2,-16(fp)
  c03b44:	e037883a 	mov	sp,fp
  c03b48:	df000017 	ldw	fp,0(sp)
  c03b4c:	dec00104 	addi	sp,sp,4
  c03b50:	f800283a 	ret

00c03b54 <check_fs>:
  c03b54:	defffa04 	addi	sp,sp,-24
  c03b58:	dfc00515 	stw	ra,20(sp)
  c03b5c:	df000415 	stw	fp,16(sp)
  c03b60:	df000404 	addi	fp,sp,16
  c03b64:	e13ffe15 	stw	r4,-8(fp)
  c03b68:	e17fff15 	stw	r5,-4(fp)
  c03b6c:	e0bffe17 	ldw	r2,-8(fp)
  c03b70:	10000105 	stb	zero,4(r2)
  c03b74:	e0bffe17 	ldw	r2,-8(fp)
  c03b78:	00ffffc4 	movi	r3,-1
  c03b7c:	10c00c15 	stw	r3,48(r2)
  c03b80:	e17fff17 	ldw	r5,-4(fp)
  c03b84:	e13ffe17 	ldw	r4,-8(fp)
  c03b88:	0c009800 	call	c00980 <move_window>
  c03b8c:	10000226 	beq	r2,zero,c03b98 <check_fs+0x44>
  c03b90:	00800104 	movi	r2,4
  c03b94:	00006e06 	br	c03d50 <check_fs+0x1fc>
  c03b98:	e0bffe17 	ldw	r2,-8(fp)
  c03b9c:	10800d04 	addi	r2,r2,52
  c03ba0:	10807f84 	addi	r2,r2,510
  c03ba4:	1009883a 	mov	r4,r2
  c03ba8:	0c003e40 	call	c003e4 <ld_word>
  c03bac:	e0bffc0d 	sth	r2,-16(fp)
  c03bb0:	e0bffe17 	ldw	r2,-8(fp)
  c03bb4:	10800d03 	ldbu	r2,52(r2)
  c03bb8:	e0bffc85 	stb	r2,-14(fp)
  c03bbc:	e0bffc83 	ldbu	r2,-14(fp)
  c03bc0:	10803ae0 	cmpeqi	r2,r2,235
  c03bc4:	1000061e 	bne	r2,zero,c03be0 <check_fs+0x8c>
  c03bc8:	e0bffc83 	ldbu	r2,-14(fp)
  c03bcc:	10803a60 	cmpeqi	r2,r2,233
  c03bd0:	1000031e 	bne	r2,zero,c03be0 <check_fs+0x8c>
  c03bd4:	e0bffc83 	ldbu	r2,-14(fp)
  c03bd8:	10803a18 	cmpnei	r2,r2,232
  c03bdc:	1000561e 	bne	r2,zero,c03d38 <check_fs+0x1e4>
  c03be0:	e0fffc0b 	ldhu	r3,-16(fp)
  c03be4:	00aa9554 	movui	r2,43605
  c03be8:	18800b1e 	bne	r3,r2,c03c18 <check_fs+0xc4>
  c03bec:	e0bffe17 	ldw	r2,-8(fp)
  c03bf0:	10800d04 	addi	r2,r2,52
  c03bf4:	10801484 	addi	r2,r2,82
  c03bf8:	01800204 	movi	r6,8
  c03bfc:	01404134 	movhi	r5,260
  c03c00:	29409704 	addi	r5,r5,604
  c03c04:	1009883a 	mov	r4,r2
  c03c08:	0c10b7c0 	call	c10b7c <memcmp>
  c03c0c:	1000021e 	bne	r2,zero,c03c18 <check_fs+0xc4>
  c03c10:	0005883a 	mov	r2,zero
  c03c14:	00004e06 	br	c03d50 <check_fs+0x1fc>
  c03c18:	e0bffe17 	ldw	r2,-8(fp)
  c03c1c:	10800d04 	addi	r2,r2,52
  c03c20:	108002c4 	addi	r2,r2,11
  c03c24:	1009883a 	mov	r4,r2
  c03c28:	0c003e40 	call	c003e4 <ld_word>
  c03c2c:	e0bffd0d 	sth	r2,-12(fp)
  c03c30:	e0bffe17 	ldw	r2,-8(fp)
  c03c34:	10801043 	ldbu	r2,65(r2)
  c03c38:	e0bffc85 	stb	r2,-14(fp)
  c03c3c:	e0fffd0b 	ldhu	r3,-12(fp)
  c03c40:	e0bffd0b 	ldhu	r2,-12(fp)
  c03c44:	10bfffc4 	addi	r2,r2,-1
  c03c48:	1884703a 	and	r2,r3,r2
  c03c4c:	10003a1e 	bne	r2,zero,c03d38 <check_fs+0x1e4>
  c03c50:	e0bffd0b 	ldhu	r2,-12(fp)
  c03c54:	10808030 	cmpltui	r2,r2,512
  c03c58:	1000371e 	bne	r2,zero,c03d38 <check_fs+0x1e4>
  c03c5c:	e0bffd0b 	ldhu	r2,-12(fp)
  c03c60:	10808068 	cmpgeui	r2,r2,513
  c03c64:	1000341e 	bne	r2,zero,c03d38 <check_fs+0x1e4>
  c03c68:	e0bffc83 	ldbu	r2,-14(fp)
  c03c6c:	10003226 	beq	r2,zero,c03d38 <check_fs+0x1e4>
  c03c70:	e0fffc83 	ldbu	r3,-14(fp)
  c03c74:	e0bffc83 	ldbu	r2,-14(fp)
  c03c78:	10bfffc4 	addi	r2,r2,-1
  c03c7c:	1884703a 	and	r2,r3,r2
  c03c80:	10002d1e 	bne	r2,zero,c03d38 <check_fs+0x1e4>
  c03c84:	e0bffe17 	ldw	r2,-8(fp)
  c03c88:	10800d04 	addi	r2,r2,52
  c03c8c:	10800384 	addi	r2,r2,14
  c03c90:	1009883a 	mov	r4,r2
  c03c94:	0c003e40 	call	c003e4 <ld_word>
  c03c98:	10bfffcc 	andi	r2,r2,65535
  c03c9c:	10002626 	beq	r2,zero,c03d38 <check_fs+0x1e4>
  c03ca0:	e0bffe17 	ldw	r2,-8(fp)
  c03ca4:	10801103 	ldbu	r2,68(r2)
  c03ca8:	10803fcc 	andi	r2,r2,255
  c03cac:	10bfffc4 	addi	r2,r2,-1
  c03cb0:	108000a8 	cmpgeui	r2,r2,2
  c03cb4:	1000201e 	bne	r2,zero,c03d38 <check_fs+0x1e4>
  c03cb8:	e0bffe17 	ldw	r2,-8(fp)
  c03cbc:	10800d04 	addi	r2,r2,52
  c03cc0:	10800444 	addi	r2,r2,17
  c03cc4:	1009883a 	mov	r4,r2
  c03cc8:	0c003e40 	call	c003e4 <ld_word>
  c03ccc:	10bfffcc 	andi	r2,r2,65535
  c03cd0:	10001926 	beq	r2,zero,c03d38 <check_fs+0x1e4>
  c03cd4:	e0bffe17 	ldw	r2,-8(fp)
  c03cd8:	10800d04 	addi	r2,r2,52
  c03cdc:	108004c4 	addi	r2,r2,19
  c03ce0:	1009883a 	mov	r4,r2
  c03ce4:	0c003e40 	call	c003e4 <ld_word>
  c03ce8:	10bfffcc 	andi	r2,r2,65535
  c03cec:	10802028 	cmpgeui	r2,r2,128
  c03cf0:	1000081e 	bne	r2,zero,c03d14 <check_fs+0x1c0>
  c03cf4:	e0bffe17 	ldw	r2,-8(fp)
  c03cf8:	10800d04 	addi	r2,r2,52
  c03cfc:	10800804 	addi	r2,r2,32
  c03d00:	1009883a 	mov	r4,r2
  c03d04:	0c0043c0 	call	c0043c <ld_dword>
  c03d08:	1007883a 	mov	r3,r2
  c03d0c:	00bfffd4 	movui	r2,65535
  c03d10:	10c0092e 	bgeu	r2,r3,c03d38 <check_fs+0x1e4>
  c03d14:	e0bffe17 	ldw	r2,-8(fp)
  c03d18:	10800d04 	addi	r2,r2,52
  c03d1c:	10800584 	addi	r2,r2,22
  c03d20:	1009883a 	mov	r4,r2
  c03d24:	0c003e40 	call	c003e4 <ld_word>
  c03d28:	10bfffcc 	andi	r2,r2,65535
  c03d2c:	10000226 	beq	r2,zero,c03d38 <check_fs+0x1e4>
  c03d30:	0005883a 	mov	r2,zero
  c03d34:	00000606 	br	c03d50 <check_fs+0x1fc>
  c03d38:	e0fffc0b 	ldhu	r3,-16(fp)
  c03d3c:	00aa9554 	movui	r2,43605
  c03d40:	1880021e 	bne	r3,r2,c03d4c <check_fs+0x1f8>
  c03d44:	00800084 	movi	r2,2
  c03d48:	00000106 	br	c03d50 <check_fs+0x1fc>
  c03d4c:	008000c4 	movi	r2,3
  c03d50:	e037883a 	mov	sp,fp
  c03d54:	dfc00117 	ldw	ra,4(sp)
  c03d58:	df000017 	ldw	fp,0(sp)
  c03d5c:	dec00204 	addi	sp,sp,8
  c03d60:	f800283a 	ret

00c03d64 <find_volume>:
  c03d64:	defff604 	addi	sp,sp,-40
  c03d68:	dfc00915 	stw	ra,36(sp)
  c03d6c:	df000815 	stw	fp,32(sp)
  c03d70:	df000804 	addi	fp,sp,32
  c03d74:	e13ffe15 	stw	r4,-8(fp)
  c03d78:	e17fff15 	stw	r5,-4(fp)
  c03d7c:	000b883a 	mov	r5,zero
  c03d80:	e13ffe17 	ldw	r4,-8(fp)
  c03d84:	0c03b540 	call	c03b54 <check_fs>
  c03d88:	e0bff915 	stw	r2,-28(fp)
  c03d8c:	e0bff917 	ldw	r2,-28(fp)
  c03d90:	108000a0 	cmpeqi	r2,r2,2
  c03d94:	1000071e 	bne	r2,zero,c03db4 <find_volume+0x50>
  c03d98:	e0bff917 	ldw	r2,-28(fp)
  c03d9c:	108000e8 	cmpgeui	r2,r2,3
  c03da0:	1000021e 	bne	r2,zero,c03dac <find_volume+0x48>
  c03da4:	e0bfff17 	ldw	r2,-4(fp)
  c03da8:	1000021e 	bne	r2,zero,c03db4 <find_volume+0x50>
  c03dac:	e0bff917 	ldw	r2,-28(fp)
  c03db0:	00004006 	br	c03eb4 <find_volume+0x150>
  c03db4:	e03ff815 	stw	zero,-32(fp)
  c03db8:	00001306 	br	c03e08 <find_volume+0xa4>
  c03dbc:	e0bffe17 	ldw	r2,-8(fp)
  c03dc0:	10c00d04 	addi	r3,r2,52
  c03dc4:	e0bff817 	ldw	r2,-32(fp)
  c03dc8:	1004913a 	slli	r2,r2,4
  c03dcc:	10807184 	addi	r2,r2,454
  c03dd0:	1885883a 	add	r2,r3,r2
  c03dd4:	1009883a 	mov	r4,r2
  c03dd8:	0c0043c0 	call	c0043c <ld_dword>
  c03ddc:	1007883a 	mov	r3,r2
  c03de0:	e0bff817 	ldw	r2,-32(fp)
  c03de4:	1085883a 	add	r2,r2,r2
  c03de8:	1085883a 	add	r2,r2,r2
  c03dec:	e13ff804 	addi	r4,fp,-32
  c03df0:	2085883a 	add	r2,r4,r2
  c03df4:	10800204 	addi	r2,r2,8
  c03df8:	10c00015 	stw	r3,0(r2)
  c03dfc:	e0bff817 	ldw	r2,-32(fp)
  c03e00:	10800044 	addi	r2,r2,1
  c03e04:	e0bff815 	stw	r2,-32(fp)
  c03e08:	e0bff817 	ldw	r2,-32(fp)
  c03e0c:	10800130 	cmpltui	r2,r2,4
  c03e10:	103fea1e 	bne	r2,zero,c03dbc <__alt_data_end+0xffb83dbc>
  c03e14:	e0bfff17 	ldw	r2,-4(fp)
  c03e18:	10000326 	beq	r2,zero,c03e28 <find_volume+0xc4>
  c03e1c:	e0bfff17 	ldw	r2,-4(fp)
  c03e20:	10bfffc4 	addi	r2,r2,-1
  c03e24:	00000106 	br	c03e2c <find_volume+0xc8>
  c03e28:	0005883a 	mov	r2,zero
  c03e2c:	e0bff815 	stw	r2,-32(fp)
  c03e30:	e0bff817 	ldw	r2,-32(fp)
  c03e34:	1085883a 	add	r2,r2,r2
  c03e38:	1085883a 	add	r2,r2,r2
  c03e3c:	e0fff804 	addi	r3,fp,-32
  c03e40:	1885883a 	add	r2,r3,r2
  c03e44:	10800204 	addi	r2,r2,8
  c03e48:	10800017 	ldw	r2,0(r2)
  c03e4c:	10000b26 	beq	r2,zero,c03e7c <find_volume+0x118>
  c03e50:	e0bff817 	ldw	r2,-32(fp)
  c03e54:	1085883a 	add	r2,r2,r2
  c03e58:	1085883a 	add	r2,r2,r2
  c03e5c:	e13ff804 	addi	r4,fp,-32
  c03e60:	2085883a 	add	r2,r4,r2
  c03e64:	10800204 	addi	r2,r2,8
  c03e68:	10800017 	ldw	r2,0(r2)
  c03e6c:	100b883a 	mov	r5,r2
  c03e70:	e13ffe17 	ldw	r4,-8(fp)
  c03e74:	0c03b540 	call	c03b54 <check_fs>
  c03e78:	00000106 	br	c03e80 <find_volume+0x11c>
  c03e7c:	008000c4 	movi	r2,3
  c03e80:	e0bff915 	stw	r2,-28(fp)
  c03e84:	e0bfff17 	ldw	r2,-4(fp)
  c03e88:	1000091e 	bne	r2,zero,c03eb0 <find_volume+0x14c>
  c03e8c:	e0bff917 	ldw	r2,-28(fp)
  c03e90:	108000b0 	cmpltui	r2,r2,2
  c03e94:	1000061e 	bne	r2,zero,c03eb0 <find_volume+0x14c>
  c03e98:	e0bff817 	ldw	r2,-32(fp)
  c03e9c:	10800044 	addi	r2,r2,1
  c03ea0:	e0bff815 	stw	r2,-32(fp)
  c03ea4:	e0bff817 	ldw	r2,-32(fp)
  c03ea8:	10800130 	cmpltui	r2,r2,4
  c03eac:	103fe01e 	bne	r2,zero,c03e30 <__alt_data_end+0xffb83e30>
  c03eb0:	e0bff917 	ldw	r2,-28(fp)
  c03eb4:	e037883a 	mov	sp,fp
  c03eb8:	dfc00117 	ldw	ra,4(sp)
  c03ebc:	df000017 	ldw	fp,0(sp)
  c03ec0:	dec00204 	addi	sp,sp,8
  c03ec4:	f800283a 	ret

00c03ec8 <mount_volume>:
  c03ec8:	defff004 	addi	sp,sp,-64
  c03ecc:	dfc00f15 	stw	ra,60(sp)
  c03ed0:	df000e15 	stw	fp,56(sp)
  c03ed4:	df000e04 	addi	fp,sp,56
  c03ed8:	e13ffd15 	stw	r4,-12(fp)
  c03edc:	e17ffe15 	stw	r5,-8(fp)
  c03ee0:	3005883a 	mov	r2,r6
  c03ee4:	e0bfff05 	stb	r2,-4(fp)
  c03ee8:	e0bffe17 	ldw	r2,-8(fp)
  c03eec:	10000015 	stw	zero,0(r2)
  c03ef0:	e13ffd17 	ldw	r4,-12(fp)
  c03ef4:	0c03a340 	call	c03a34 <get_ldnumber>
  c03ef8:	e0bff615 	stw	r2,-40(fp)
  c03efc:	e0bff617 	ldw	r2,-40(fp)
  c03f00:	1000020e 	bge	r2,zero,c03f0c <mount_volume+0x44>
  c03f04:	008002c4 	movi	r2,11
  c03f08:	00019a06 	br	c04574 <mount_volume+0x6ac>
  c03f0c:	e0bff617 	ldw	r2,-40(fp)
  c03f10:	1085883a 	add	r2,r2,r2
  c03f14:	1087883a 	add	r3,r2,r2
  c03f18:	d0a01904 	addi	r2,gp,-32668
  c03f1c:	1885883a 	add	r2,r3,r2
  c03f20:	10800017 	ldw	r2,0(r2)
  c03f24:	e0bff715 	stw	r2,-36(fp)
  c03f28:	e0bff717 	ldw	r2,-36(fp)
  c03f2c:	1000021e 	bne	r2,zero,c03f38 <mount_volume+0x70>
  c03f30:	00800304 	movi	r2,12
  c03f34:	00018f06 	br	c04574 <mount_volume+0x6ac>
  c03f38:	e0bffe17 	ldw	r2,-8(fp)
  c03f3c:	e0fff717 	ldw	r3,-36(fp)
  c03f40:	10c00015 	stw	r3,0(r2)
  c03f44:	e0ffff03 	ldbu	r3,-4(fp)
  c03f48:	00bfff84 	movi	r2,-2
  c03f4c:	1884703a 	and	r2,r3,r2
  c03f50:	e0bfff05 	stb	r2,-4(fp)
  c03f54:	e0bff717 	ldw	r2,-36(fp)
  c03f58:	10800003 	ldbu	r2,0(r2)
  c03f5c:	10803fcc 	andi	r2,r2,255
  c03f60:	10001226 	beq	r2,zero,c03fac <mount_volume+0xe4>
  c03f64:	e0bff717 	ldw	r2,-36(fp)
  c03f68:	10800043 	ldbu	r2,1(r2)
  c03f6c:	10803fcc 	andi	r2,r2,255
  c03f70:	1009883a 	mov	r4,r2
  c03f74:	0c0026c0 	call	c0026c <disk_status>
  c03f78:	e0bff805 	stb	r2,-32(fp)
  c03f7c:	e0bff803 	ldbu	r2,-32(fp)
  c03f80:	1080004c 	andi	r2,r2,1
  c03f84:	1000091e 	bne	r2,zero,c03fac <mount_volume+0xe4>
  c03f88:	e0bfff03 	ldbu	r2,-4(fp)
  c03f8c:	10000526 	beq	r2,zero,c03fa4 <mount_volume+0xdc>
  c03f90:	e0bff803 	ldbu	r2,-32(fp)
  c03f94:	1080010c 	andi	r2,r2,4
  c03f98:	10000226 	beq	r2,zero,c03fa4 <mount_volume+0xdc>
  c03f9c:	00800284 	movi	r2,10
  c03fa0:	00017406 	br	c04574 <mount_volume+0x6ac>
  c03fa4:	0005883a 	mov	r2,zero
  c03fa8:	00017206 	br	c04574 <mount_volume+0x6ac>
  c03fac:	e0bff717 	ldw	r2,-36(fp)
  c03fb0:	10000005 	stb	zero,0(r2)
  c03fb4:	e0bff717 	ldw	r2,-36(fp)
  c03fb8:	10800043 	ldbu	r2,1(r2)
  c03fbc:	10803fcc 	andi	r2,r2,255
  c03fc0:	1009883a 	mov	r4,r2
  c03fc4:	0c002cc0 	call	c002cc <disk_initialize>
  c03fc8:	e0bff805 	stb	r2,-32(fp)
  c03fcc:	e0bff803 	ldbu	r2,-32(fp)
  c03fd0:	1080004c 	andi	r2,r2,1
  c03fd4:	10000226 	beq	r2,zero,c03fe0 <mount_volume+0x118>
  c03fd8:	008000c4 	movi	r2,3
  c03fdc:	00016506 	br	c04574 <mount_volume+0x6ac>
  c03fe0:	e0bfff03 	ldbu	r2,-4(fp)
  c03fe4:	10000526 	beq	r2,zero,c03ffc <mount_volume+0x134>
  c03fe8:	e0bff803 	ldbu	r2,-32(fp)
  c03fec:	1080010c 	andi	r2,r2,4
  c03ff0:	10000226 	beq	r2,zero,c03ffc <mount_volume+0x134>
  c03ff4:	00800284 	movi	r2,10
  c03ff8:	00015e06 	br	c04574 <mount_volume+0x6ac>
  c03ffc:	000b883a 	mov	r5,zero
  c04000:	e13ff717 	ldw	r4,-36(fp)
  c04004:	0c03d640 	call	c03d64 <find_volume>
  c04008:	e0bff515 	stw	r2,-44(fp)
  c0400c:	e0bff517 	ldw	r2,-44(fp)
  c04010:	10800118 	cmpnei	r2,r2,4
  c04014:	1000021e 	bne	r2,zero,c04020 <mount_volume+0x158>
  c04018:	00800044 	movi	r2,1
  c0401c:	00015506 	br	c04574 <mount_volume+0x6ac>
  c04020:	e0bff517 	ldw	r2,-44(fp)
  c04024:	108000b0 	cmpltui	r2,r2,2
  c04028:	1000021e 	bne	r2,zero,c04034 <mount_volume+0x16c>
  c0402c:	00800344 	movi	r2,13
  c04030:	00015006 	br	c04574 <mount_volume+0x6ac>
  c04034:	e0bff717 	ldw	r2,-36(fp)
  c04038:	10800c17 	ldw	r2,48(r2)
  c0403c:	e0bff915 	stw	r2,-28(fp)
  c04040:	e0bff717 	ldw	r2,-36(fp)
  c04044:	10800d04 	addi	r2,r2,52
  c04048:	108002c4 	addi	r2,r2,11
  c0404c:	1009883a 	mov	r4,r2
  c04050:	0c003e40 	call	c003e4 <ld_word>
  c04054:	10bfffcc 	andi	r2,r2,65535
  c04058:	10808020 	cmpeqi	r2,r2,512
  c0405c:	1000021e 	bne	r2,zero,c04068 <mount_volume+0x1a0>
  c04060:	00800344 	movi	r2,13
  c04064:	00014306 	br	c04574 <mount_volume+0x6ac>
  c04068:	e0bff717 	ldw	r2,-36(fp)
  c0406c:	10800d04 	addi	r2,r2,52
  c04070:	10800584 	addi	r2,r2,22
  c04074:	1009883a 	mov	r4,r2
  c04078:	0c003e40 	call	c003e4 <ld_word>
  c0407c:	10bfffcc 	andi	r2,r2,65535
  c04080:	e0bff315 	stw	r2,-52(fp)
  c04084:	e0bff317 	ldw	r2,-52(fp)
  c04088:	1000061e 	bne	r2,zero,c040a4 <mount_volume+0x1dc>
  c0408c:	e0bff717 	ldw	r2,-36(fp)
  c04090:	10800d04 	addi	r2,r2,52
  c04094:	10800904 	addi	r2,r2,36
  c04098:	1009883a 	mov	r4,r2
  c0409c:	0c0043c0 	call	c0043c <ld_dword>
  c040a0:	e0bff315 	stw	r2,-52(fp)
  c040a4:	e0bff717 	ldw	r2,-36(fp)
  c040a8:	e0fff317 	ldw	r3,-52(fp)
  c040ac:	10c00715 	stw	r3,28(r2)
  c040b0:	e0bff717 	ldw	r2,-36(fp)
  c040b4:	10c01103 	ldbu	r3,68(r2)
  c040b8:	e0bff717 	ldw	r2,-36(fp)
  c040bc:	10c000c5 	stb	r3,3(r2)
  c040c0:	e0bff717 	ldw	r2,-36(fp)
  c040c4:	108000c3 	ldbu	r2,3(r2)
  c040c8:	10803fcc 	andi	r2,r2,255
  c040cc:	10800060 	cmpeqi	r2,r2,1
  c040d0:	1000071e 	bne	r2,zero,c040f0 <mount_volume+0x228>
  c040d4:	e0bff717 	ldw	r2,-36(fp)
  c040d8:	108000c3 	ldbu	r2,3(r2)
  c040dc:	10803fcc 	andi	r2,r2,255
  c040e0:	108000a0 	cmpeqi	r2,r2,2
  c040e4:	1000021e 	bne	r2,zero,c040f0 <mount_volume+0x228>
  c040e8:	00800344 	movi	r2,13
  c040ec:	00012106 	br	c04574 <mount_volume+0x6ac>
  c040f0:	e0bff717 	ldw	r2,-36(fp)
  c040f4:	108000c3 	ldbu	r2,3(r2)
  c040f8:	10803fcc 	andi	r2,r2,255
  c040fc:	100b883a 	mov	r5,r2
  c04100:	e13ff317 	ldw	r4,-52(fp)
  c04104:	0c0e2fc0 	call	c0e2fc <__mulsi3>
  c04108:	e0bff315 	stw	r2,-52(fp)
  c0410c:	e0bff717 	ldw	r2,-36(fp)
  c04110:	10801043 	ldbu	r2,65(r2)
  c04114:	10c03fcc 	andi	r3,r2,255
  c04118:	e0bff717 	ldw	r2,-36(fp)
  c0411c:	10c0028d 	sth	r3,10(r2)
  c04120:	e0bff717 	ldw	r2,-36(fp)
  c04124:	1080028b 	ldhu	r2,10(r2)
  c04128:	10bfffcc 	andi	r2,r2,65535
  c0412c:	10000926 	beq	r2,zero,c04154 <mount_volume+0x28c>
  c04130:	e0bff717 	ldw	r2,-36(fp)
  c04134:	1080028b 	ldhu	r2,10(r2)
  c04138:	10ffffcc 	andi	r3,r2,65535
  c0413c:	e0bff717 	ldw	r2,-36(fp)
  c04140:	1080028b 	ldhu	r2,10(r2)
  c04144:	10bfffcc 	andi	r2,r2,65535
  c04148:	10bfffc4 	addi	r2,r2,-1
  c0414c:	1884703a 	and	r2,r3,r2
  c04150:	10000226 	beq	r2,zero,c0415c <mount_volume+0x294>
  c04154:	00800344 	movi	r2,13
  c04158:	00010606 	br	c04574 <mount_volume+0x6ac>
  c0415c:	e0bff717 	ldw	r2,-36(fp)
  c04160:	10800d04 	addi	r2,r2,52
  c04164:	10800444 	addi	r2,r2,17
  c04168:	1009883a 	mov	r4,r2
  c0416c:	0c003e40 	call	c003e4 <ld_word>
  c04170:	1007883a 	mov	r3,r2
  c04174:	e0bff717 	ldw	r2,-36(fp)
  c04178:	10c0020d 	sth	r3,8(r2)
  c0417c:	e0bff717 	ldw	r2,-36(fp)
  c04180:	1080020b 	ldhu	r2,8(r2)
  c04184:	108003cc 	andi	r2,r2,15
  c04188:	10bfffcc 	andi	r2,r2,65535
  c0418c:	10000226 	beq	r2,zero,c04198 <mount_volume+0x2d0>
  c04190:	00800344 	movi	r2,13
  c04194:	0000f706 	br	c04574 <mount_volume+0x6ac>
  c04198:	e0bff717 	ldw	r2,-36(fp)
  c0419c:	10800d04 	addi	r2,r2,52
  c041a0:	108004c4 	addi	r2,r2,19
  c041a4:	1009883a 	mov	r4,r2
  c041a8:	0c003e40 	call	c003e4 <ld_word>
  c041ac:	10bfffcc 	andi	r2,r2,65535
  c041b0:	e0bff215 	stw	r2,-56(fp)
  c041b4:	e0bff217 	ldw	r2,-56(fp)
  c041b8:	1000061e 	bne	r2,zero,c041d4 <mount_volume+0x30c>
  c041bc:	e0bff717 	ldw	r2,-36(fp)
  c041c0:	10800d04 	addi	r2,r2,52
  c041c4:	10800804 	addi	r2,r2,32
  c041c8:	1009883a 	mov	r4,r2
  c041cc:	0c0043c0 	call	c0043c <ld_dword>
  c041d0:	e0bff215 	stw	r2,-56(fp)
  c041d4:	e0bff717 	ldw	r2,-36(fp)
  c041d8:	10800d04 	addi	r2,r2,52
  c041dc:	10800384 	addi	r2,r2,14
  c041e0:	1009883a 	mov	r4,r2
  c041e4:	0c003e40 	call	c003e4 <ld_word>
  c041e8:	e0bffa0d 	sth	r2,-24(fp)
  c041ec:	e0bffa0b 	ldhu	r2,-24(fp)
  c041f0:	1000021e 	bne	r2,zero,c041fc <mount_volume+0x334>
  c041f4:	00800344 	movi	r2,13
  c041f8:	0000de06 	br	c04574 <mount_volume+0x6ac>
  c041fc:	e0fffa0b 	ldhu	r3,-24(fp)
  c04200:	e0bff317 	ldw	r2,-52(fp)
  c04204:	1887883a 	add	r3,r3,r2
  c04208:	e0bff717 	ldw	r2,-36(fp)
  c0420c:	1080020b 	ldhu	r2,8(r2)
  c04210:	10bfffcc 	andi	r2,r2,65535
  c04214:	1004d13a 	srli	r2,r2,4
  c04218:	10bfffcc 	andi	r2,r2,65535
  c0421c:	1885883a 	add	r2,r3,r2
  c04220:	e0bffb15 	stw	r2,-20(fp)
  c04224:	e0fff217 	ldw	r3,-56(fp)
  c04228:	e0bffb17 	ldw	r2,-20(fp)
  c0422c:	1880022e 	bgeu	r3,r2,c04238 <mount_volume+0x370>
  c04230:	00800344 	movi	r2,13
  c04234:	0000cf06 	br	c04574 <mount_volume+0x6ac>
  c04238:	e0fff217 	ldw	r3,-56(fp)
  c0423c:	e0bffb17 	ldw	r2,-20(fp)
  c04240:	1887c83a 	sub	r3,r3,r2
  c04244:	e0bff717 	ldw	r2,-36(fp)
  c04248:	1080028b 	ldhu	r2,10(r2)
  c0424c:	10bfffcc 	andi	r2,r2,65535
  c04250:	100b883a 	mov	r5,r2
  c04254:	1809883a 	mov	r4,r3
  c04258:	0c0e2400 	call	c0e240 <__udivsi3>
  c0425c:	e0bffc15 	stw	r2,-16(fp)
  c04260:	e0bffc17 	ldw	r2,-16(fp)
  c04264:	1000021e 	bne	r2,zero,c04270 <mount_volume+0x3a8>
  c04268:	00800344 	movi	r2,13
  c0426c:	0000c106 	br	c04574 <mount_volume+0x6ac>
  c04270:	e03ff515 	stw	zero,-44(fp)
  c04274:	e0fffc17 	ldw	r3,-16(fp)
  c04278:	00840034 	movhi	r2,4096
  c0427c:	10bffd44 	addi	r2,r2,-11
  c04280:	10c00236 	bltu	r2,r3,c0428c <mount_volume+0x3c4>
  c04284:	008000c4 	movi	r2,3
  c04288:	e0bff515 	stw	r2,-44(fp)
  c0428c:	e0bffc17 	ldw	r2,-16(fp)
  c04290:	10bffda8 	cmpgeui	r2,r2,65526
  c04294:	1000021e 	bne	r2,zero,c042a0 <mount_volume+0x3d8>
  c04298:	00800084 	movi	r2,2
  c0429c:	e0bff515 	stw	r2,-44(fp)
  c042a0:	e0bffc17 	ldw	r2,-16(fp)
  c042a4:	1083fda8 	cmpgeui	r2,r2,4086
  c042a8:	1000021e 	bne	r2,zero,c042b4 <mount_volume+0x3ec>
  c042ac:	00800044 	movi	r2,1
  c042b0:	e0bff515 	stw	r2,-44(fp)
  c042b4:	e0bff517 	ldw	r2,-44(fp)
  c042b8:	1000021e 	bne	r2,zero,c042c4 <mount_volume+0x3fc>
  c042bc:	00800344 	movi	r2,13
  c042c0:	0000ac06 	br	c04574 <mount_volume+0x6ac>
  c042c4:	e0bffc17 	ldw	r2,-16(fp)
  c042c8:	10c00084 	addi	r3,r2,2
  c042cc:	e0bff717 	ldw	r2,-36(fp)
  c042d0:	10c00615 	stw	r3,24(r2)
  c042d4:	e0bff717 	ldw	r2,-36(fp)
  c042d8:	e0fff917 	ldw	r3,-28(fp)
  c042dc:	10c00815 	stw	r3,32(r2)
  c042e0:	e0fffa0b 	ldhu	r3,-24(fp)
  c042e4:	e0bff917 	ldw	r2,-28(fp)
  c042e8:	1887883a 	add	r3,r3,r2
  c042ec:	e0bff717 	ldw	r2,-36(fp)
  c042f0:	10c00915 	stw	r3,36(r2)
  c042f4:	e0fff917 	ldw	r3,-28(fp)
  c042f8:	e0bffb17 	ldw	r2,-20(fp)
  c042fc:	1887883a 	add	r3,r3,r2
  c04300:	e0bff717 	ldw	r2,-36(fp)
  c04304:	10c00b15 	stw	r3,44(r2)
  c04308:	e0bff517 	ldw	r2,-44(fp)
  c0430c:	108000d8 	cmpnei	r2,r2,3
  c04310:	10001d1e 	bne	r2,zero,c04388 <mount_volume+0x4c0>
  c04314:	e0bff717 	ldw	r2,-36(fp)
  c04318:	10800d04 	addi	r2,r2,52
  c0431c:	10800a84 	addi	r2,r2,42
  c04320:	1009883a 	mov	r4,r2
  c04324:	0c003e40 	call	c003e4 <ld_word>
  c04328:	10bfffcc 	andi	r2,r2,65535
  c0432c:	10000226 	beq	r2,zero,c04338 <mount_volume+0x470>
  c04330:	00800344 	movi	r2,13
  c04334:	00008f06 	br	c04574 <mount_volume+0x6ac>
  c04338:	e0bff717 	ldw	r2,-36(fp)
  c0433c:	1080020b 	ldhu	r2,8(r2)
  c04340:	10bfffcc 	andi	r2,r2,65535
  c04344:	10000226 	beq	r2,zero,c04350 <mount_volume+0x488>
  c04348:	00800344 	movi	r2,13
  c0434c:	00008906 	br	c04574 <mount_volume+0x6ac>
  c04350:	e0bff717 	ldw	r2,-36(fp)
  c04354:	10800d04 	addi	r2,r2,52
  c04358:	10800b04 	addi	r2,r2,44
  c0435c:	1009883a 	mov	r4,r2
  c04360:	0c0043c0 	call	c0043c <ld_dword>
  c04364:	1007883a 	mov	r3,r2
  c04368:	e0bff717 	ldw	r2,-36(fp)
  c0436c:	10c00a15 	stw	r3,40(r2)
  c04370:	e0bff717 	ldw	r2,-36(fp)
  c04374:	10800617 	ldw	r2,24(r2)
  c04378:	1085883a 	add	r2,r2,r2
  c0437c:	1085883a 	add	r2,r2,r2
  c04380:	e0bff415 	stw	r2,-48(fp)
  c04384:	00001e06 	br	c04400 <mount_volume+0x538>
  c04388:	e0bff717 	ldw	r2,-36(fp)
  c0438c:	1080020b 	ldhu	r2,8(r2)
  c04390:	10bfffcc 	andi	r2,r2,65535
  c04394:	1000021e 	bne	r2,zero,c043a0 <mount_volume+0x4d8>
  c04398:	00800344 	movi	r2,13
  c0439c:	00007506 	br	c04574 <mount_volume+0x6ac>
  c043a0:	e0bff717 	ldw	r2,-36(fp)
  c043a4:	10c00917 	ldw	r3,36(r2)
  c043a8:	e0bff317 	ldw	r2,-52(fp)
  c043ac:	1887883a 	add	r3,r3,r2
  c043b0:	e0bff717 	ldw	r2,-36(fp)
  c043b4:	10c00a15 	stw	r3,40(r2)
  c043b8:	e0bff517 	ldw	r2,-44(fp)
  c043bc:	10800098 	cmpnei	r2,r2,2
  c043c0:	1000041e 	bne	r2,zero,c043d4 <mount_volume+0x50c>
  c043c4:	e0bff717 	ldw	r2,-36(fp)
  c043c8:	10800617 	ldw	r2,24(r2)
  c043cc:	1085883a 	add	r2,r2,r2
  c043d0:	00000a06 	br	c043fc <mount_volume+0x534>
  c043d4:	e0bff717 	ldw	r2,-36(fp)
  c043d8:	10c00617 	ldw	r3,24(r2)
  c043dc:	1805883a 	mov	r2,r3
  c043e0:	1085883a 	add	r2,r2,r2
  c043e4:	10c5883a 	add	r2,r2,r3
  c043e8:	1006d07a 	srli	r3,r2,1
  c043ec:	e0bff717 	ldw	r2,-36(fp)
  c043f0:	10800617 	ldw	r2,24(r2)
  c043f4:	1080004c 	andi	r2,r2,1
  c043f8:	1885883a 	add	r2,r3,r2
  c043fc:	e0bff415 	stw	r2,-48(fp)
  c04400:	e0bff717 	ldw	r2,-36(fp)
  c04404:	10c00717 	ldw	r3,28(r2)
  c04408:	e0bff417 	ldw	r2,-48(fp)
  c0440c:	10807fc4 	addi	r2,r2,511
  c04410:	1004d27a 	srli	r2,r2,9
  c04414:	1880022e 	bgeu	r3,r2,c04420 <mount_volume+0x558>
  c04418:	00800344 	movi	r2,13
  c0441c:	00005506 	br	c04574 <mount_volume+0x6ac>
  c04420:	e0bff717 	ldw	r2,-36(fp)
  c04424:	00ffffc4 	movi	r3,-1
  c04428:	10c00515 	stw	r3,20(r2)
  c0442c:	e0bff717 	ldw	r2,-36(fp)
  c04430:	10c00517 	ldw	r3,20(r2)
  c04434:	e0bff717 	ldw	r2,-36(fp)
  c04438:	10c00415 	stw	r3,16(r2)
  c0443c:	e0bff717 	ldw	r2,-36(fp)
  c04440:	00ffe004 	movi	r3,-128
  c04444:	10c00145 	stb	r3,5(r2)
  c04448:	e0bff517 	ldw	r2,-44(fp)
  c0444c:	108000d8 	cmpnei	r2,r2,3
  c04450:	1000391e 	bne	r2,zero,c04538 <mount_volume+0x670>
  c04454:	e0bff717 	ldw	r2,-36(fp)
  c04458:	10800d04 	addi	r2,r2,52
  c0445c:	10800c04 	addi	r2,r2,48
  c04460:	1009883a 	mov	r4,r2
  c04464:	0c003e40 	call	c003e4 <ld_word>
  c04468:	10bfffcc 	andi	r2,r2,65535
  c0446c:	10800058 	cmpnei	r2,r2,1
  c04470:	1000311e 	bne	r2,zero,c04538 <mount_volume+0x670>
  c04474:	e0bff917 	ldw	r2,-28(fp)
  c04478:	10800044 	addi	r2,r2,1
  c0447c:	100b883a 	mov	r5,r2
  c04480:	e13ff717 	ldw	r4,-36(fp)
  c04484:	0c009800 	call	c00980 <move_window>
  c04488:	10002b1e 	bne	r2,zero,c04538 <mount_volume+0x670>
  c0448c:	e0bff717 	ldw	r2,-36(fp)
  c04490:	10000145 	stb	zero,5(r2)
  c04494:	e0bff717 	ldw	r2,-36(fp)
  c04498:	10800d04 	addi	r2,r2,52
  c0449c:	10807f84 	addi	r2,r2,510
  c044a0:	1009883a 	mov	r4,r2
  c044a4:	0c003e40 	call	c003e4 <ld_word>
  c044a8:	10ffffcc 	andi	r3,r2,65535
  c044ac:	00aa9554 	movui	r2,43605
  c044b0:	1880211e 	bne	r3,r2,c04538 <mount_volume+0x670>
  c044b4:	e0bff717 	ldw	r2,-36(fp)
  c044b8:	10800d04 	addi	r2,r2,52
  c044bc:	1009883a 	mov	r4,r2
  c044c0:	0c0043c0 	call	c0043c <ld_dword>
  c044c4:	1007883a 	mov	r3,r2
  c044c8:	00905874 	movhi	r2,16737
  c044cc:	10949484 	addi	r2,r2,21074
  c044d0:	1880191e 	bne	r3,r2,c04538 <mount_volume+0x670>
  c044d4:	e0bff717 	ldw	r2,-36(fp)
  c044d8:	10800d04 	addi	r2,r2,52
  c044dc:	10807904 	addi	r2,r2,484
  c044e0:	1009883a 	mov	r4,r2
  c044e4:	0c0043c0 	call	c0043c <ld_dword>
  c044e8:	1007883a 	mov	r3,r2
  c044ec:	00985074 	movhi	r2,24897
  c044f0:	109c9c84 	addi	r2,r2,29298
  c044f4:	1880101e 	bne	r3,r2,c04538 <mount_volume+0x670>
  c044f8:	e0bff717 	ldw	r2,-36(fp)
  c044fc:	10800d04 	addi	r2,r2,52
  c04500:	10807a04 	addi	r2,r2,488
  c04504:	1009883a 	mov	r4,r2
  c04508:	0c0043c0 	call	c0043c <ld_dword>
  c0450c:	1007883a 	mov	r3,r2
  c04510:	e0bff717 	ldw	r2,-36(fp)
  c04514:	10c00515 	stw	r3,20(r2)
  c04518:	e0bff717 	ldw	r2,-36(fp)
  c0451c:	10800d04 	addi	r2,r2,52
  c04520:	10807b04 	addi	r2,r2,492
  c04524:	1009883a 	mov	r4,r2
  c04528:	0c0043c0 	call	c0043c <ld_dword>
  c0452c:	1007883a 	mov	r3,r2
  c04530:	e0bff717 	ldw	r2,-36(fp)
  c04534:	10c00415 	stw	r3,16(r2)
  c04538:	e0bff517 	ldw	r2,-44(fp)
  c0453c:	1007883a 	mov	r3,r2
  c04540:	e0bff717 	ldw	r2,-36(fp)
  c04544:	10c00005 	stb	r3,0(r2)
  c04548:	d0a01a0b 	ldhu	r2,-32664(gp)
  c0454c:	10800044 	addi	r2,r2,1
  c04550:	d0a01a0d 	sth	r2,-32664(gp)
  c04554:	d0e01a0b 	ldhu	r3,-32664(gp)
  c04558:	e0bff717 	ldw	r2,-36(fp)
  c0455c:	10c0018d 	sth	r3,6(r2)
  c04560:	e0fff717 	ldw	r3,-36(fp)
  c04564:	00804174 	movhi	r2,261
  c04568:	1086f904 	addi	r2,r2,7140
  c0456c:	18800315 	stw	r2,12(r3)
  c04570:	0005883a 	mov	r2,zero
  c04574:	e037883a 	mov	sp,fp
  c04578:	dfc00117 	ldw	ra,4(sp)
  c0457c:	df000017 	ldw	fp,0(sp)
  c04580:	dec00204 	addi	sp,sp,8
  c04584:	f800283a 	ret

00c04588 <validate>:
  c04588:	defffb04 	addi	sp,sp,-20
  c0458c:	dfc00415 	stw	ra,16(sp)
  c04590:	df000315 	stw	fp,12(sp)
  c04594:	df000304 	addi	fp,sp,12
  c04598:	e13ffe15 	stw	r4,-8(fp)
  c0459c:	e17fff15 	stw	r5,-4(fp)
  c045a0:	00800244 	movi	r2,9
  c045a4:	e0bffd15 	stw	r2,-12(fp)
  c045a8:	e0bffe17 	ldw	r2,-8(fp)
  c045ac:	10001a26 	beq	r2,zero,c04618 <validate+0x90>
  c045b0:	e0bffe17 	ldw	r2,-8(fp)
  c045b4:	10800017 	ldw	r2,0(r2)
  c045b8:	10001726 	beq	r2,zero,c04618 <validate+0x90>
  c045bc:	e0bffe17 	ldw	r2,-8(fp)
  c045c0:	10800017 	ldw	r2,0(r2)
  c045c4:	10800003 	ldbu	r2,0(r2)
  c045c8:	10803fcc 	andi	r2,r2,255
  c045cc:	10001226 	beq	r2,zero,c04618 <validate+0x90>
  c045d0:	e0bffe17 	ldw	r2,-8(fp)
  c045d4:	10c0010b 	ldhu	r3,4(r2)
  c045d8:	e0bffe17 	ldw	r2,-8(fp)
  c045dc:	10800017 	ldw	r2,0(r2)
  c045e0:	1080018b 	ldhu	r2,6(r2)
  c045e4:	18ffffcc 	andi	r3,r3,65535
  c045e8:	10bfffcc 	andi	r2,r2,65535
  c045ec:	18800a1e 	bne	r3,r2,c04618 <validate+0x90>
  c045f0:	e0bffe17 	ldw	r2,-8(fp)
  c045f4:	10800017 	ldw	r2,0(r2)
  c045f8:	10800043 	ldbu	r2,1(r2)
  c045fc:	10803fcc 	andi	r2,r2,255
  c04600:	1009883a 	mov	r4,r2
  c04604:	0c0026c0 	call	c0026c <disk_status>
  c04608:	10803fcc 	andi	r2,r2,255
  c0460c:	1080004c 	andi	r2,r2,1
  c04610:	1000011e 	bne	r2,zero,c04618 <validate+0x90>
  c04614:	e03ffd15 	stw	zero,-12(fp)
  c04618:	e0bffd17 	ldw	r2,-12(fp)
  c0461c:	1000031e 	bne	r2,zero,c0462c <validate+0xa4>
  c04620:	e0bffe17 	ldw	r2,-8(fp)
  c04624:	10800017 	ldw	r2,0(r2)
  c04628:	00000106 	br	c04630 <validate+0xa8>
  c0462c:	0005883a 	mov	r2,zero
  c04630:	e0ffff17 	ldw	r3,-4(fp)
  c04634:	18800015 	stw	r2,0(r3)
  c04638:	e0bffd17 	ldw	r2,-12(fp)
  c0463c:	e037883a 	mov	sp,fp
  c04640:	dfc00117 	ldw	ra,4(sp)
  c04644:	df000017 	ldw	fp,0(sp)
  c04648:	dec00204 	addi	sp,sp,8
  c0464c:	f800283a 	ret

00c04650 <f_mount>:
  c04650:	defff704 	addi	sp,sp,-36
  c04654:	dfc00815 	stw	ra,32(sp)
  c04658:	df000715 	stw	fp,28(sp)
  c0465c:	df000704 	addi	fp,sp,28
  c04660:	e13ffd15 	stw	r4,-12(fp)
  c04664:	e17ffe15 	stw	r5,-8(fp)
  c04668:	3005883a 	mov	r2,r6
  c0466c:	e0bfff05 	stb	r2,-4(fp)
  c04670:	e0bffe17 	ldw	r2,-8(fp)
  c04674:	e0bffc15 	stw	r2,-16(fp)
  c04678:	e0bffc04 	addi	r2,fp,-16
  c0467c:	1009883a 	mov	r4,r2
  c04680:	0c03a340 	call	c03a34 <get_ldnumber>
  c04684:	e0bff915 	stw	r2,-28(fp)
  c04688:	e0bff917 	ldw	r2,-28(fp)
  c0468c:	1000020e 	bge	r2,zero,c04698 <f_mount+0x48>
  c04690:	008002c4 	movi	r2,11
  c04694:	00002b06 	br	c04744 <f_mount+0xf4>
  c04698:	e0bff917 	ldw	r2,-28(fp)
  c0469c:	1085883a 	add	r2,r2,r2
  c046a0:	1087883a 	add	r3,r2,r2
  c046a4:	d0a01904 	addi	r2,gp,-32668
  c046a8:	1885883a 	add	r2,r3,r2
  c046ac:	10800017 	ldw	r2,0(r2)
  c046b0:	e0bffa15 	stw	r2,-24(fp)
  c046b4:	e0bffa17 	ldw	r2,-24(fp)
  c046b8:	10000826 	beq	r2,zero,c046dc <f_mount+0x8c>
  c046bc:	e0bff917 	ldw	r2,-28(fp)
  c046c0:	1085883a 	add	r2,r2,r2
  c046c4:	1087883a 	add	r3,r2,r2
  c046c8:	d0a01904 	addi	r2,gp,-32668
  c046cc:	1885883a 	add	r2,r3,r2
  c046d0:	10000015 	stw	zero,0(r2)
  c046d4:	e0bffa17 	ldw	r2,-24(fp)
  c046d8:	10000005 	stb	zero,0(r2)
  c046dc:	e0bffd17 	ldw	r2,-12(fp)
  c046e0:	10000c26 	beq	r2,zero,c04714 <f_mount+0xc4>
  c046e4:	e0bffd17 	ldw	r2,-12(fp)
  c046e8:	e0fff917 	ldw	r3,-28(fp)
  c046ec:	10c00045 	stb	r3,1(r2)
  c046f0:	e0bffd17 	ldw	r2,-12(fp)
  c046f4:	10000005 	stb	zero,0(r2)
  c046f8:	e0fffd17 	ldw	r3,-12(fp)
  c046fc:	e0bff917 	ldw	r2,-28(fp)
  c04700:	1085883a 	add	r2,r2,r2
  c04704:	1089883a 	add	r4,r2,r2
  c04708:	d0a01904 	addi	r2,gp,-32668
  c0470c:	2085883a 	add	r2,r4,r2
  c04710:	10c00015 	stw	r3,0(r2)
  c04714:	e0bfff03 	ldbu	r2,-4(fp)
  c04718:	1000021e 	bne	r2,zero,c04724 <f_mount+0xd4>
  c0471c:	0005883a 	mov	r2,zero
  c04720:	00000806 	br	c04744 <f_mount+0xf4>
  c04724:	e0fffd04 	addi	r3,fp,-12
  c04728:	e0bffe04 	addi	r2,fp,-8
  c0472c:	000d883a 	mov	r6,zero
  c04730:	180b883a 	mov	r5,r3
  c04734:	1009883a 	mov	r4,r2
  c04738:	0c03ec80 	call	c03ec8 <mount_volume>
  c0473c:	e0bffb15 	stw	r2,-20(fp)
  c04740:	e0bffb17 	ldw	r2,-20(fp)
  c04744:	e037883a 	mov	sp,fp
  c04748:	dfc00117 	ldw	ra,4(sp)
  c0474c:	df000017 	ldw	fp,0(sp)
  c04750:	dec00204 	addi	sp,sp,8
  c04754:	f800283a 	ret

00c04758 <f_open>:
  c04758:	deffe604 	addi	sp,sp,-104
  c0475c:	dfc01915 	stw	ra,100(sp)
  c04760:	df001815 	stw	fp,96(sp)
  c04764:	df001804 	addi	fp,sp,96
  c04768:	e13ffd15 	stw	r4,-12(fp)
  c0476c:	e17ffe15 	stw	r5,-8(fp)
  c04770:	3005883a 	mov	r2,r6
  c04774:	e0bfff05 	stb	r2,-4(fp)
  c04778:	e0bffd17 	ldw	r2,-12(fp)
  c0477c:	1000021e 	bne	r2,zero,c04788 <f_open+0x30>
  c04780:	00800244 	movi	r2,9
  c04784:	00011c06 	br	c04bf8 <f_open+0x4a0>
  c04788:	e0bfff03 	ldbu	r2,-4(fp)
  c0478c:	10800fcc 	andi	r2,r2,63
  c04790:	e0bfff05 	stb	r2,-4(fp)
  c04794:	e13fff03 	ldbu	r4,-4(fp)
  c04798:	e0fffc04 	addi	r3,fp,-16
  c0479c:	e0bffe04 	addi	r2,fp,-8
  c047a0:	200d883a 	mov	r6,r4
  c047a4:	180b883a 	mov	r5,r3
  c047a8:	1009883a 	mov	r4,r2
  c047ac:	0c03ec80 	call	c03ec8 <mount_volume>
  c047b0:	e0bfe815 	stw	r2,-96(fp)
  c047b4:	e0bfe817 	ldw	r2,-96(fp)
  c047b8:	10010a1e 	bne	r2,zero,c04be4 <f_open+0x48c>
  c047bc:	e0bffc17 	ldw	r2,-16(fp)
  c047c0:	e0bfef15 	stw	r2,-68(fp)
  c047c4:	e0fffe17 	ldw	r3,-8(fp)
  c047c8:	e0bfef04 	addi	r2,fp,-68
  c047cc:	180b883a 	mov	r5,r3
  c047d0:	1009883a 	mov	r4,r2
  c047d4:	0c038a00 	call	c038a0 <follow_path>
  c047d8:	e0bfe815 	stw	r2,-96(fp)
  c047dc:	e0bfe817 	ldw	r2,-96(fp)
  c047e0:	1000071e 	bne	r2,zero,c04800 <f_open+0xa8>
  c047e4:	e0bff9c3 	ldbu	r2,-25(fp)
  c047e8:	10803fcc 	andi	r2,r2,255
  c047ec:	1080201c 	xori	r2,r2,128
  c047f0:	10bfe004 	addi	r2,r2,-128
  c047f4:	1000020e 	bge	r2,zero,c04800 <f_open+0xa8>
  c047f8:	00800184 	movi	r2,6
  c047fc:	e0bfe815 	stw	r2,-96(fp)
  c04800:	e0bfff03 	ldbu	r2,-4(fp)
  c04804:	1080070c 	andi	r2,r2,28
  c04808:	10005926 	beq	r2,zero,c04970 <f_open+0x218>
  c0480c:	e0bfe817 	ldw	r2,-96(fp)
  c04810:	10000b26 	beq	r2,zero,c04840 <f_open+0xe8>
  c04814:	e0bfe817 	ldw	r2,-96(fp)
  c04818:	10800118 	cmpnei	r2,r2,4
  c0481c:	1000041e 	bne	r2,zero,c04830 <f_open+0xd8>
  c04820:	e0bfef04 	addi	r2,fp,-68
  c04824:	1009883a 	mov	r4,r2
  c04828:	0c028280 	call	c02828 <dir_register>
  c0482c:	e0bfe815 	stw	r2,-96(fp)
  c04830:	e0bfff03 	ldbu	r2,-4(fp)
  c04834:	10800214 	ori	r2,r2,8
  c04838:	e0bfff05 	stb	r2,-4(fp)
  c0483c:	00000c06 	br	c04870 <f_open+0x118>
  c04840:	e0bff083 	ldbu	r2,-62(fp)
  c04844:	10803fcc 	andi	r2,r2,255
  c04848:	1080044c 	andi	r2,r2,17
  c0484c:	10000326 	beq	r2,zero,c0485c <f_open+0x104>
  c04850:	008001c4 	movi	r2,7
  c04854:	e0bfe815 	stw	r2,-96(fp)
  c04858:	00000506 	br	c04870 <f_open+0x118>
  c0485c:	e0bfff03 	ldbu	r2,-4(fp)
  c04860:	1080010c 	andi	r2,r2,4
  c04864:	10000226 	beq	r2,zero,c04870 <f_open+0x118>
  c04868:	00800204 	movi	r2,8
  c0486c:	e0bfe815 	stw	r2,-96(fp)
  c04870:	e0bfe817 	ldw	r2,-96(fp)
  c04874:	1000501e 	bne	r2,zero,c049b8 <f_open+0x260>
  c04878:	e0bfff03 	ldbu	r2,-4(fp)
  c0487c:	1080020c 	andi	r2,r2,8
  c04880:	10004d26 	beq	r2,zero,c049b8 <f_open+0x260>
  c04884:	0095d774 	movhi	r2,22365
  c04888:	e0bfeb15 	stw	r2,-84(fp)
  c0488c:	e0bff617 	ldw	r2,-40(fp)
  c04890:	10800384 	addi	r2,r2,14
  c04894:	e17feb17 	ldw	r5,-84(fp)
  c04898:	1009883a 	mov	r4,r2
  c0489c:	0c005300 	call	c00530 <st_dword>
  c048a0:	e0bff617 	ldw	r2,-40(fp)
  c048a4:	10800584 	addi	r2,r2,22
  c048a8:	e17feb17 	ldw	r5,-84(fp)
  c048ac:	1009883a 	mov	r4,r2
  c048b0:	0c005300 	call	c00530 <st_dword>
  c048b4:	e0bffc17 	ldw	r2,-16(fp)
  c048b8:	e0fff617 	ldw	r3,-40(fp)
  c048bc:	180b883a 	mov	r5,r3
  c048c0:	1009883a 	mov	r4,r2
  c048c4:	0c01b5c0 	call	c01b5c <ld_clust>
  c048c8:	e0bfec15 	stw	r2,-80(fp)
  c048cc:	e0bff617 	ldw	r2,-40(fp)
  c048d0:	108002c4 	addi	r2,r2,11
  c048d4:	00c00804 	movi	r3,32
  c048d8:	10c00005 	stb	r3,0(r2)
  c048dc:	e0bffc17 	ldw	r2,-16(fp)
  c048e0:	e0fff617 	ldw	r3,-40(fp)
  c048e4:	000d883a 	mov	r6,zero
  c048e8:	180b883a 	mov	r5,r3
  c048ec:	1009883a 	mov	r4,r2
  c048f0:	0c01bdc0 	call	c01bdc <st_clust>
  c048f4:	e0bff617 	ldw	r2,-40(fp)
  c048f8:	10800704 	addi	r2,r2,28
  c048fc:	000b883a 	mov	r5,zero
  c04900:	1009883a 	mov	r4,r2
  c04904:	0c005300 	call	c00530 <st_dword>
  c04908:	e0bffc17 	ldw	r2,-16(fp)
  c0490c:	00c00044 	movi	r3,1
  c04910:	10c00105 	stb	r3,4(r2)
  c04914:	e0bfec17 	ldw	r2,-80(fp)
  c04918:	10002726 	beq	r2,zero,c049b8 <f_open+0x260>
  c0491c:	e0bffc17 	ldw	r2,-16(fp)
  c04920:	10800c17 	ldw	r2,48(r2)
  c04924:	e0bfed15 	stw	r2,-76(fp)
  c04928:	e0bfef04 	addi	r2,fp,-68
  c0492c:	000d883a 	mov	r6,zero
  c04930:	e17fec17 	ldw	r5,-80(fp)
  c04934:	1009883a 	mov	r4,r2
  c04938:	0c011740 	call	c01174 <remove_chain>
  c0493c:	e0bfe815 	stw	r2,-96(fp)
  c04940:	e0bfe817 	ldw	r2,-96(fp)
  c04944:	10001c1e 	bne	r2,zero,c049b8 <f_open+0x260>
  c04948:	e0bffc17 	ldw	r2,-16(fp)
  c0494c:	e17fed17 	ldw	r5,-76(fp)
  c04950:	1009883a 	mov	r4,r2
  c04954:	0c009800 	call	c00980 <move_window>
  c04958:	e0bfe815 	stw	r2,-96(fp)
  c0495c:	e0bffc17 	ldw	r2,-16(fp)
  c04960:	e0ffec17 	ldw	r3,-80(fp)
  c04964:	18ffffc4 	addi	r3,r3,-1
  c04968:	10c00415 	stw	r3,16(r2)
  c0496c:	00001206 	br	c049b8 <f_open+0x260>
  c04970:	e0bfe817 	ldw	r2,-96(fp)
  c04974:	1000101e 	bne	r2,zero,c049b8 <f_open+0x260>
  c04978:	e0bff083 	ldbu	r2,-62(fp)
  c0497c:	10803fcc 	andi	r2,r2,255
  c04980:	1080040c 	andi	r2,r2,16
  c04984:	10000326 	beq	r2,zero,c04994 <f_open+0x23c>
  c04988:	00800104 	movi	r2,4
  c0498c:	e0bfe815 	stw	r2,-96(fp)
  c04990:	00000906 	br	c049b8 <f_open+0x260>
  c04994:	e0bfff03 	ldbu	r2,-4(fp)
  c04998:	1080008c 	andi	r2,r2,2
  c0499c:	10000626 	beq	r2,zero,c049b8 <f_open+0x260>
  c049a0:	e0bff083 	ldbu	r2,-62(fp)
  c049a4:	10803fcc 	andi	r2,r2,255
  c049a8:	1080004c 	andi	r2,r2,1
  c049ac:	10000226 	beq	r2,zero,c049b8 <f_open+0x260>
  c049b0:	008001c4 	movi	r2,7
  c049b4:	e0bfe815 	stw	r2,-96(fp)
  c049b8:	e0bfe817 	ldw	r2,-96(fp)
  c049bc:	10000d1e 	bne	r2,zero,c049f4 <f_open+0x29c>
  c049c0:	e0bfff03 	ldbu	r2,-4(fp)
  c049c4:	1080020c 	andi	r2,r2,8
  c049c8:	10000326 	beq	r2,zero,c049d8 <f_open+0x280>
  c049cc:	e0bfff03 	ldbu	r2,-4(fp)
  c049d0:	10801014 	ori	r2,r2,64
  c049d4:	e0bfff05 	stb	r2,-4(fp)
  c049d8:	e0bffc17 	ldw	r2,-16(fp)
  c049dc:	10c00c17 	ldw	r3,48(r2)
  c049e0:	e0bffd17 	ldw	r2,-12(fp)
  c049e4:	10c00815 	stw	r3,32(r2)
  c049e8:	e0fff617 	ldw	r3,-40(fp)
  c049ec:	e0bffd17 	ldw	r2,-12(fp)
  c049f0:	10c00915 	stw	r3,36(r2)
  c049f4:	e0bfe817 	ldw	r2,-96(fp)
  c049f8:	10007a1e 	bne	r2,zero,c04be4 <f_open+0x48c>
  c049fc:	e0bffc17 	ldw	r2,-16(fp)
  c04a00:	e0fff617 	ldw	r3,-40(fp)
  c04a04:	180b883a 	mov	r5,r3
  c04a08:	1009883a 	mov	r4,r2
  c04a0c:	0c01b5c0 	call	c01b5c <ld_clust>
  c04a10:	1007883a 	mov	r3,r2
  c04a14:	e0bffd17 	ldw	r2,-12(fp)
  c04a18:	10c00215 	stw	r3,8(r2)
  c04a1c:	e0bff617 	ldw	r2,-40(fp)
  c04a20:	10800704 	addi	r2,r2,28
  c04a24:	1009883a 	mov	r4,r2
  c04a28:	0c0043c0 	call	c0043c <ld_dword>
  c04a2c:	1007883a 	mov	r3,r2
  c04a30:	e0bffd17 	ldw	r2,-12(fp)
  c04a34:	10c00315 	stw	r3,12(r2)
  c04a38:	e0fffc17 	ldw	r3,-16(fp)
  c04a3c:	e0bffd17 	ldw	r2,-12(fp)
  c04a40:	10c00015 	stw	r3,0(r2)
  c04a44:	e0bffc17 	ldw	r2,-16(fp)
  c04a48:	10c0018b 	ldhu	r3,6(r2)
  c04a4c:	e0bffd17 	ldw	r2,-12(fp)
  c04a50:	10c0010d 	sth	r3,4(r2)
  c04a54:	e0bffd17 	ldw	r2,-12(fp)
  c04a58:	e0ffff03 	ldbu	r3,-4(fp)
  c04a5c:	10c00405 	stb	r3,16(r2)
  c04a60:	e0bffd17 	ldw	r2,-12(fp)
  c04a64:	10000445 	stb	zero,17(r2)
  c04a68:	e0bffd17 	ldw	r2,-12(fp)
  c04a6c:	10000715 	stw	zero,28(r2)
  c04a70:	e0bffd17 	ldw	r2,-12(fp)
  c04a74:	10000515 	stw	zero,20(r2)
  c04a78:	e0bffd17 	ldw	r2,-12(fp)
  c04a7c:	10800a04 	addi	r2,r2,40
  c04a80:	01808004 	movi	r6,512
  c04a84:	000b883a 	mov	r5,zero
  c04a88:	1009883a 	mov	r4,r2
  c04a8c:	0c10d400 	call	c10d40 <memset>
  c04a90:	e0bfff03 	ldbu	r2,-4(fp)
  c04a94:	1080080c 	andi	r2,r2,32
  c04a98:	10005226 	beq	r2,zero,c04be4 <f_open+0x48c>
  c04a9c:	e0bffd17 	ldw	r2,-12(fp)
  c04aa0:	10800317 	ldw	r2,12(r2)
  c04aa4:	10004f26 	beq	r2,zero,c04be4 <f_open+0x48c>
  c04aa8:	e0bffd17 	ldw	r2,-12(fp)
  c04aac:	10c00317 	ldw	r3,12(r2)
  c04ab0:	e0bffd17 	ldw	r2,-12(fp)
  c04ab4:	10c00515 	stw	r3,20(r2)
  c04ab8:	e0bffc17 	ldw	r2,-16(fp)
  c04abc:	1080028b 	ldhu	r2,10(r2)
  c04ac0:	10bfffcc 	andi	r2,r2,65535
  c04ac4:	1004927a 	slli	r2,r2,9
  c04ac8:	e0bfee15 	stw	r2,-72(fp)
  c04acc:	e0bffd17 	ldw	r2,-12(fp)
  c04ad0:	10800217 	ldw	r2,8(r2)
  c04ad4:	e0bfe915 	stw	r2,-92(fp)
  c04ad8:	e0bffd17 	ldw	r2,-12(fp)
  c04adc:	10800317 	ldw	r2,12(r2)
  c04ae0:	e0bfea15 	stw	r2,-88(fp)
  c04ae4:	00001306 	br	c04b34 <f_open+0x3dc>
  c04ae8:	e0bffd17 	ldw	r2,-12(fp)
  c04aec:	e17fe917 	ldw	r5,-92(fp)
  c04af0:	1009883a 	mov	r4,r2
  c04af4:	0c00c200 	call	c00c20 <get_fat>
  c04af8:	e0bfe915 	stw	r2,-92(fp)
  c04afc:	e0bfe917 	ldw	r2,-92(fp)
  c04b00:	108000a8 	cmpgeui	r2,r2,2
  c04b04:	1000021e 	bne	r2,zero,c04b10 <f_open+0x3b8>
  c04b08:	00800084 	movi	r2,2
  c04b0c:	e0bfe815 	stw	r2,-96(fp)
  c04b10:	e0bfe917 	ldw	r2,-92(fp)
  c04b14:	10bfffd8 	cmpnei	r2,r2,-1
  c04b18:	1000021e 	bne	r2,zero,c04b24 <f_open+0x3cc>
  c04b1c:	00800044 	movi	r2,1
  c04b20:	e0bfe815 	stw	r2,-96(fp)
  c04b24:	e0ffea17 	ldw	r3,-88(fp)
  c04b28:	e0bfee17 	ldw	r2,-72(fp)
  c04b2c:	1885c83a 	sub	r2,r3,r2
  c04b30:	e0bfea15 	stw	r2,-88(fp)
  c04b34:	e0bfe817 	ldw	r2,-96(fp)
  c04b38:	1000031e 	bne	r2,zero,c04b48 <f_open+0x3f0>
  c04b3c:	e0bfea17 	ldw	r2,-88(fp)
  c04b40:	e0ffee17 	ldw	r3,-72(fp)
  c04b44:	18bfe836 	bltu	r3,r2,c04ae8 <__alt_data_end+0xffb84ae8>
  c04b48:	e0bffd17 	ldw	r2,-12(fp)
  c04b4c:	e0ffe917 	ldw	r3,-92(fp)
  c04b50:	10c00615 	stw	r3,24(r2)
  c04b54:	e0bfe817 	ldw	r2,-96(fp)
  c04b58:	1000221e 	bne	r2,zero,c04be4 <f_open+0x48c>
  c04b5c:	e0bfea17 	ldw	r2,-88(fp)
  c04b60:	10807fcc 	andi	r2,r2,511
  c04b64:	10001f26 	beq	r2,zero,c04be4 <f_open+0x48c>
  c04b68:	e0bffc17 	ldw	r2,-16(fp)
  c04b6c:	e17fe917 	ldw	r5,-92(fp)
  c04b70:	1009883a 	mov	r4,r2
  c04b74:	0c00ba00 	call	c00ba0 <clst2sect>
  c04b78:	e0bfed15 	stw	r2,-76(fp)
  c04b7c:	e0bfed17 	ldw	r2,-76(fp)
  c04b80:	1000031e 	bne	r2,zero,c04b90 <f_open+0x438>
  c04b84:	00800084 	movi	r2,2
  c04b88:	e0bfe815 	stw	r2,-96(fp)
  c04b8c:	00001506 	br	c04be4 <f_open+0x48c>
  c04b90:	e0bfea17 	ldw	r2,-88(fp)
  c04b94:	1006d27a 	srli	r3,r2,9
  c04b98:	e0bfed17 	ldw	r2,-76(fp)
  c04b9c:	1887883a 	add	r3,r3,r2
  c04ba0:	e0bffd17 	ldw	r2,-12(fp)
  c04ba4:	10c00715 	stw	r3,28(r2)
  c04ba8:	e0bffc17 	ldw	r2,-16(fp)
  c04bac:	10800043 	ldbu	r2,1(r2)
  c04bb0:	10c03fcc 	andi	r3,r2,255
  c04bb4:	e0bffd17 	ldw	r2,-12(fp)
  c04bb8:	11000a04 	addi	r4,r2,40
  c04bbc:	e0bffd17 	ldw	r2,-12(fp)
  c04bc0:	10800717 	ldw	r2,28(r2)
  c04bc4:	01c00044 	movi	r7,1
  c04bc8:	100d883a 	mov	r6,r2
  c04bcc:	200b883a 	mov	r5,r4
  c04bd0:	1809883a 	mov	r4,r3
  c04bd4:	0c003040 	call	c00304 <disk_read>
  c04bd8:	10000226 	beq	r2,zero,c04be4 <f_open+0x48c>
  c04bdc:	00800044 	movi	r2,1
  c04be0:	e0bfe815 	stw	r2,-96(fp)
  c04be4:	e0bfe817 	ldw	r2,-96(fp)
  c04be8:	10000226 	beq	r2,zero,c04bf4 <f_open+0x49c>
  c04bec:	e0bffd17 	ldw	r2,-12(fp)
  c04bf0:	10000015 	stw	zero,0(r2)
  c04bf4:	e0bfe817 	ldw	r2,-96(fp)
  c04bf8:	e037883a 	mov	sp,fp
  c04bfc:	dfc00117 	ldw	ra,4(sp)
  c04c00:	df000017 	ldw	fp,0(sp)
  c04c04:	dec00204 	addi	sp,sp,8
  c04c08:	f800283a 	ret

00c04c0c <f_read>:
  c04c0c:	defff104 	addi	sp,sp,-60
  c04c10:	dfc00e15 	stw	ra,56(sp)
  c04c14:	df000d15 	stw	fp,52(sp)
  c04c18:	df000d04 	addi	fp,sp,52
  c04c1c:	e13ffc15 	stw	r4,-16(fp)
  c04c20:	e17ffd15 	stw	r5,-12(fp)
  c04c24:	e1bffe15 	stw	r6,-8(fp)
  c04c28:	e1ffff15 	stw	r7,-4(fp)
  c04c2c:	e0bffd17 	ldw	r2,-12(fp)
  c04c30:	e0bff715 	stw	r2,-36(fp)
  c04c34:	e0bfff17 	ldw	r2,-4(fp)
  c04c38:	10000015 	stw	zero,0(r2)
  c04c3c:	e0bffc17 	ldw	r2,-16(fp)
  c04c40:	e0fffb04 	addi	r3,fp,-20
  c04c44:	180b883a 	mov	r5,r3
  c04c48:	1009883a 	mov	r4,r2
  c04c4c:	0c045880 	call	c04588 <validate>
  c04c50:	e0bff315 	stw	r2,-52(fp)
  c04c54:	e0bff317 	ldw	r2,-52(fp)
  c04c58:	1000061e 	bne	r2,zero,c04c74 <f_read+0x68>
  c04c5c:	e0bffc17 	ldw	r2,-16(fp)
  c04c60:	10800443 	ldbu	r2,17(r2)
  c04c64:	10803fcc 	andi	r2,r2,255
  c04c68:	e0bff315 	stw	r2,-52(fp)
  c04c6c:	e0bff317 	ldw	r2,-52(fp)
  c04c70:	10000226 	beq	r2,zero,c04c7c <f_read+0x70>
  c04c74:	e0bff317 	ldw	r2,-52(fp)
  c04c78:	0000f306 	br	c05048 <f_read+0x43c>
  c04c7c:	e0bffc17 	ldw	r2,-16(fp)
  c04c80:	10800403 	ldbu	r2,16(r2)
  c04c84:	10803fcc 	andi	r2,r2,255
  c04c88:	1080004c 	andi	r2,r2,1
  c04c8c:	1000021e 	bne	r2,zero,c04c98 <f_read+0x8c>
  c04c90:	008001c4 	movi	r2,7
  c04c94:	0000ec06 	br	c05048 <f_read+0x43c>
  c04c98:	e0bffc17 	ldw	r2,-16(fp)
  c04c9c:	10c00317 	ldw	r3,12(r2)
  c04ca0:	e0bffc17 	ldw	r2,-16(fp)
  c04ca4:	10800517 	ldw	r2,20(r2)
  c04ca8:	1885c83a 	sub	r2,r3,r2
  c04cac:	e0bff815 	stw	r2,-32(fp)
  c04cb0:	e0bffe17 	ldw	r2,-8(fp)
  c04cb4:	e0fff817 	ldw	r3,-32(fp)
  c04cb8:	1880e02e 	bgeu	r3,r2,c0503c <f_read+0x430>
  c04cbc:	e0bff817 	ldw	r2,-32(fp)
  c04cc0:	e0bffe15 	stw	r2,-8(fp)
  c04cc4:	0000dd06 	br	c0503c <f_read+0x430>
  c04cc8:	e0bffc17 	ldw	r2,-16(fp)
  c04ccc:	10800517 	ldw	r2,20(r2)
  c04cd0:	10807fcc 	andi	r2,r2,511
  c04cd4:	1000b01e 	bne	r2,zero,c04f98 <f_read+0x38c>
  c04cd8:	e0bffc17 	ldw	r2,-16(fp)
  c04cdc:	10800517 	ldw	r2,20(r2)
  c04ce0:	1004d27a 	srli	r2,r2,9
  c04ce4:	e0fffb17 	ldw	r3,-20(fp)
  c04ce8:	18c0028b 	ldhu	r3,10(r3)
  c04cec:	18ffffcc 	andi	r3,r3,65535
  c04cf0:	18ffffc4 	addi	r3,r3,-1
  c04cf4:	10c4703a 	and	r2,r2,r3
  c04cf8:	e0bff915 	stw	r2,-28(fp)
  c04cfc:	e0bff917 	ldw	r2,-28(fp)
  c04d00:	1000211e 	bne	r2,zero,c04d88 <f_read+0x17c>
  c04d04:	e0bffc17 	ldw	r2,-16(fp)
  c04d08:	10800517 	ldw	r2,20(r2)
  c04d0c:	1000041e 	bne	r2,zero,c04d20 <f_read+0x114>
  c04d10:	e0bffc17 	ldw	r2,-16(fp)
  c04d14:	10800217 	ldw	r2,8(r2)
  c04d18:	e0bff415 	stw	r2,-48(fp)
  c04d1c:	00000706 	br	c04d3c <f_read+0x130>
  c04d20:	e0fffc17 	ldw	r3,-16(fp)
  c04d24:	e0bffc17 	ldw	r2,-16(fp)
  c04d28:	10800617 	ldw	r2,24(r2)
  c04d2c:	100b883a 	mov	r5,r2
  c04d30:	1809883a 	mov	r4,r3
  c04d34:	0c00c200 	call	c00c20 <get_fat>
  c04d38:	e0bff415 	stw	r2,-48(fp)
  c04d3c:	e0bff417 	ldw	r2,-48(fp)
  c04d40:	108000a8 	cmpgeui	r2,r2,2
  c04d44:	1000051e 	bne	r2,zero,c04d5c <f_read+0x150>
  c04d48:	e0bffc17 	ldw	r2,-16(fp)
  c04d4c:	00c00084 	movi	r3,2
  c04d50:	10c00445 	stb	r3,17(r2)
  c04d54:	00800084 	movi	r2,2
  c04d58:	0000bb06 	br	c05048 <f_read+0x43c>
  c04d5c:	e0bff417 	ldw	r2,-48(fp)
  c04d60:	10bfffd8 	cmpnei	r2,r2,-1
  c04d64:	1000051e 	bne	r2,zero,c04d7c <f_read+0x170>
  c04d68:	e0bffc17 	ldw	r2,-16(fp)
  c04d6c:	00c00044 	movi	r3,1
  c04d70:	10c00445 	stb	r3,17(r2)
  c04d74:	00800044 	movi	r2,1
  c04d78:	0000b306 	br	c05048 <f_read+0x43c>
  c04d7c:	e0bffc17 	ldw	r2,-16(fp)
  c04d80:	e0fff417 	ldw	r3,-48(fp)
  c04d84:	10c00615 	stw	r3,24(r2)
  c04d88:	e0fffb17 	ldw	r3,-20(fp)
  c04d8c:	e0bffc17 	ldw	r2,-16(fp)
  c04d90:	10800617 	ldw	r2,24(r2)
  c04d94:	100b883a 	mov	r5,r2
  c04d98:	1809883a 	mov	r4,r3
  c04d9c:	0c00ba00 	call	c00ba0 <clst2sect>
  c04da0:	e0bffa15 	stw	r2,-24(fp)
  c04da4:	e0bffa17 	ldw	r2,-24(fp)
  c04da8:	1000051e 	bne	r2,zero,c04dc0 <f_read+0x1b4>
  c04dac:	e0bffc17 	ldw	r2,-16(fp)
  c04db0:	00c00084 	movi	r3,2
  c04db4:	10c00445 	stb	r3,17(r2)
  c04db8:	00800084 	movi	r2,2
  c04dbc:	0000a206 	br	c05048 <f_read+0x43c>
  c04dc0:	e0fffa17 	ldw	r3,-24(fp)
  c04dc4:	e0bff917 	ldw	r2,-28(fp)
  c04dc8:	1885883a 	add	r2,r3,r2
  c04dcc:	e0bffa15 	stw	r2,-24(fp)
  c04dd0:	e0bffe17 	ldw	r2,-8(fp)
  c04dd4:	1004d27a 	srli	r2,r2,9
  c04dd8:	e0bff615 	stw	r2,-40(fp)
  c04ddc:	e0bff617 	ldw	r2,-40(fp)
  c04de0:	10003826 	beq	r2,zero,c04ec4 <f_read+0x2b8>
  c04de4:	e0fff917 	ldw	r3,-28(fp)
  c04de8:	e0bff617 	ldw	r2,-40(fp)
  c04dec:	1885883a 	add	r2,r3,r2
  c04df0:	e0fffb17 	ldw	r3,-20(fp)
  c04df4:	18c0028b 	ldhu	r3,10(r3)
  c04df8:	18ffffcc 	andi	r3,r3,65535
  c04dfc:	1880062e 	bgeu	r3,r2,c04e18 <f_read+0x20c>
  c04e00:	e0bffb17 	ldw	r2,-20(fp)
  c04e04:	1080028b 	ldhu	r2,10(r2)
  c04e08:	10ffffcc 	andi	r3,r2,65535
  c04e0c:	e0bff917 	ldw	r2,-28(fp)
  c04e10:	1885c83a 	sub	r2,r3,r2
  c04e14:	e0bff615 	stw	r2,-40(fp)
  c04e18:	e0bffb17 	ldw	r2,-20(fp)
  c04e1c:	10800043 	ldbu	r2,1(r2)
  c04e20:	10803fcc 	andi	r2,r2,255
  c04e24:	e1fff617 	ldw	r7,-40(fp)
  c04e28:	e1bffa17 	ldw	r6,-24(fp)
  c04e2c:	e17ff717 	ldw	r5,-36(fp)
  c04e30:	1009883a 	mov	r4,r2
  c04e34:	0c003040 	call	c00304 <disk_read>
  c04e38:	10000526 	beq	r2,zero,c04e50 <f_read+0x244>
  c04e3c:	e0bffc17 	ldw	r2,-16(fp)
  c04e40:	00c00044 	movi	r3,1
  c04e44:	10c00445 	stb	r3,17(r2)
  c04e48:	00800044 	movi	r2,1
  c04e4c:	00007e06 	br	c05048 <f_read+0x43c>
  c04e50:	e0bffc17 	ldw	r2,-16(fp)
  c04e54:	10800403 	ldbu	r2,16(r2)
  c04e58:	10803fcc 	andi	r2,r2,255
  c04e5c:	1080201c 	xori	r2,r2,128
  c04e60:	10bfe004 	addi	r2,r2,-128
  c04e64:	1000130e 	bge	r2,zero,c04eb4 <f_read+0x2a8>
  c04e68:	e0bffc17 	ldw	r2,-16(fp)
  c04e6c:	10c00717 	ldw	r3,28(r2)
  c04e70:	e0bffa17 	ldw	r2,-24(fp)
  c04e74:	1887c83a 	sub	r3,r3,r2
  c04e78:	e0bff617 	ldw	r2,-40(fp)
  c04e7c:	18800d2e 	bgeu	r3,r2,c04eb4 <f_read+0x2a8>
  c04e80:	e0bffc17 	ldw	r2,-16(fp)
  c04e84:	10c00717 	ldw	r3,28(r2)
  c04e88:	e0bffa17 	ldw	r2,-24(fp)
  c04e8c:	1885c83a 	sub	r2,r3,r2
  c04e90:	1004927a 	slli	r2,r2,9
  c04e94:	e0fff717 	ldw	r3,-36(fp)
  c04e98:	1887883a 	add	r3,r3,r2
  c04e9c:	e0bffc17 	ldw	r2,-16(fp)
  c04ea0:	10800a04 	addi	r2,r2,40
  c04ea4:	01808004 	movi	r6,512
  c04ea8:	100b883a 	mov	r5,r2
  c04eac:	1809883a 	mov	r4,r3
  c04eb0:	0c10bf80 	call	c10bf8 <memcpy>
  c04eb4:	e0bff617 	ldw	r2,-40(fp)
  c04eb8:	1004927a 	slli	r2,r2,9
  c04ebc:	e0bff515 	stw	r2,-44(fp)
  c04ec0:	00004a06 	br	c04fec <f_read+0x3e0>
  c04ec4:	e0bffc17 	ldw	r2,-16(fp)
  c04ec8:	10c00717 	ldw	r3,28(r2)
  c04ecc:	e0bffa17 	ldw	r2,-24(fp)
  c04ed0:	18802e26 	beq	r3,r2,c04f8c <f_read+0x380>
  c04ed4:	e0bffc17 	ldw	r2,-16(fp)
  c04ed8:	10800403 	ldbu	r2,16(r2)
  c04edc:	10803fcc 	andi	r2,r2,255
  c04ee0:	1080201c 	xori	r2,r2,128
  c04ee4:	10bfe004 	addi	r2,r2,-128
  c04ee8:	1000180e 	bge	r2,zero,c04f4c <f_read+0x340>
  c04eec:	e0bffb17 	ldw	r2,-20(fp)
  c04ef0:	10800043 	ldbu	r2,1(r2)
  c04ef4:	10c03fcc 	andi	r3,r2,255
  c04ef8:	e0bffc17 	ldw	r2,-16(fp)
  c04efc:	11000a04 	addi	r4,r2,40
  c04f00:	e0bffc17 	ldw	r2,-16(fp)
  c04f04:	10800717 	ldw	r2,28(r2)
  c04f08:	01c00044 	movi	r7,1
  c04f0c:	100d883a 	mov	r6,r2
  c04f10:	200b883a 	mov	r5,r4
  c04f14:	1809883a 	mov	r4,r3
  c04f18:	0c003540 	call	c00354 <disk_write>
  c04f1c:	10000526 	beq	r2,zero,c04f34 <f_read+0x328>
  c04f20:	e0bffc17 	ldw	r2,-16(fp)
  c04f24:	00c00044 	movi	r3,1
  c04f28:	10c00445 	stb	r3,17(r2)
  c04f2c:	00800044 	movi	r2,1
  c04f30:	00004506 	br	c05048 <f_read+0x43c>
  c04f34:	e0bffc17 	ldw	r2,-16(fp)
  c04f38:	10800403 	ldbu	r2,16(r2)
  c04f3c:	10801fcc 	andi	r2,r2,127
  c04f40:	1007883a 	mov	r3,r2
  c04f44:	e0bffc17 	ldw	r2,-16(fp)
  c04f48:	10c00405 	stb	r3,16(r2)
  c04f4c:	e0bffb17 	ldw	r2,-20(fp)
  c04f50:	10800043 	ldbu	r2,1(r2)
  c04f54:	10c03fcc 	andi	r3,r2,255
  c04f58:	e0bffc17 	ldw	r2,-16(fp)
  c04f5c:	10800a04 	addi	r2,r2,40
  c04f60:	01c00044 	movi	r7,1
  c04f64:	e1bffa17 	ldw	r6,-24(fp)
  c04f68:	100b883a 	mov	r5,r2
  c04f6c:	1809883a 	mov	r4,r3
  c04f70:	0c003040 	call	c00304 <disk_read>
  c04f74:	10000526 	beq	r2,zero,c04f8c <f_read+0x380>
  c04f78:	e0bffc17 	ldw	r2,-16(fp)
  c04f7c:	00c00044 	movi	r3,1
  c04f80:	10c00445 	stb	r3,17(r2)
  c04f84:	00800044 	movi	r2,1
  c04f88:	00002f06 	br	c05048 <f_read+0x43c>
  c04f8c:	e0bffc17 	ldw	r2,-16(fp)
  c04f90:	e0fffa17 	ldw	r3,-24(fp)
  c04f94:	10c00715 	stw	r3,28(r2)
  c04f98:	e0bffc17 	ldw	r2,-16(fp)
  c04f9c:	10800517 	ldw	r2,20(r2)
  c04fa0:	10807fcc 	andi	r2,r2,511
  c04fa4:	00c08004 	movi	r3,512
  c04fa8:	1885c83a 	sub	r2,r3,r2
  c04fac:	e0bff515 	stw	r2,-44(fp)
  c04fb0:	e0bff517 	ldw	r2,-44(fp)
  c04fb4:	e0fffe17 	ldw	r3,-8(fp)
  c04fb8:	1880022e 	bgeu	r3,r2,c04fc4 <f_read+0x3b8>
  c04fbc:	e0bffe17 	ldw	r2,-8(fp)
  c04fc0:	e0bff515 	stw	r2,-44(fp)
  c04fc4:	e0bffc17 	ldw	r2,-16(fp)
  c04fc8:	10c00a04 	addi	r3,r2,40
  c04fcc:	e0bffc17 	ldw	r2,-16(fp)
  c04fd0:	10800517 	ldw	r2,20(r2)
  c04fd4:	10807fcc 	andi	r2,r2,511
  c04fd8:	1885883a 	add	r2,r3,r2
  c04fdc:	e1bff517 	ldw	r6,-44(fp)
  c04fe0:	100b883a 	mov	r5,r2
  c04fe4:	e13ff717 	ldw	r4,-36(fp)
  c04fe8:	0c10bf80 	call	c10bf8 <memcpy>
  c04fec:	e0fffe17 	ldw	r3,-8(fp)
  c04ff0:	e0bff517 	ldw	r2,-44(fp)
  c04ff4:	1885c83a 	sub	r2,r3,r2
  c04ff8:	e0bffe15 	stw	r2,-8(fp)
  c04ffc:	e0bfff17 	ldw	r2,-4(fp)
  c05000:	10c00017 	ldw	r3,0(r2)
  c05004:	e0bff517 	ldw	r2,-44(fp)
  c05008:	1887883a 	add	r3,r3,r2
  c0500c:	e0bfff17 	ldw	r2,-4(fp)
  c05010:	10c00015 	stw	r3,0(r2)
  c05014:	e0fff717 	ldw	r3,-36(fp)
  c05018:	e0bff517 	ldw	r2,-44(fp)
  c0501c:	1885883a 	add	r2,r3,r2
  c05020:	e0bff715 	stw	r2,-36(fp)
  c05024:	e0bffc17 	ldw	r2,-16(fp)
  c05028:	10c00517 	ldw	r3,20(r2)
  c0502c:	e0bff517 	ldw	r2,-44(fp)
  c05030:	1887883a 	add	r3,r3,r2
  c05034:	e0bffc17 	ldw	r2,-16(fp)
  c05038:	10c00515 	stw	r3,20(r2)
  c0503c:	e0bffe17 	ldw	r2,-8(fp)
  c05040:	103f211e 	bne	r2,zero,c04cc8 <__alt_data_end+0xffb84cc8>
  c05044:	0005883a 	mov	r2,zero
  c05048:	e037883a 	mov	sp,fp
  c0504c:	dfc00117 	ldw	ra,4(sp)
  c05050:	df000017 	ldw	fp,0(sp)
  c05054:	dec00204 	addi	sp,sp,8
  c05058:	f800283a 	ret

00c0505c <f_write>:
  c0505c:	defff204 	addi	sp,sp,-56
  c05060:	dfc00d15 	stw	ra,52(sp)
  c05064:	df000c15 	stw	fp,48(sp)
  c05068:	df000c04 	addi	fp,sp,48
  c0506c:	e13ffc15 	stw	r4,-16(fp)
  c05070:	e17ffd15 	stw	r5,-12(fp)
  c05074:	e1bffe15 	stw	r6,-8(fp)
  c05078:	e1ffff15 	stw	r7,-4(fp)
  c0507c:	e0bffd17 	ldw	r2,-12(fp)
  c05080:	e0bff815 	stw	r2,-32(fp)
  c05084:	e0bfff17 	ldw	r2,-4(fp)
  c05088:	10000015 	stw	zero,0(r2)
  c0508c:	e0bffc17 	ldw	r2,-16(fp)
  c05090:	e0fffb04 	addi	r3,fp,-20
  c05094:	180b883a 	mov	r5,r3
  c05098:	1009883a 	mov	r4,r2
  c0509c:	0c045880 	call	c04588 <validate>
  c050a0:	e0bff415 	stw	r2,-48(fp)
  c050a4:	e0bff417 	ldw	r2,-48(fp)
  c050a8:	1000061e 	bne	r2,zero,c050c4 <f_write+0x68>
  c050ac:	e0bffc17 	ldw	r2,-16(fp)
  c050b0:	10800443 	ldbu	r2,17(r2)
  c050b4:	10803fcc 	andi	r2,r2,255
  c050b8:	e0bff415 	stw	r2,-48(fp)
  c050bc:	e0bff417 	ldw	r2,-48(fp)
  c050c0:	10000226 	beq	r2,zero,c050cc <f_write+0x70>
  c050c4:	e0bff417 	ldw	r2,-48(fp)
  c050c8:	00011e06 	br	c05544 <f_write+0x4e8>
  c050cc:	e0bffc17 	ldw	r2,-16(fp)
  c050d0:	10800403 	ldbu	r2,16(r2)
  c050d4:	10803fcc 	andi	r2,r2,255
  c050d8:	1080008c 	andi	r2,r2,2
  c050dc:	1000021e 	bne	r2,zero,c050e8 <f_write+0x8c>
  c050e0:	008001c4 	movi	r2,7
  c050e4:	00011706 	br	c05544 <f_write+0x4e8>
  c050e8:	e0bffc17 	ldw	r2,-16(fp)
  c050ec:	10c00517 	ldw	r3,20(r2)
  c050f0:	e0bffe17 	ldw	r2,-8(fp)
  c050f4:	1887883a 	add	r3,r3,r2
  c050f8:	e0bffc17 	ldw	r2,-16(fp)
  c050fc:	10800517 	ldw	r2,20(r2)
  c05100:	1881052e 	bgeu	r3,r2,c05518 <f_write+0x4bc>
  c05104:	e0bffc17 	ldw	r2,-16(fp)
  c05108:	10800517 	ldw	r2,20(r2)
  c0510c:	0084303a 	nor	r2,zero,r2
  c05110:	e0bffe15 	stw	r2,-8(fp)
  c05114:	00010006 	br	c05518 <f_write+0x4bc>
  c05118:	e0bffc17 	ldw	r2,-16(fp)
  c0511c:	10800517 	ldw	r2,20(r2)
  c05120:	10807fcc 	andi	r2,r2,511
  c05124:	1000c31e 	bne	r2,zero,c05434 <f_write+0x3d8>
  c05128:	e0bffc17 	ldw	r2,-16(fp)
  c0512c:	10800517 	ldw	r2,20(r2)
  c05130:	1004d27a 	srli	r2,r2,9
  c05134:	e0fffb17 	ldw	r3,-20(fp)
  c05138:	18c0028b 	ldhu	r3,10(r3)
  c0513c:	18ffffcc 	andi	r3,r3,65535
  c05140:	18ffffc4 	addi	r3,r3,-1
  c05144:	10c4703a 	and	r2,r2,r3
  c05148:	e0bff915 	stw	r2,-28(fp)
  c0514c:	e0bff917 	ldw	r2,-28(fp)
  c05150:	1000301e 	bne	r2,zero,c05214 <f_write+0x1b8>
  c05154:	e0bffc17 	ldw	r2,-16(fp)
  c05158:	10800517 	ldw	r2,20(r2)
  c0515c:	10000b1e 	bne	r2,zero,c0518c <f_write+0x130>
  c05160:	e0bffc17 	ldw	r2,-16(fp)
  c05164:	10800217 	ldw	r2,8(r2)
  c05168:	e0bff515 	stw	r2,-44(fp)
  c0516c:	e0bff517 	ldw	r2,-44(fp)
  c05170:	10000d1e 	bne	r2,zero,c051a8 <f_write+0x14c>
  c05174:	e0bffc17 	ldw	r2,-16(fp)
  c05178:	000b883a 	mov	r5,zero
  c0517c:	1009883a 	mov	r4,r2
  c05180:	0c012d00 	call	c012d0 <create_chain>
  c05184:	e0bff515 	stw	r2,-44(fp)
  c05188:	00000706 	br	c051a8 <f_write+0x14c>
  c0518c:	e0fffc17 	ldw	r3,-16(fp)
  c05190:	e0bffc17 	ldw	r2,-16(fp)
  c05194:	10800617 	ldw	r2,24(r2)
  c05198:	100b883a 	mov	r5,r2
  c0519c:	1809883a 	mov	r4,r3
  c051a0:	0c012d00 	call	c012d0 <create_chain>
  c051a4:	e0bff515 	stw	r2,-44(fp)
  c051a8:	e0bff517 	ldw	r2,-44(fp)
  c051ac:	1000dd26 	beq	r2,zero,c05524 <f_write+0x4c8>
  c051b0:	e0bff517 	ldw	r2,-44(fp)
  c051b4:	10800058 	cmpnei	r2,r2,1
  c051b8:	1000051e 	bne	r2,zero,c051d0 <f_write+0x174>
  c051bc:	e0bffc17 	ldw	r2,-16(fp)
  c051c0:	00c00084 	movi	r3,2
  c051c4:	10c00445 	stb	r3,17(r2)
  c051c8:	00800084 	movi	r2,2
  c051cc:	0000dd06 	br	c05544 <f_write+0x4e8>
  c051d0:	e0bff517 	ldw	r2,-44(fp)
  c051d4:	10bfffd8 	cmpnei	r2,r2,-1
  c051d8:	1000051e 	bne	r2,zero,c051f0 <f_write+0x194>
  c051dc:	e0bffc17 	ldw	r2,-16(fp)
  c051e0:	00c00044 	movi	r3,1
  c051e4:	10c00445 	stb	r3,17(r2)
  c051e8:	00800044 	movi	r2,1
  c051ec:	0000d506 	br	c05544 <f_write+0x4e8>
  c051f0:	e0bffc17 	ldw	r2,-16(fp)
  c051f4:	e0fff517 	ldw	r3,-44(fp)
  c051f8:	10c00615 	stw	r3,24(r2)
  c051fc:	e0bffc17 	ldw	r2,-16(fp)
  c05200:	10800217 	ldw	r2,8(r2)
  c05204:	1000031e 	bne	r2,zero,c05214 <f_write+0x1b8>
  c05208:	e0bffc17 	ldw	r2,-16(fp)
  c0520c:	e0fff517 	ldw	r3,-44(fp)
  c05210:	10c00215 	stw	r3,8(r2)
  c05214:	e0bffc17 	ldw	r2,-16(fp)
  c05218:	10800403 	ldbu	r2,16(r2)
  c0521c:	10803fcc 	andi	r2,r2,255
  c05220:	1080201c 	xori	r2,r2,128
  c05224:	10bfe004 	addi	r2,r2,-128
  c05228:	1000180e 	bge	r2,zero,c0528c <f_write+0x230>
  c0522c:	e0bffb17 	ldw	r2,-20(fp)
  c05230:	10800043 	ldbu	r2,1(r2)
  c05234:	10c03fcc 	andi	r3,r2,255
  c05238:	e0bffc17 	ldw	r2,-16(fp)
  c0523c:	11000a04 	addi	r4,r2,40
  c05240:	e0bffc17 	ldw	r2,-16(fp)
  c05244:	10800717 	ldw	r2,28(r2)
  c05248:	01c00044 	movi	r7,1
  c0524c:	100d883a 	mov	r6,r2
  c05250:	200b883a 	mov	r5,r4
  c05254:	1809883a 	mov	r4,r3
  c05258:	0c003540 	call	c00354 <disk_write>
  c0525c:	10000526 	beq	r2,zero,c05274 <f_write+0x218>
  c05260:	e0bffc17 	ldw	r2,-16(fp)
  c05264:	00c00044 	movi	r3,1
  c05268:	10c00445 	stb	r3,17(r2)
  c0526c:	00800044 	movi	r2,1
  c05270:	0000b406 	br	c05544 <f_write+0x4e8>
  c05274:	e0bffc17 	ldw	r2,-16(fp)
  c05278:	10800403 	ldbu	r2,16(r2)
  c0527c:	10801fcc 	andi	r2,r2,127
  c05280:	1007883a 	mov	r3,r2
  c05284:	e0bffc17 	ldw	r2,-16(fp)
  c05288:	10c00405 	stb	r3,16(r2)
  c0528c:	e0fffb17 	ldw	r3,-20(fp)
  c05290:	e0bffc17 	ldw	r2,-16(fp)
  c05294:	10800617 	ldw	r2,24(r2)
  c05298:	100b883a 	mov	r5,r2
  c0529c:	1809883a 	mov	r4,r3
  c052a0:	0c00ba00 	call	c00ba0 <clst2sect>
  c052a4:	e0bffa15 	stw	r2,-24(fp)
  c052a8:	e0bffa17 	ldw	r2,-24(fp)
  c052ac:	1000051e 	bne	r2,zero,c052c4 <f_write+0x268>
  c052b0:	e0bffc17 	ldw	r2,-16(fp)
  c052b4:	00c00084 	movi	r3,2
  c052b8:	10c00445 	stb	r3,17(r2)
  c052bc:	00800084 	movi	r2,2
  c052c0:	0000a006 	br	c05544 <f_write+0x4e8>
  c052c4:	e0fffa17 	ldw	r3,-24(fp)
  c052c8:	e0bff917 	ldw	r2,-28(fp)
  c052cc:	1885883a 	add	r2,r3,r2
  c052d0:	e0bffa15 	stw	r2,-24(fp)
  c052d4:	e0bffe17 	ldw	r2,-8(fp)
  c052d8:	1004d27a 	srli	r2,r2,9
  c052dc:	e0bff715 	stw	r2,-36(fp)
  c052e0:	e0bff717 	ldw	r2,-36(fp)
  c052e4:	10003726 	beq	r2,zero,c053c4 <f_write+0x368>
  c052e8:	e0fff917 	ldw	r3,-28(fp)
  c052ec:	e0bff717 	ldw	r2,-36(fp)
  c052f0:	1885883a 	add	r2,r3,r2
  c052f4:	e0fffb17 	ldw	r3,-20(fp)
  c052f8:	18c0028b 	ldhu	r3,10(r3)
  c052fc:	18ffffcc 	andi	r3,r3,65535
  c05300:	1880062e 	bgeu	r3,r2,c0531c <f_write+0x2c0>
  c05304:	e0bffb17 	ldw	r2,-20(fp)
  c05308:	1080028b 	ldhu	r2,10(r2)
  c0530c:	10ffffcc 	andi	r3,r2,65535
  c05310:	e0bff917 	ldw	r2,-28(fp)
  c05314:	1885c83a 	sub	r2,r3,r2
  c05318:	e0bff715 	stw	r2,-36(fp)
  c0531c:	e0bffb17 	ldw	r2,-20(fp)
  c05320:	10800043 	ldbu	r2,1(r2)
  c05324:	10803fcc 	andi	r2,r2,255
  c05328:	e1fff717 	ldw	r7,-36(fp)
  c0532c:	e1bffa17 	ldw	r6,-24(fp)
  c05330:	e17ff817 	ldw	r5,-32(fp)
  c05334:	1009883a 	mov	r4,r2
  c05338:	0c003540 	call	c00354 <disk_write>
  c0533c:	10000526 	beq	r2,zero,c05354 <f_write+0x2f8>
  c05340:	e0bffc17 	ldw	r2,-16(fp)
  c05344:	00c00044 	movi	r3,1
  c05348:	10c00445 	stb	r3,17(r2)
  c0534c:	00800044 	movi	r2,1
  c05350:	00007c06 	br	c05544 <f_write+0x4e8>
  c05354:	e0bffc17 	ldw	r2,-16(fp)
  c05358:	10c00717 	ldw	r3,28(r2)
  c0535c:	e0bffa17 	ldw	r2,-24(fp)
  c05360:	1887c83a 	sub	r3,r3,r2
  c05364:	e0bff717 	ldw	r2,-36(fp)
  c05368:	1880122e 	bgeu	r3,r2,c053b4 <f_write+0x358>
  c0536c:	e0bffc17 	ldw	r2,-16(fp)
  c05370:	11000a04 	addi	r4,r2,40
  c05374:	e0bffc17 	ldw	r2,-16(fp)
  c05378:	10c00717 	ldw	r3,28(r2)
  c0537c:	e0bffa17 	ldw	r2,-24(fp)
  c05380:	1885c83a 	sub	r2,r3,r2
  c05384:	1004927a 	slli	r2,r2,9
  c05388:	e0fff817 	ldw	r3,-32(fp)
  c0538c:	1885883a 	add	r2,r3,r2
  c05390:	01808004 	movi	r6,512
  c05394:	100b883a 	mov	r5,r2
  c05398:	0c10bf80 	call	c10bf8 <memcpy>
  c0539c:	e0bffc17 	ldw	r2,-16(fp)
  c053a0:	10800403 	ldbu	r2,16(r2)
  c053a4:	10801fcc 	andi	r2,r2,127
  c053a8:	1007883a 	mov	r3,r2
  c053ac:	e0bffc17 	ldw	r2,-16(fp)
  c053b0:	10c00405 	stb	r3,16(r2)
  c053b4:	e0bff717 	ldw	r2,-36(fp)
  c053b8:	1004927a 	slli	r2,r2,9
  c053bc:	e0bff615 	stw	r2,-40(fp)
  c053c0:	00003806 	br	c054a4 <f_write+0x448>
  c053c4:	e0bffc17 	ldw	r2,-16(fp)
  c053c8:	10c00717 	ldw	r3,28(r2)
  c053cc:	e0bffa17 	ldw	r2,-24(fp)
  c053d0:	18801526 	beq	r3,r2,c05428 <f_write+0x3cc>
  c053d4:	e0bffc17 	ldw	r2,-16(fp)
  c053d8:	10c00517 	ldw	r3,20(r2)
  c053dc:	e0bffc17 	ldw	r2,-16(fp)
  c053e0:	10800317 	ldw	r2,12(r2)
  c053e4:	1880102e 	bgeu	r3,r2,c05428 <f_write+0x3cc>
  c053e8:	e0bffb17 	ldw	r2,-20(fp)
  c053ec:	10800043 	ldbu	r2,1(r2)
  c053f0:	10c03fcc 	andi	r3,r2,255
  c053f4:	e0bffc17 	ldw	r2,-16(fp)
  c053f8:	10800a04 	addi	r2,r2,40
  c053fc:	01c00044 	movi	r7,1
  c05400:	e1bffa17 	ldw	r6,-24(fp)
  c05404:	100b883a 	mov	r5,r2
  c05408:	1809883a 	mov	r4,r3
  c0540c:	0c003040 	call	c00304 <disk_read>
  c05410:	10000526 	beq	r2,zero,c05428 <f_write+0x3cc>
  c05414:	e0bffc17 	ldw	r2,-16(fp)
  c05418:	00c00044 	movi	r3,1
  c0541c:	10c00445 	stb	r3,17(r2)
  c05420:	00800044 	movi	r2,1
  c05424:	00004706 	br	c05544 <f_write+0x4e8>
  c05428:	e0bffc17 	ldw	r2,-16(fp)
  c0542c:	e0fffa17 	ldw	r3,-24(fp)
  c05430:	10c00715 	stw	r3,28(r2)
  c05434:	e0bffc17 	ldw	r2,-16(fp)
  c05438:	10800517 	ldw	r2,20(r2)
  c0543c:	10807fcc 	andi	r2,r2,511
  c05440:	00c08004 	movi	r3,512
  c05444:	1885c83a 	sub	r2,r3,r2
  c05448:	e0bff615 	stw	r2,-40(fp)
  c0544c:	e0bff617 	ldw	r2,-40(fp)
  c05450:	e0fffe17 	ldw	r3,-8(fp)
  c05454:	1880022e 	bgeu	r3,r2,c05460 <f_write+0x404>
  c05458:	e0bffe17 	ldw	r2,-8(fp)
  c0545c:	e0bff615 	stw	r2,-40(fp)
  c05460:	e0bffc17 	ldw	r2,-16(fp)
  c05464:	10c00a04 	addi	r3,r2,40
  c05468:	e0bffc17 	ldw	r2,-16(fp)
  c0546c:	10800517 	ldw	r2,20(r2)
  c05470:	10807fcc 	andi	r2,r2,511
  c05474:	1885883a 	add	r2,r3,r2
  c05478:	e1bff617 	ldw	r6,-40(fp)
  c0547c:	e17ff817 	ldw	r5,-32(fp)
  c05480:	1009883a 	mov	r4,r2
  c05484:	0c10bf80 	call	c10bf8 <memcpy>
  c05488:	e0bffc17 	ldw	r2,-16(fp)
  c0548c:	10c00403 	ldbu	r3,16(r2)
  c05490:	00bfe004 	movi	r2,-128
  c05494:	1884b03a 	or	r2,r3,r2
  c05498:	1007883a 	mov	r3,r2
  c0549c:	e0bffc17 	ldw	r2,-16(fp)
  c054a0:	10c00405 	stb	r3,16(r2)
  c054a4:	e0fffe17 	ldw	r3,-8(fp)
  c054a8:	e0bff617 	ldw	r2,-40(fp)
  c054ac:	1885c83a 	sub	r2,r3,r2
  c054b0:	e0bffe15 	stw	r2,-8(fp)
  c054b4:	e0bfff17 	ldw	r2,-4(fp)
  c054b8:	10c00017 	ldw	r3,0(r2)
  c054bc:	e0bff617 	ldw	r2,-40(fp)
  c054c0:	1887883a 	add	r3,r3,r2
  c054c4:	e0bfff17 	ldw	r2,-4(fp)
  c054c8:	10c00015 	stw	r3,0(r2)
  c054cc:	e0fff817 	ldw	r3,-32(fp)
  c054d0:	e0bff617 	ldw	r2,-40(fp)
  c054d4:	1885883a 	add	r2,r3,r2
  c054d8:	e0bff815 	stw	r2,-32(fp)
  c054dc:	e0bffc17 	ldw	r2,-16(fp)
  c054e0:	10c00517 	ldw	r3,20(r2)
  c054e4:	e0bff617 	ldw	r2,-40(fp)
  c054e8:	1887883a 	add	r3,r3,r2
  c054ec:	e0bffc17 	ldw	r2,-16(fp)
  c054f0:	10c00515 	stw	r3,20(r2)
  c054f4:	e0bffc17 	ldw	r2,-16(fp)
  c054f8:	11000317 	ldw	r4,12(r2)
  c054fc:	e0bffc17 	ldw	r2,-16(fp)
  c05500:	10c00517 	ldw	r3,20(r2)
  c05504:	2005883a 	mov	r2,r4
  c05508:	10c0012e 	bgeu	r2,r3,c05510 <f_write+0x4b4>
  c0550c:	1805883a 	mov	r2,r3
  c05510:	e0fffc17 	ldw	r3,-16(fp)
  c05514:	18800315 	stw	r2,12(r3)
  c05518:	e0bffe17 	ldw	r2,-8(fp)
  c0551c:	103efe1e 	bne	r2,zero,c05118 <__alt_data_end+0xffb85118>
  c05520:	00000106 	br	c05528 <f_write+0x4cc>
  c05524:	0001883a 	nop
  c05528:	e0bffc17 	ldw	r2,-16(fp)
  c0552c:	10800403 	ldbu	r2,16(r2)
  c05530:	10801014 	ori	r2,r2,64
  c05534:	1007883a 	mov	r3,r2
  c05538:	e0bffc17 	ldw	r2,-16(fp)
  c0553c:	10c00405 	stb	r3,16(r2)
  c05540:	0005883a 	mov	r2,zero
  c05544:	e037883a 	mov	sp,fp
  c05548:	dfc00117 	ldw	ra,4(sp)
  c0554c:	df000017 	ldw	fp,0(sp)
  c05550:	dec00204 	addi	sp,sp,8
  c05554:	f800283a 	ret

00c05558 <f_sync>:
  c05558:	defff904 	addi	sp,sp,-28
  c0555c:	dfc00615 	stw	ra,24(sp)
  c05560:	df000515 	stw	fp,20(sp)
  c05564:	df000504 	addi	fp,sp,20
  c05568:	e13fff15 	stw	r4,-4(fp)
  c0556c:	e0bfff17 	ldw	r2,-4(fp)
  c05570:	e0fffe04 	addi	r3,fp,-8
  c05574:	180b883a 	mov	r5,r3
  c05578:	1009883a 	mov	r4,r2
  c0557c:	0c045880 	call	c04588 <validate>
  c05580:	e0bffb15 	stw	r2,-20(fp)
  c05584:	e0bffb17 	ldw	r2,-20(fp)
  c05588:	10005c1e 	bne	r2,zero,c056fc <f_sync+0x1a4>
  c0558c:	e0bfff17 	ldw	r2,-4(fp)
  c05590:	10800403 	ldbu	r2,16(r2)
  c05594:	10803fcc 	andi	r2,r2,255
  c05598:	1080100c 	andi	r2,r2,64
  c0559c:	10005726 	beq	r2,zero,c056fc <f_sync+0x1a4>
  c055a0:	e0bfff17 	ldw	r2,-4(fp)
  c055a4:	10800403 	ldbu	r2,16(r2)
  c055a8:	10803fcc 	andi	r2,r2,255
  c055ac:	1080201c 	xori	r2,r2,128
  c055b0:	10bfe004 	addi	r2,r2,-128
  c055b4:	1000150e 	bge	r2,zero,c0560c <f_sync+0xb4>
  c055b8:	e0bffe17 	ldw	r2,-8(fp)
  c055bc:	10800043 	ldbu	r2,1(r2)
  c055c0:	10c03fcc 	andi	r3,r2,255
  c055c4:	e0bfff17 	ldw	r2,-4(fp)
  c055c8:	11000a04 	addi	r4,r2,40
  c055cc:	e0bfff17 	ldw	r2,-4(fp)
  c055d0:	10800717 	ldw	r2,28(r2)
  c055d4:	01c00044 	movi	r7,1
  c055d8:	100d883a 	mov	r6,r2
  c055dc:	200b883a 	mov	r5,r4
  c055e0:	1809883a 	mov	r4,r3
  c055e4:	0c003540 	call	c00354 <disk_write>
  c055e8:	10000226 	beq	r2,zero,c055f4 <f_sync+0x9c>
  c055ec:	00800044 	movi	r2,1
  c055f0:	00004306 	br	c05700 <f_sync+0x1a8>
  c055f4:	e0bfff17 	ldw	r2,-4(fp)
  c055f8:	10800403 	ldbu	r2,16(r2)
  c055fc:	10801fcc 	andi	r2,r2,127
  c05600:	1007883a 	mov	r3,r2
  c05604:	e0bfff17 	ldw	r2,-4(fp)
  c05608:	10c00405 	stb	r3,16(r2)
  c0560c:	0095d774 	movhi	r2,22365
  c05610:	e0bffc15 	stw	r2,-16(fp)
  c05614:	e0fffe17 	ldw	r3,-8(fp)
  c05618:	e0bfff17 	ldw	r2,-4(fp)
  c0561c:	10800817 	ldw	r2,32(r2)
  c05620:	100b883a 	mov	r5,r2
  c05624:	1809883a 	mov	r4,r3
  c05628:	0c009800 	call	c00980 <move_window>
  c0562c:	e0bffb15 	stw	r2,-20(fp)
  c05630:	e0bffb17 	ldw	r2,-20(fp)
  c05634:	1000311e 	bne	r2,zero,c056fc <f_sync+0x1a4>
  c05638:	e0bfff17 	ldw	r2,-4(fp)
  c0563c:	10800917 	ldw	r2,36(r2)
  c05640:	e0bffd15 	stw	r2,-12(fp)
  c05644:	e0bffd17 	ldw	r2,-12(fp)
  c05648:	108002c4 	addi	r2,r2,11
  c0564c:	e0fffd17 	ldw	r3,-12(fp)
  c05650:	18c002c4 	addi	r3,r3,11
  c05654:	18c00003 	ldbu	r3,0(r3)
  c05658:	18c00814 	ori	r3,r3,32
  c0565c:	10c00005 	stb	r3,0(r2)
  c05660:	e0bfff17 	ldw	r2,-4(fp)
  c05664:	10c00017 	ldw	r3,0(r2)
  c05668:	e0bfff17 	ldw	r2,-4(fp)
  c0566c:	10800217 	ldw	r2,8(r2)
  c05670:	100d883a 	mov	r6,r2
  c05674:	e17ffd17 	ldw	r5,-12(fp)
  c05678:	1809883a 	mov	r4,r3
  c0567c:	0c01bdc0 	call	c01bdc <st_clust>
  c05680:	e0bffd17 	ldw	r2,-12(fp)
  c05684:	10c00704 	addi	r3,r2,28
  c05688:	e0bfff17 	ldw	r2,-4(fp)
  c0568c:	10800317 	ldw	r2,12(r2)
  c05690:	100b883a 	mov	r5,r2
  c05694:	1809883a 	mov	r4,r3
  c05698:	0c005300 	call	c00530 <st_dword>
  c0569c:	e0bffd17 	ldw	r2,-12(fp)
  c056a0:	10800584 	addi	r2,r2,22
  c056a4:	e17ffc17 	ldw	r5,-16(fp)
  c056a8:	1009883a 	mov	r4,r2
  c056ac:	0c005300 	call	c00530 <st_dword>
  c056b0:	e0bffd17 	ldw	r2,-12(fp)
  c056b4:	10800484 	addi	r2,r2,18
  c056b8:	000b883a 	mov	r5,zero
  c056bc:	1009883a 	mov	r4,r2
  c056c0:	0c004d00 	call	c004d0 <st_word>
  c056c4:	e0bffe17 	ldw	r2,-8(fp)
  c056c8:	00c00044 	movi	r3,1
  c056cc:	10c00105 	stb	r3,4(r2)
  c056d0:	e0bffe17 	ldw	r2,-8(fp)
  c056d4:	1009883a 	mov	r4,r2
  c056d8:	0c00a200 	call	c00a20 <sync_fs>
  c056dc:	e0bffb15 	stw	r2,-20(fp)
  c056e0:	e0bfff17 	ldw	r2,-4(fp)
  c056e4:	10c00403 	ldbu	r3,16(r2)
  c056e8:	00bfefc4 	movi	r2,-65
  c056ec:	1884703a 	and	r2,r3,r2
  c056f0:	1007883a 	mov	r3,r2
  c056f4:	e0bfff17 	ldw	r2,-4(fp)
  c056f8:	10c00405 	stb	r3,16(r2)
  c056fc:	e0bffb17 	ldw	r2,-20(fp)
  c05700:	e037883a 	mov	sp,fp
  c05704:	dfc00117 	ldw	ra,4(sp)
  c05708:	df000017 	ldw	fp,0(sp)
  c0570c:	dec00204 	addi	sp,sp,8
  c05710:	f800283a 	ret

00c05714 <f_close>:
  c05714:	defffb04 	addi	sp,sp,-20
  c05718:	dfc00415 	stw	ra,16(sp)
  c0571c:	df000315 	stw	fp,12(sp)
  c05720:	df000304 	addi	fp,sp,12
  c05724:	e13fff15 	stw	r4,-4(fp)
  c05728:	e13fff17 	ldw	r4,-4(fp)
  c0572c:	0c055580 	call	c05558 <f_sync>
  c05730:	e0bffd15 	stw	r2,-12(fp)
  c05734:	e0bffd17 	ldw	r2,-12(fp)
  c05738:	10000a1e 	bne	r2,zero,c05764 <f_close+0x50>
  c0573c:	e0bfff17 	ldw	r2,-4(fp)
  c05740:	e0fffe04 	addi	r3,fp,-8
  c05744:	180b883a 	mov	r5,r3
  c05748:	1009883a 	mov	r4,r2
  c0574c:	0c045880 	call	c04588 <validate>
  c05750:	e0bffd15 	stw	r2,-12(fp)
  c05754:	e0bffd17 	ldw	r2,-12(fp)
  c05758:	1000021e 	bne	r2,zero,c05764 <f_close+0x50>
  c0575c:	e0bfff17 	ldw	r2,-4(fp)
  c05760:	10000015 	stw	zero,0(r2)
  c05764:	e0bffd17 	ldw	r2,-12(fp)
  c05768:	e037883a 	mov	sp,fp
  c0576c:	dfc00117 	ldw	ra,4(sp)
  c05770:	df000017 	ldw	fp,0(sp)
  c05774:	dec00204 	addi	sp,sp,8
  c05778:	f800283a 	ret

00c0577c <f_lseek>:
  c0577c:	defff504 	addi	sp,sp,-44
  c05780:	dfc00a15 	stw	ra,40(sp)
  c05784:	df000915 	stw	fp,36(sp)
  c05788:	dc000815 	stw	r16,32(sp)
  c0578c:	df000904 	addi	fp,sp,36
  c05790:	e13ffd15 	stw	r4,-12(fp)
  c05794:	e17ffe15 	stw	r5,-8(fp)
  c05798:	e0bffd17 	ldw	r2,-12(fp)
  c0579c:	e0fffc04 	addi	r3,fp,-16
  c057a0:	180b883a 	mov	r5,r3
  c057a4:	1009883a 	mov	r4,r2
  c057a8:	0c045880 	call	c04588 <validate>
  c057ac:	e0bff715 	stw	r2,-36(fp)
  c057b0:	e0bff717 	ldw	r2,-36(fp)
  c057b4:	1000041e 	bne	r2,zero,c057c8 <f_lseek+0x4c>
  c057b8:	e0bffd17 	ldw	r2,-12(fp)
  c057bc:	10800443 	ldbu	r2,17(r2)
  c057c0:	10803fcc 	andi	r2,r2,255
  c057c4:	e0bff715 	stw	r2,-36(fp)
  c057c8:	e0bff717 	ldw	r2,-36(fp)
  c057cc:	10000226 	beq	r2,zero,c057d8 <f_lseek+0x5c>
  c057d0:	e0bff717 	ldw	r2,-36(fp)
  c057d4:	0000f506 	br	c05bac <f_lseek+0x430>
  c057d8:	e0bffd17 	ldw	r2,-12(fp)
  c057dc:	10c00317 	ldw	r3,12(r2)
  c057e0:	e0bffe17 	ldw	r2,-8(fp)
  c057e4:	1880082e 	bgeu	r3,r2,c05808 <f_lseek+0x8c>
  c057e8:	e0bffd17 	ldw	r2,-12(fp)
  c057ec:	10800403 	ldbu	r2,16(r2)
  c057f0:	10803fcc 	andi	r2,r2,255
  c057f4:	1080008c 	andi	r2,r2,2
  c057f8:	1000031e 	bne	r2,zero,c05808 <f_lseek+0x8c>
  c057fc:	e0bffd17 	ldw	r2,-12(fp)
  c05800:	10800317 	ldw	r2,12(r2)
  c05804:	e0bffe15 	stw	r2,-8(fp)
  c05808:	e0bffd17 	ldw	r2,-12(fp)
  c0580c:	10800517 	ldw	r2,20(r2)
  c05810:	e0bffa15 	stw	r2,-24(fp)
  c05814:	e03ff915 	stw	zero,-28(fp)
  c05818:	e0bffd17 	ldw	r2,-12(fp)
  c0581c:	e0fff917 	ldw	r3,-28(fp)
  c05820:	10c00515 	stw	r3,20(r2)
  c05824:	e0bffe17 	ldw	r2,-8(fp)
  c05828:	10009726 	beq	r2,zero,c05a88 <f_lseek+0x30c>
  c0582c:	e0bffc17 	ldw	r2,-16(fp)
  c05830:	1080028b 	ldhu	r2,10(r2)
  c05834:	10bfffcc 	andi	r2,r2,65535
  c05838:	1004927a 	slli	r2,r2,9
  c0583c:	e0bffb15 	stw	r2,-20(fp)
  c05840:	e0bffa17 	ldw	r2,-24(fp)
  c05844:	10001c26 	beq	r2,zero,c058b8 <f_lseek+0x13c>
  c05848:	e0bffe17 	ldw	r2,-8(fp)
  c0584c:	10bfffc4 	addi	r2,r2,-1
  c05850:	e17ffb17 	ldw	r5,-20(fp)
  c05854:	1009883a 	mov	r4,r2
  c05858:	0c0e2400 	call	c0e240 <__udivsi3>
  c0585c:	1021883a 	mov	r16,r2
  c05860:	e0bffa17 	ldw	r2,-24(fp)
  c05864:	10bfffc4 	addi	r2,r2,-1
  c05868:	e17ffb17 	ldw	r5,-20(fp)
  c0586c:	1009883a 	mov	r4,r2
  c05870:	0c0e2400 	call	c0e240 <__udivsi3>
  c05874:	80801036 	bltu	r16,r2,c058b8 <f_lseek+0x13c>
  c05878:	e0bffa17 	ldw	r2,-24(fp)
  c0587c:	10ffffc4 	addi	r3,r2,-1
  c05880:	e0bffb17 	ldw	r2,-20(fp)
  c05884:	0085c83a 	sub	r2,zero,r2
  c05888:	1886703a 	and	r3,r3,r2
  c0588c:	e0bffd17 	ldw	r2,-12(fp)
  c05890:	10c00515 	stw	r3,20(r2)
  c05894:	e0bffd17 	ldw	r2,-12(fp)
  c05898:	10800517 	ldw	r2,20(r2)
  c0589c:	e0fffe17 	ldw	r3,-8(fp)
  c058a0:	1885c83a 	sub	r2,r3,r2
  c058a4:	e0bffe15 	stw	r2,-8(fp)
  c058a8:	e0bffd17 	ldw	r2,-12(fp)
  c058ac:	10800617 	ldw	r2,24(r2)
  c058b0:	e0bff815 	stw	r2,-32(fp)
  c058b4:	00002006 	br	c05938 <f_lseek+0x1bc>
  c058b8:	e0bffd17 	ldw	r2,-12(fp)
  c058bc:	10800217 	ldw	r2,8(r2)
  c058c0:	e0bff815 	stw	r2,-32(fp)
  c058c4:	e0bff817 	ldw	r2,-32(fp)
  c058c8:	1000181e 	bne	r2,zero,c0592c <f_lseek+0x1b0>
  c058cc:	e0bffd17 	ldw	r2,-12(fp)
  c058d0:	000b883a 	mov	r5,zero
  c058d4:	1009883a 	mov	r4,r2
  c058d8:	0c012d00 	call	c012d0 <create_chain>
  c058dc:	e0bff815 	stw	r2,-32(fp)
  c058e0:	e0bff817 	ldw	r2,-32(fp)
  c058e4:	10800058 	cmpnei	r2,r2,1
  c058e8:	1000051e 	bne	r2,zero,c05900 <f_lseek+0x184>
  c058ec:	e0bffd17 	ldw	r2,-12(fp)
  c058f0:	00c00084 	movi	r3,2
  c058f4:	10c00445 	stb	r3,17(r2)
  c058f8:	00800084 	movi	r2,2
  c058fc:	0000ab06 	br	c05bac <f_lseek+0x430>
  c05900:	e0bff817 	ldw	r2,-32(fp)
  c05904:	10bfffd8 	cmpnei	r2,r2,-1
  c05908:	1000051e 	bne	r2,zero,c05920 <f_lseek+0x1a4>
  c0590c:	e0bffd17 	ldw	r2,-12(fp)
  c05910:	00c00044 	movi	r3,1
  c05914:	10c00445 	stb	r3,17(r2)
  c05918:	00800044 	movi	r2,1
  c0591c:	0000a306 	br	c05bac <f_lseek+0x430>
  c05920:	e0bffd17 	ldw	r2,-12(fp)
  c05924:	e0fff817 	ldw	r3,-32(fp)
  c05928:	10c00215 	stw	r3,8(r2)
  c0592c:	e0bffd17 	ldw	r2,-12(fp)
  c05930:	e0fff817 	ldw	r3,-32(fp)
  c05934:	10c00615 	stw	r3,24(r2)
  c05938:	e0bff817 	ldw	r2,-32(fp)
  c0593c:	10005226 	beq	r2,zero,c05a88 <f_lseek+0x30c>
  c05940:	00003406 	br	c05a14 <f_lseek+0x298>
  c05944:	e0fffe17 	ldw	r3,-8(fp)
  c05948:	e0bffb17 	ldw	r2,-20(fp)
  c0594c:	1885c83a 	sub	r2,r3,r2
  c05950:	e0bffe15 	stw	r2,-8(fp)
  c05954:	e0bffd17 	ldw	r2,-12(fp)
  c05958:	10c00517 	ldw	r3,20(r2)
  c0595c:	e0bffb17 	ldw	r2,-20(fp)
  c05960:	1887883a 	add	r3,r3,r2
  c05964:	e0bffd17 	ldw	r2,-12(fp)
  c05968:	10c00515 	stw	r3,20(r2)
  c0596c:	e0bffd17 	ldw	r2,-12(fp)
  c05970:	10800403 	ldbu	r2,16(r2)
  c05974:	10803fcc 	andi	r2,r2,255
  c05978:	1080008c 	andi	r2,r2,2
  c0597c:	10000926 	beq	r2,zero,c059a4 <f_lseek+0x228>
  c05980:	e0bffd17 	ldw	r2,-12(fp)
  c05984:	e17ff817 	ldw	r5,-32(fp)
  c05988:	1009883a 	mov	r4,r2
  c0598c:	0c012d00 	call	c012d0 <create_chain>
  c05990:	e0bff815 	stw	r2,-32(fp)
  c05994:	e0bff817 	ldw	r2,-32(fp)
  c05998:	1000071e 	bne	r2,zero,c059b8 <f_lseek+0x23c>
  c0599c:	e03ffe15 	stw	zero,-8(fp)
  c059a0:	00001f06 	br	c05a20 <f_lseek+0x2a4>
  c059a4:	e0bffd17 	ldw	r2,-12(fp)
  c059a8:	e17ff817 	ldw	r5,-32(fp)
  c059ac:	1009883a 	mov	r4,r2
  c059b0:	0c00c200 	call	c00c20 <get_fat>
  c059b4:	e0bff815 	stw	r2,-32(fp)
  c059b8:	e0bff817 	ldw	r2,-32(fp)
  c059bc:	10bfffd8 	cmpnei	r2,r2,-1
  c059c0:	1000051e 	bne	r2,zero,c059d8 <f_lseek+0x25c>
  c059c4:	e0bffd17 	ldw	r2,-12(fp)
  c059c8:	00c00044 	movi	r3,1
  c059cc:	10c00445 	stb	r3,17(r2)
  c059d0:	00800044 	movi	r2,1
  c059d4:	00007506 	br	c05bac <f_lseek+0x430>
  c059d8:	e0bff817 	ldw	r2,-32(fp)
  c059dc:	108000b0 	cmpltui	r2,r2,2
  c059e0:	1000041e 	bne	r2,zero,c059f4 <f_lseek+0x278>
  c059e4:	e0bffc17 	ldw	r2,-16(fp)
  c059e8:	10800617 	ldw	r2,24(r2)
  c059ec:	e0fff817 	ldw	r3,-32(fp)
  c059f0:	18800536 	bltu	r3,r2,c05a08 <f_lseek+0x28c>
  c059f4:	e0bffd17 	ldw	r2,-12(fp)
  c059f8:	00c00084 	movi	r3,2
  c059fc:	10c00445 	stb	r3,17(r2)
  c05a00:	00800084 	movi	r2,2
  c05a04:	00006906 	br	c05bac <f_lseek+0x430>
  c05a08:	e0bffd17 	ldw	r2,-12(fp)
  c05a0c:	e0fff817 	ldw	r3,-32(fp)
  c05a10:	10c00615 	stw	r3,24(r2)
  c05a14:	e0bffe17 	ldw	r2,-8(fp)
  c05a18:	e0fffb17 	ldw	r3,-20(fp)
  c05a1c:	18bfc936 	bltu	r3,r2,c05944 <__alt_data_end+0xffb85944>
  c05a20:	e0bffd17 	ldw	r2,-12(fp)
  c05a24:	10c00517 	ldw	r3,20(r2)
  c05a28:	e0bffe17 	ldw	r2,-8(fp)
  c05a2c:	1887883a 	add	r3,r3,r2
  c05a30:	e0bffd17 	ldw	r2,-12(fp)
  c05a34:	10c00515 	stw	r3,20(r2)
  c05a38:	e0bffe17 	ldw	r2,-8(fp)
  c05a3c:	10807fcc 	andi	r2,r2,511
  c05a40:	10001126 	beq	r2,zero,c05a88 <f_lseek+0x30c>
  c05a44:	e0bffc17 	ldw	r2,-16(fp)
  c05a48:	e17ff817 	ldw	r5,-32(fp)
  c05a4c:	1009883a 	mov	r4,r2
  c05a50:	0c00ba00 	call	c00ba0 <clst2sect>
  c05a54:	e0bff915 	stw	r2,-28(fp)
  c05a58:	e0bff917 	ldw	r2,-28(fp)
  c05a5c:	1000051e 	bne	r2,zero,c05a74 <f_lseek+0x2f8>
  c05a60:	e0bffd17 	ldw	r2,-12(fp)
  c05a64:	00c00084 	movi	r3,2
  c05a68:	10c00445 	stb	r3,17(r2)
  c05a6c:	00800084 	movi	r2,2
  c05a70:	00004e06 	br	c05bac <f_lseek+0x430>
  c05a74:	e0bffe17 	ldw	r2,-8(fp)
  c05a78:	1004d27a 	srli	r2,r2,9
  c05a7c:	e0fff917 	ldw	r3,-28(fp)
  c05a80:	1885883a 	add	r2,r3,r2
  c05a84:	e0bff915 	stw	r2,-28(fp)
  c05a88:	e0bffd17 	ldw	r2,-12(fp)
  c05a8c:	10800517 	ldw	r2,20(r2)
  c05a90:	e0fffd17 	ldw	r3,-12(fp)
  c05a94:	18c00317 	ldw	r3,12(r3)
  c05a98:	18800a2e 	bgeu	r3,r2,c05ac4 <f_lseek+0x348>
  c05a9c:	e0bffd17 	ldw	r2,-12(fp)
  c05aa0:	10c00517 	ldw	r3,20(r2)
  c05aa4:	e0bffd17 	ldw	r2,-12(fp)
  c05aa8:	10c00315 	stw	r3,12(r2)
  c05aac:	e0bffd17 	ldw	r2,-12(fp)
  c05ab0:	10800403 	ldbu	r2,16(r2)
  c05ab4:	10801014 	ori	r2,r2,64
  c05ab8:	1007883a 	mov	r3,r2
  c05abc:	e0bffd17 	ldw	r2,-12(fp)
  c05ac0:	10c00405 	stb	r3,16(r2)
  c05ac4:	e0bffd17 	ldw	r2,-12(fp)
  c05ac8:	10800517 	ldw	r2,20(r2)
  c05acc:	10807fcc 	andi	r2,r2,511
  c05ad0:	10003526 	beq	r2,zero,c05ba8 <f_lseek+0x42c>
  c05ad4:	e0bffd17 	ldw	r2,-12(fp)
  c05ad8:	10c00717 	ldw	r3,28(r2)
  c05adc:	e0bff917 	ldw	r2,-28(fp)
  c05ae0:	18803126 	beq	r3,r2,c05ba8 <f_lseek+0x42c>
  c05ae4:	e0bffd17 	ldw	r2,-12(fp)
  c05ae8:	10800403 	ldbu	r2,16(r2)
  c05aec:	10803fcc 	andi	r2,r2,255
  c05af0:	1080201c 	xori	r2,r2,128
  c05af4:	10bfe004 	addi	r2,r2,-128
  c05af8:	1000180e 	bge	r2,zero,c05b5c <f_lseek+0x3e0>
  c05afc:	e0bffc17 	ldw	r2,-16(fp)
  c05b00:	10800043 	ldbu	r2,1(r2)
  c05b04:	10c03fcc 	andi	r3,r2,255
  c05b08:	e0bffd17 	ldw	r2,-12(fp)
  c05b0c:	11000a04 	addi	r4,r2,40
  c05b10:	e0bffd17 	ldw	r2,-12(fp)
  c05b14:	10800717 	ldw	r2,28(r2)
  c05b18:	01c00044 	movi	r7,1
  c05b1c:	100d883a 	mov	r6,r2
  c05b20:	200b883a 	mov	r5,r4
  c05b24:	1809883a 	mov	r4,r3
