
sd_attempt.elf:     file format elf32-littlenios2
sd_attempt.elf
architecture: nios2:r1, flags 0x00000112:
EXEC_P, HAS_SYMS, D_PAGED
start address 0x00040230

Program Header:
    LOAD off    0x00001000 vaddr 0x00040000 paddr 0x00040000 align 2**12
         filesz 0x00000020 memsz 0x00000020 flags r-x
    LOAD off    0x00001020 vaddr 0x00040020 paddr 0x00040020 align 2**12
         filesz 0x0000a098 memsz 0x0000a098 flags r-x
    LOAD off    0x0000b0b8 vaddr 0x0004a0b8 paddr 0x0004a3a0 align 2**12
         filesz 0x000002e8 memsz 0x000002e8 flags rw-
    LOAD off    0x0000b688 vaddr 0x0004a688 paddr 0x0004a688 align 2**12
         filesz 0x00000000 memsz 0x00000160 flags rw-

Sections:
Idx Name          Size      VMA       LMA       File off  Algn
  0 .entry        00000020  00040000  00040000  00001000  2**5
                  CONTENTS, ALLOC, LOAD, READONLY, CODE
  1 .exceptions   00000210  00040020  00040020  00001020  2**2
                  CONTENTS, ALLOC, LOAD, READONLY, CODE
  2 .text         00009620  00040230  00040230  00001230  2**2
                  CONTENTS, ALLOC, LOAD, READONLY, CODE
  3 .rodata       00000868  00049850  00049850  0000a850  2**2
                  CONTENTS, ALLOC, LOAD, READONLY, DATA
  4 .rwdata       000002e8  0004a0b8  0004a3a0  0000b0b8  2**2
                  CONTENTS, ALLOC, LOAD, DATA, SMALL_DATA
  5 .bss          00000160  0004a688  0004a688  0000b688  2**2
                  ALLOC, SMALL_DATA
  6 .onchip_mem   00000000  0004a7e8  0004a7e8  0000b3a0  2**0
                  CONTENTS
  7 .comment      00000023  00000000  00000000  0000b3a0  2**0
                  CONTENTS, READONLY
  8 .debug_aranges 00000a40  00000000  00000000  0000b3c8  2**3
                  CONTENTS, READONLY, DEBUGGING
  9 .debug_info   00011391  00000000  00000000  0000be08  2**0
                  CONTENTS, READONLY, DEBUGGING
 10 .debug_abbrev 000056e7  00000000  00000000  0001d199  2**0
                  CONTENTS, READONLY, DEBUGGING
 11 .debug_line   0000694b  00000000  00000000  00022880  2**0
                  CONTENTS, READONLY, DEBUGGING
 12 .debug_frame  00001c00  00000000  00000000  000291cc  2**2
                  CONTENTS, READONLY, DEBUGGING
 13 .debug_str    000036b7  00000000  00000000  0002adcc  2**0
                  CONTENTS, READONLY, DEBUGGING
 14 .debug_loc    00005db3  00000000  00000000  0002e483  2**0
                  CONTENTS, READONLY, DEBUGGING
 15 .debug_alt_sim_info 00000040  00000000  00000000  00034238  2**2
                  CONTENTS, READONLY, DEBUGGING
 16 .debug_ranges 00000780  00000000  00000000  00034278  2**3
                  CONTENTS, READONLY, DEBUGGING
 17 .thread_model 00000003  00000000  00000000  000373ea  2**0
                  CONTENTS, READONLY
 18 .cpu          00000003  00000000  00000000  000373ed  2**0
                  CONTENTS, READONLY
 19 .qsys         00000001  00000000  00000000  000373f0  2**0
                  CONTENTS, READONLY
 20 .simulation_enabled 00000001  00000000  00000000  000373f1  2**0
                  CONTENTS, READONLY
 21 .sysid_hash   00000004  00000000  00000000  000373f2  2**0
                  CONTENTS, READONLY
 22 .sysid_base   00000004  00000000  00000000  000373f6  2**0
                  CONTENTS, READONLY
 23 .sysid_time   00000004  00000000  00000000  000373fa  2**0
                  CONTENTS, READONLY
 24 .stderr_dev   00000009  00000000  00000000  000373fe  2**0
                  CONTENTS, READONLY
 25 .stdin_dev    00000009  00000000  00000000  00037407  2**0
                  CONTENTS, READONLY
 26 .stdout_dev   00000009  00000000  00000000  00037410  2**0
                  CONTENTS, READONLY
 27 .sopc_system_name 00000010  00000000  00000000  00037419  2**0
                  CONTENTS, READONLY
 28 .quartus_project_dir 0000003e  00000000  00000000  00037429  2**0
                  CONTENTS, READONLY
 29 .jdi          00004ec6  00000000  00000000  00037467  2**0
                  CONTENTS, READONLY
 30 .sopcinfo     00058119  00000000  00000000  0003c32d  2**0
                  CONTENTS, READONLY
SYMBOL TABLE:
00040000 l    d  .entry	00000000 .entry
00040020 l    d  .exceptions	00000000 .exceptions
00040230 l    d  .text	00000000 .text
00049850 l    d  .rodata	00000000 .rodata
0004a0b8 l    d  .rwdata	00000000 .rwdata
0004a688 l    d  .bss	00000000 .bss
0004a7e8 l    d  .onchip_mem	00000000 .onchip_mem
00000000 l    d  .comment	00000000 .comment
00000000 l    d  .debug_aranges	00000000 .debug_aranges
00000000 l    d  .debug_info	00000000 .debug_info
00000000 l    d  .debug_abbrev	00000000 .debug_abbrev
00000000 l    d  .debug_line	00000000 .debug_line
00000000 l    d  .debug_frame	00000000 .debug_frame
00000000 l    d  .debug_str	00000000 .debug_str
00000000 l    d  .debug_loc	00000000 .debug_loc
00000000 l    d  .debug_alt_sim_info	00000000 .debug_alt_sim_info
00000000 l    d  .debug_ranges	00000000 .debug_ranges
00000000 l    df *ABS*	00000000 ../sd_attempt_bsp//obj/HAL/src/crt0.o
00040268 l       .text	00000000 alt_after_alt_main
00000000 l    df *ABS*	00000000 alt_irq_handler.c
00000000 l    df *ABS*	00000000 alt_instruction_exception_entry.c
00000000 l    df *ABS*	00000000 main.c
00000000 l    df *ABS*	00000000 FatFileSystem.c
00000000 l    df *ABS*	00000000 FatInternal.c
00000000 l    df *ABS*	00000000 debug.c
00000000 l    df *ABS*	00000000 crc16.c
000499e8 l     O .rodata	00000200 crc16tab
00000000 l    df *ABS*	00000000 crc7.c
00049be8 l     O .rodata	00000100 crc7_syndrome_table
00000000 l    df *ABS*	00000000 sd_hal.c
00000000 l    df *ABS*	00000000 sd_lib.c
0004a6b0 l     O .bss	00000038 gSdInfo
00000000 l    df *ABS*	00000000 sd_protocol.c
00000000 l    df *ABS*	00000000 lib2-divmod.c
00000000 l    df *ABS*	00000000 lib2-mul.c
00000000 l    df *ABS*	00000000 divsf3.c
00000000 l    df *ABS*	00000000 mulsf3.c
00000000 l    df *ABS*	00000000 floatunsisf.c
00000000 l    df *ABS*	00000000 divdf3.c
00000000 l    df *ABS*	00000000 extendsfdf2.c
00000000 l    df *ABS*	00000000 truncdfsf2.c
00000000 l    df *ABS*	00000000 libgcc2.c
00000000 l    df *ABS*	00000000 libgcc2.c
00000000 l    df *ABS*	00000000 malloc.c
00000000 l    df *ABS*	00000000 memcpy.c
00000000 l    df *ABS*	00000000 memset.c
00000000 l    df *ABS*	00000000 nano-mallocr.c
00000000 l    df *ABS*	00000000 nano-mallocr.c
00000000 l    df *ABS*	00000000 printf.c
00000000 l    df *ABS*	00000000 putchar.c
00000000 l    df *ABS*	00000000 puts.c
00000000 l    df *ABS*	00000000 sbrkr.c
00000000 l    df *ABS*	00000000 sprintf.c
00000000 l    df *ABS*	00000000 strcasecmp.c
00000000 l    df *ABS*	00000000 strlen.c
00000000 l    df *ABS*	00000000 vfprintf.c
0004703c l     F .text	0000006c print_repeat
00000000 l    df *ABS*	00000000 vfprintf.c
000475f0 l     F .text	0000006c print_repeat
00000000 l    df *ABS*	00000000 vsnprintf.c
00000000 l    df *ABS*	00000000 ctype_.c
00049f09 l     O .rodata	00000180 _ctype_b
00000000 l    df *ABS*	00000000 fvwrite_small_dev.c
00000000 l    df *ABS*	00000000 fvwrite_small_str.c
00000000 l    df *ABS*	00000000 impure.c
0004a0b8 l     O .rwdata	000000e0 impure_data
00000000 l    df *ABS*	00000000 int_errno.c
00000000 l    df *ABS*	00000000 memmove.c
00000000 l    df *ABS*	00000000 putc.c
00000000 l    df *ABS*	00000000 writer.c
00000000 l    df *ABS*	00000000 alt_load.c
00047f58 l     F .text	00000068 alt_load_section
00000000 l    df *ABS*	00000000 alt_main.c
00000000 l    df *ABS*	00000000 alt_sbrk.c
0004a378 l     O .rwdata	00000004 heap_end
00000000 l    df *ABS*	00000000 alt_tick.c
00000000 l    df *ABS*	00000000 alt_usleep.c
00000000 l    df *ABS*	00000000 alt_write.c
00048334 l     F .text	0000003c alt_get_errno
00000000 l    df *ABS*	00000000 alt_sys_init.c
00048470 l     F .text	00000034 alt_dev_reg
0004a198 l     O .rwdata	0000002c jtag_uart
00000000 l    df *ABS*	00000000 altera_avalon_jtag_uart_fd.c
00000000 l    df *ABS*	00000000 altera_avalon_jtag_uart_read.c
00000000 l    df *ABS*	00000000 altera_avalon_jtag_uart_write.c
00000000 l    df *ABS*	00000000 altera_avalon_timer_sc.c
0004876c l     F .text	00000078 alt_avalon_timer_sc_irq
00000000 l    df *ABS*	00000000 alt_busy_sleep.c
00000000 l    df *ABS*	00000000 alt_close.c
000489b8 l     F .text	0000003c alt_get_errno
00000000 l    df *ABS*	00000000 alt_dcache_flush_all.c
00000000 l    df *ABS*	00000000 alt_dev.c
00048aec l     F .text	0000002c alt_dev_null_write
00000000 l    df *ABS*	00000000 alt_dev_llist_insert.c
00048b18 l     F .text	0000003c alt_get_errno
00000000 l    df *ABS*	00000000 alt_errno.c
00000000 l    df *ABS*	00000000 alt_icache_flush_all.c
00000000 l    df *ABS*	00000000 alt_iic.c
00000000 l    df *ABS*	00000000 alt_iic_isr_register.c
00000000 l    df *ABS*	00000000 alt_io_redirect.c
00048eb8 l     F .text	000000e4 alt_open_fd
00000000 l    df *ABS*	00000000 alt_irq_vars.c
00000000 l    df *ABS*	00000000 alt_open.c
00049018 l     F .text	0000003c alt_get_errno
00049054 l     F .text	000000ec alt_file_locked
00000000 l    df *ABS*	00000000 alt_release_fd.c
00000000 l    df *ABS*	00000000 altera_nios2_gen2_irq.c
00000000 l    df *ABS*	00000000 alt_find_dev.c
00000000 l    df *ABS*	00000000 alt_find_file.c
00000000 l    df *ABS*	00000000 alt_get_fd.c
00000000 l    df *ABS*	00000000 exit.c
00000000 l    df *ABS*	00000000 memcmp.c
00000000 l    df *ABS*	00000000 __call_atexit.c
00000000 l    df *ABS*	00000000 alt_exit.c
0004a6ac g     O .bss	00000004 alt_instruction_exception_handler
00046dec g     F .text	0000001c putchar
00048044 g     F .text	0000006c alt_main
00046e08 g     F .text	00000080 _puts_r
000406dc g     F .text	0000006c Fat_FileBrowseBegin
0004a6e8 g     O .bss	00000100 alt_irq
0004a3a0 g       *ABS*	00000000 __flash_rwdata_start
00043b5c g     F .text	00000080 SDLIB_WriteBlock512
0004a7e8 g       *ABS*	00000000 __alt_heap_start
00046d98 g     F .text	0000004c printf
00044fec g     F .text	000001a8 SD_CMD24
00040748 g     F .text	0000042c Fat_FileBrowseNext
00045464 g     F .text	00000440 .hidden __divsf3
00042c98 g     F .text	0000002c SDHAL_IsSupport4Bits
00042bd8 g     F .text	00000050 crc7_byte
00041f64 g     F .text	000000ac fatIsValidDir
00047df4 g     F .text	00000060 memmove
00049320 g     F .text	00000024 altera_nios2_gen2_irq_init
00047d4c g     F .text	000000a8 __sfvwrite_small_str
00040000 g     F .entry	0000000c __reset
00042e2c g     F .text	00000214 SDHAL_GetResponse
00040020 g       *ABS*	00000000 __flash_exceptions_start
0004a690 g     O .bss	00000004 errno
00041960 g     F .text	00000180 fatNextCluster
0004a698 g     O .bss	00000004 alt_argv
0005236c g       *ABS*	00000000 _gp
00048304 g     F .text	00000030 usleep
0004a1ec g     O .rwdata	00000180 alt_fd_list
00046de4 g     F .text	00000008 _putchar_r
00049344 g     F .text	00000090 alt_find_dev
00046ad8 g     F .text	00000028 memcpy
00048f9c g     F .text	0000007c alt_io_redirect
00040e28 g     F .text	000000b0 Fat_FileExist
00046e88 g     F .text	00000014 puts
000495a0 g     F .text	0000009c alt_exception_cause_generated_bad_addr
00044164 g     F .text	00000198 SD_CMD2
000485ec g     F .text	000000ec altera_avalon_jtag_uart_read
00046ab0 g     F .text	00000014 malloc
00046d5c g     F .text	0000003c _printf_r
00045380 g     F .text	00000064 .hidden __udivsi3
00044cc4 g     F .text	00000180 SD_ACMD42
00047c60 g     F .text	00000034 vsnprintf
00044818 g     F .text	00000180 SD_CMD7
00046e9c g     F .text	00000050 _sbrk_r
00044998 g     F .text	000001a0 SD_CMD16
00045214 g     F .text	00000074 ArrayToU32
0004a394 g     O .rwdata	00000004 alt_max_fd
000424d8 g     F .text	00000338 fatMount
00046794 g     F .text	00000110 .hidden __extendsfdf2
00042010 g     F .text	00000048 fatIsUnusedDir
0004a370 g     O .rwdata	00000004 _global_impure_ptr
0004a7e8 g       *ABS*	00000000 __bss_end
00048dc8 g     F .text	000000f0 alt_iic_isr_register
000481fc g     F .text	00000108 alt_tick
00042810 g     F .text	0000003c SD_ReadBlock512
00048d7c g     F .text	0000004c alt_ic_irq_enabled
00040ed8 g     F .text	0000012c Fat_FileOpen
00048160 g     F .text	0000009c alt_alarm_stop
0004a6a8 g     O .bss	00000004 alt_irq_active
00041c68 g     F .text	000001f8 fatDelClusterList
00040000 g       *ABS*	00000000 __alt_mem_onchip_mem
000400fc g     F .exceptions	000000d4 alt_irq_handler
0004a1c4 g     O .rwdata	00000028 alt_dev_null
00042d34 g     F .text	000000f8 SDHAL_SendCmd
00048acc g     F .text	00000020 alt_dcache_flush_all
00043040 g     F .text	000004c8 SDHAL_ReadData
0004a3a0 g       *ABS*	00000000 __ram_rwdata_end
0004a38c g     O .rwdata	00000008 alt_dev_list
000405dc g     F .text	00000044 Fat_Mount
00048370 g     F .text	00000100 write
00047ea8 g     F .text	00000058 _putc_r
0004a0b8 g       *ABS*	00000000 __ram_rodata_end
000429b0 g     F .text	0000006c myprintf
000453e4 g     F .text	00000058 .hidden __umodsi3
0004a7e8 g       *ABS*	00000000 end
000401d0 g     F .exceptions	00000060 alt_instruction_exception_entry
00050000 g       *ABS*	00000000 __alt_stack_pointer
000487e4 g     F .text	0000007c alt_avalon_timer_sc_init
00046a4c g     F .text	00000064 .hidden __clzsi2
000486d8 g     F .text	00000094 altera_avalon_jtag_uart_write
000415cc g     F .text	00000048 Fat_FileClose
00040b74 g     F .text	0000006c Fat_FileCount
0004765c g     F .text	0000052c ___vfprintf_internal_r
00046eec g     F .text	00000064 _sprintf_r
00046b20 g     F .text	000000e4 _free_r
0004968c g     F .text	00000190 __call_exitprocs
00040230 g     F .text	0000003c _start
0004a6a0 g     O .bss	00000004 _alt_tick_rate
0004a6a4 g     O .bss	00000004 _alt_nticks
00043c30 g     F .text	0000008c SD_CMD0
000484dc g     F .text	00000050 alt_sys_init
000436e8 g     F .text	00000064 SDHAL_DummyClock
00041004 g     F .text	00000044 Fat_FileSize
00042b34 g     F .text	000000a4 crc16
00043bdc g     F .text	0000002c SD_Init
0004543c g     F .text	00000028 .hidden __mulsi3
0004a0b8 g       *ABS*	00000000 __ram_rwdata_start
00049850 g       *ABS*	00000000 __ram_rodata_start
00046fc8 g     F .text	00000058 strcasecmp
0004852c g     F .text	00000060 altera_avalon_jtag_uart_read_fd
000494dc g     F .text	000000c4 alt_get_fd
00048860 g     F .text	00000158 alt_busy_sleep
00041048 g     F .text	00000484 Fat_FileRead
0004965c g     F .text	00000030 memcmp
0004a7e8 g       *ABS*	00000000 __alt_stack_base
000423c8 g     F .text	00000110 fatFindUnusedDirectory
00042cc4 g     F .text	00000070 SDHAL_Init
00045dc4 g     F .text	000009d0 .hidden __divdf3
00047ba4 g     F .text	000000bc _vsnprintf_r
00041614 g     F .text	000001d0 Fat_SpeedTest
000493d4 g     F .text	00000108 alt_find_file
00048b54 g     F .text	000000a4 alt_dev_llist_insert
000480b0 g     F .text	000000b0 sbrk
000470a8 g     F .text	0000052c ___svfprintf_internal_r
00047c94 g     F .text	000000b8 __sfvwrite_small_dev
0004231c g     F .text	000000ac fatFindDirectory
0004a688 g       *ABS*	00000000 __bss_start
00046b00 g     F .text	00000020 memset
0004051c g     F .text	000000c0 main
0004228c g     F .text	00000090 fatReadSecter
0004a69c g     O .bss	00000004 alt_envp
00042a1c g     F .text	00000088 myprintf_hexarray
0004858c g     F .text	00000060 altera_avalon_jtag_uart_write_fd
00042058 g     F .text	000001ac fatDump
00050000 g       *ABS*	00000000 __alt_heap_limit
000468a4 g     F .text	000001a8 .hidden __truncdfsf2
00046c04 g     F .text	00000158 _malloc_r
000451d4 g     F .text	00000040 SD_WriteData
0004a398 g     O .rwdata	00000004 alt_errno
00041e60 g     F .text	00000060 fatDumpDate
00042c28 g     F .text	00000070 crc7
00047e54 g     F .text	00000054 putc
000414cc g     F .text	00000100 Fat_FileSeek
00045288 g     F .text	00000084 .hidden __divsi3
00044b38 g     F .text	0000018c SD_ACMD6
000458a4 g     F .text	00000430 .hidden __mulsf3
0004284c g     F .text	0000003c SD_WriteBlock512
00049850 g       *ABS*	00000000 __flash_rodata_start
00042204 g     F .text	00000088 fatArray2Value
00043c08 g     F .text	00000028 SD_IsSupport4Bits
00041894 g     F .text	000000cc fat32ClusterType
000484a4 g     F .text	00000038 alt_irq_init
0004929c g     F .text	00000084 alt_release_fd
00046f50 g     F .text	00000078 sprintf
00049d04 g     O .rodata	00000100 .hidden __clz_tab
0004297c g     F .text	00000034 debug_output
00043fc8 g     F .text	0000019c SD_ACMD41
00047f00 g     F .text	00000058 _write_r
00043cbc g     F .text	0000018c SD_CMD8
00040c74 g     F .text	000001b4 fatComposeShortFilename
0004a374 g     O .rwdata	00000004 _impure_ptr
0004a694 g     O .bss	00000004 alt_argc
00040670 g     F .text	0000006c Fat_Type
00042aa4 g     F .text	00000090 myprintf_dwordarray
00040020 g       .exceptions	00000000 alt_irq_entry
0004026c g     F .text	000002b0 Fat_Test
000417e4 g     F .text	000000b0 fat16ClusterType
0004a384 g     O .rwdata	00000008 alt_fs_list
00043e48 g     F .text	00000180 SD_CMD55
000475d4 g     F .text	0000001c __vfprintf_internal_unused
00044658 g     F .text	000001c0 SD_CMD10
00040020 g       *ABS*	00000000 __ram_exceptions_start
00040be0 g     F .text	00000094 fatSameLongFilename
00048c18 g     F .text	00000050 alt_ic_isr_register
0004a3a0 g       *ABS*	00000000 _edata
00041ec0 g     F .text	00000060 fatDumpTime
0004a7e8 g       *ABS*	00000000 _end
00044498 g     F .text	000001c0 SD_CMD9
00040230 g       *ABS*	00000000 __ram_exceptions_end
00048cf0 g     F .text	0000008c alt_ic_irq_disable
0004963c g     F .text	00000020 exit
00042888 g     F .text	000000f4 fatMountSdcard
00045cd4 g     F .text	000000f0 .hidden __floatunsisf
0004530c g     F .text	00000074 .hidden __modsi3
0004a36c g     O .rwdata	00000004 __ctype_ptr__
00050000 g       *ABS*	00000000 __alt_data_end
00040020 g     F .exceptions	00000000 alt_exception
0004374c g     F .text	0000031c SDLIB_Init
00049e08 g     O .rodata	00000101 _ctype_
00044e44 g     F .text	000001a8 SD_CMD17
0004981c g     F .text	00000034 _exit
00047020 g     F .text	0000001c strlen
00049140 g     F .text	0000015c open
0004a688 g     O .bss	00000004 __malloc_sbrk_start
00048bf8 g     F .text	00000020 alt_icache_flush_all
0004a39c g     O .rwdata	00000004 alt_priority_mask
0004a68c g     O .bss	00000004 __malloc_free_list
00048c68 g     F .text	00000088 alt_ic_irq_enable
00043508 g     F .text	000001e0 SDHAL_WriteData
00047b88 g     F .text	0000001c __vfprintf_internal
00041ae0 g     F .text	00000188 fatFindUnusedCluster
0004a37c g     O .rwdata	00000008 alt_alarm_list
00045194 g     F .text	00000040 SD_ReadData
000489f4 g     F .text	000000d8 close
00040620 g     F .text	00000050 Fat_Unmount
00047fc0 g     F .text	00000084 alt_load
00046ac4 g     F .text	00000014 free
00041f20 g     F .text	00000044 fatIsLastDir
000442fc g     F .text	0000019c SD_CMD3
00043a68 g     F .text	000000f4 SDLIB_ReadBlock512



Disassembly of section .entry:

00040000 <__reset>:
 * Jump to the _start entry point in the .text section if reset code
 * is allowed or if optimizing for RTL simulation.
 */
#if defined(ALT_ALLOW_CODE_AT_RESET) || defined(ALT_SIM_OPTIMIZE)
    /* Jump to the _start entry point in the .text section. */
    movhi r1, %hi(_start)
   40000:	00400134 	movhi	at,4
    ori r1, r1, %lo(_start)
   40004:	08408c14 	ori	at,at,560
    jmp r1
   40008:	0800683a 	jmp	at
	...

Disassembly of section .exceptions:

00040020 <alt_exception>:

#else /* ALT_EXCEPTION_STACK disabled */
        /* 
         * Reserve space on normal stack for registers about to be pushed.
         */
        addi  sp, sp, -76
   40020:	deffed04 	addi	sp,sp,-76
         * documentation for details).
         *
         * Leave a gap in the stack frame at 4(sp) for the muldiv handler to
         * store zero into.
         */
        stw   ra,  0(sp)
   40024:	dfc00015 	stw	ra,0(sp)
        stw   r1,   8(sp)
   40028:	d8400215 	stw	at,8(sp)
        stw   r2,  12(sp)
   4002c:	d8800315 	stw	r2,12(sp)
        stw   r3,  16(sp)
   40030:	d8c00415 	stw	r3,16(sp)
        stw   r4,  20(sp)
   40034:	d9000515 	stw	r4,20(sp)
        stw   r5,  24(sp)
   40038:	d9400615 	stw	r5,24(sp)
        stw   r6,  28(sp)
   4003c:	d9800715 	stw	r6,28(sp)
        stw   r7,  32(sp)
   40040:	d9c00815 	stw	r7,32(sp)
        rdctl r5, estatus   /* Read early to avoid usage stall */
   40044:	000b307a 	rdctl	r5,estatus
        stw   r8,  36(sp)
   40048:	da000915 	stw	r8,36(sp)
        stw   r9,  40(sp)
   4004c:	da400a15 	stw	r9,40(sp)
        stw   r10, 44(sp)
   40050:	da800b15 	stw	r10,44(sp)
        stw   r11, 48(sp)
   40054:	dac00c15 	stw	r11,48(sp)
        stw   r12, 52(sp)
   40058:	db000d15 	stw	r12,52(sp)
        stw   r13, 56(sp)
   4005c:	db400e15 	stw	r13,56(sp)
        stw   r14, 60(sp)
   40060:	db800f15 	stw	r14,60(sp)
        stw   r15, 64(sp)
   40064:	dbc01015 	stw	r15,64(sp)
        /*
         * ea-4 contains the address of the instruction being executed
         * when the exception occured. For interrupt exceptions, we will
         * will be re-issue the isntruction. Store it in 72(sp)
         */
        stw   r5,  68(sp)  /* estatus */
   40068:	d9401115 	stw	r5,68(sp)
        addi  r15, ea, -4  /* instruction that caused exception */
   4006c:	ebffff04 	addi	r15,ea,-4
        stw   r15,  72(sp)
   40070:	dbc01215 	stw	r15,72(sp)
#else
        /*
         * Test to see if the exception was a software exception or caused 
         * by an external interrupt, and vector accordingly.
         */
        rdctl r4, ipending
   40074:	0009313a 	rdctl	r4,ipending
        andi  r2, r5, 1
   40078:	2880004c 	andi	r2,r5,1
        beq   r2, zero, .Lnot_irq
   4007c:	10000326 	beq	r2,zero,4008c <alt_exception+0x6c>
        beq   r4, zero, .Lnot_irq
   40080:	20000226 	beq	r4,zero,4008c <alt_exception+0x6c>
        /*
         * Now that all necessary registers have been preserved, call 
         * alt_irq_handler() to process the interrupts.
         */

        call alt_irq_handler
   40084:	00400fc0 	call	400fc <alt_irq_handler>

        .section .exceptions.irqreturn, "xa"

        br    .Lexception_exit
   40088:	00000706 	br	400a8 <alt_exception+0x88>
         * upon completion, so we write ea (address of instruction *after*
         * the one where the exception occured) into 72(sp). The actual
         * instruction that caused the exception is written in r2, which these
         * handlers will utilize.
         */
        stw ea, 72(sp) /* EA is PC+4 so will skip over instruction causing exception */
   4008c:	df401215 	stw	ea,72(sp)
.Lunknown_16bit:
        addi.n r4, r4, 2 /* Need PC+2 to skip over instruction causing exception */
        stw r4, 72(sp)

#else /* CDX is not Enabled and all instructions are 32bits */
        ldw r2, -4(ea) /* Instruction value that caused exception */
   40090:	e8bfff17 	ldw	r2,-4(ea)
         * debugger is present) or go into an infinite loop since the
         * handling behavior is undefined; in that case we will not return here.
         */

        /* Load exception-causing address as first argument (r4) */
        addi   r4, ea, -4
   40094:	e93fff04 	addi	r4,ea,-4

        /* Call the instruction-exception entry */
        call   alt_instruction_exception_entry
   40098:	00401d00 	call	401d0 <alt_instruction_exception_entry>
         * instruction
         *
         * Return code was 0: Skip. The instruction after the exception is
         * already stored in 72(sp).
         */
        bne   r2, r0, .Lexception_exit
   4009c:	1000021e 	bne	r2,zero,400a8 <alt_exception+0x88>

        /*
         * Otherwise, modify 72(sp) to re-issue the instruction that caused the
         * exception.
         */
        addi  r15, ea, -4  /* instruction that caused exception */
   400a0:	ebffff04 	addi	r15,ea,-4
        stw   r15,  72(sp)
   400a4:	dbc01215 	stw	r15,72(sp)
        /* 
         * Restore the saved registers, so that all general purpose registers 
         * have been restored to their state at the time the interrupt occured.
         */

        ldw   r5,  68(sp)
   400a8:	d9401117 	ldw	r5,68(sp)
        ldw   ea,  72(sp)  /* This becomes the PC once eret is executed */
   400ac:	df401217 	ldw	ea,72(sp)
        ldw   ra,   0(sp)
   400b0:	dfc00017 	ldw	ra,0(sp)

        wrctl estatus, r5
   400b4:	2801707a 	wrctl	estatus,r5

        ldw   r1,   8(sp)
   400b8:	d8400217 	ldw	at,8(sp)
        ldw   r2,  12(sp)
   400bc:	d8800317 	ldw	r2,12(sp)
        ldw   r3,  16(sp)
   400c0:	d8c00417 	ldw	r3,16(sp)
        ldw   r4,  20(sp)
   400c4:	d9000517 	ldw	r4,20(sp)
        ldw   r5,  24(sp)
   400c8:	d9400617 	ldw	r5,24(sp)
        ldw   r6,  28(sp)
   400cc:	d9800717 	ldw	r6,28(sp)
        ldw   r7,  32(sp)
   400d0:	d9c00817 	ldw	r7,32(sp)

#if defined(ALT_EXCEPTION_STACK) && defined(ALT_STACK_CHECK)
        ldw   et, %gprel(alt_exception_old_stack_limit)(gp)
#endif

        ldw   r8,  36(sp)
   400d4:	da000917 	ldw	r8,36(sp)
        ldw   r9,  40(sp)
   400d8:	da400a17 	ldw	r9,40(sp)
        ldw   r10, 44(sp)
   400dc:	da800b17 	ldw	r10,44(sp)
        ldw   r11, 48(sp)
   400e0:	dac00c17 	ldw	r11,48(sp)
        ldw   r12, 52(sp)
   400e4:	db000d17 	ldw	r12,52(sp)
        ldw   r13, 56(sp)
   400e8:	db400e17 	ldw	r13,56(sp)
        ldw   r14, 60(sp)
   400ec:	db800f17 	ldw	r14,60(sp)
        ldw   r15, 64(sp)
   400f0:	dbc01017 	ldw	r15,64(sp)
        stw   et, %gprel(alt_stack_limit_value)(gp)
        stw   zero, %gprel(alt_exception_old_stack_limit)(gp)
#endif /* ALT_STACK_CHECK */
        ldw   sp,  76(sp)
#else /* ALT_EXCEPTION_STACK disabled */
        addi  sp, sp, 76
   400f4:	dec01304 	addi	sp,sp,76

        /*
         * Return to the interrupted instruction.
         */

        eret
   400f8:	ef80083a 	eret

000400fc <alt_irq_handler>:
 * instruction is present if the macro ALT_CI_INTERRUPT_VECTOR defined.
 */

void alt_irq_handler (void) __attribute__ ((section (".exceptions")));
void alt_irq_handler (void)
{
   400fc:	defff904 	addi	sp,sp,-28
   40100:	dfc00615 	stw	ra,24(sp)
   40104:	df000515 	stw	fp,20(sp)
   40108:	df000504 	addi	fp,sp,20
  
  /*
   * Notify the operating system that we are at interrupt level.
   */ 
  
  ALT_OS_INT_ENTER();
   4010c:	0001883a 	nop
#ifndef NIOS2_EIC_PRESENT
static ALT_INLINE alt_u32 ALT_ALWAYS_INLINE alt_irq_pending (void)
{
  alt_u32 active;

  NIOS2_READ_IPENDING (active);
   40110:	0005313a 	rdctl	r2,ipending
   40114:	e0bffe15 	stw	r2,-8(fp)

  return active;
   40118:	e0bffe17 	ldw	r2,-8(fp)
   * Consider the case where the high priority interupt is asserted during
   * the interrupt entry sequence for a lower priority interrupt to see why
   * this is the case.
   */

  active = alt_irq_pending ();
   4011c:	e0bffb15 	stw	r2,-20(fp)

  do
  {
    i = 0;
   40120:	e03ffd15 	stw	zero,-12(fp)
    mask = 1;
   40124:	00800044 	movi	r2,1
   40128:	e0bffc15 	stw	r2,-16(fp)
     * called to clear the interrupt condition.
     */

    do
    {
      if (active & mask)
   4012c:	e0fffb17 	ldw	r3,-20(fp)
   40130:	e0bffc17 	ldw	r2,-16(fp)
   40134:	1884703a 	and	r2,r3,r2
   40138:	10001426 	beq	r2,zero,4018c <alt_irq_handler+0x90>
      { 
#ifdef ALT_ENHANCED_INTERRUPT_API_PRESENT
        alt_irq[i].handler(alt_irq[i].context); 
   4013c:	00800174 	movhi	r2,5
   40140:	10a9ba04 	addi	r2,r2,-22808
   40144:	e0fffd17 	ldw	r3,-12(fp)
   40148:	180690fa 	slli	r3,r3,3
   4014c:	10c5883a 	add	r2,r2,r3
   40150:	10c00017 	ldw	r3,0(r2)
   40154:	00800174 	movhi	r2,5
   40158:	10a9ba04 	addi	r2,r2,-22808
   4015c:	e13ffd17 	ldw	r4,-12(fp)
   40160:	200890fa 	slli	r4,r4,3
   40164:	1105883a 	add	r2,r2,r4
   40168:	10800104 	addi	r2,r2,4
   4016c:	10800017 	ldw	r2,0(r2)
   40170:	1009883a 	mov	r4,r2
   40174:	183ee83a 	callr	r3
#else
        alt_irq[i].handler(alt_irq[i].context, i); 
#endif
        break;
   40178:	0001883a 	nop
#ifndef NIOS2_EIC_PRESENT
static ALT_INLINE alt_u32 ALT_ALWAYS_INLINE alt_irq_pending (void)
{
  alt_u32 active;

  NIOS2_READ_IPENDING (active);
   4017c:	0005313a 	rdctl	r2,ipending
   40180:	e0bfff15 	stw	r2,-4(fp)

  return active;
   40184:	e0bfff17 	ldw	r2,-4(fp)
   40188:	00000706 	br	401a8 <alt_irq_handler+0xac>
      }
      mask <<= 1;
   4018c:	e0bffc17 	ldw	r2,-16(fp)
   40190:	1085883a 	add	r2,r2,r2
   40194:	e0bffc15 	stw	r2,-16(fp)
      i++;
   40198:	e0bffd17 	ldw	r2,-12(fp)
   4019c:	10800044 	addi	r2,r2,1
   401a0:	e0bffd15 	stw	r2,-12(fp)

    } while (1);
   401a4:	003fe106 	br	4012c <_gp+0xfffeddc0>

    active = alt_irq_pending ();
   401a8:	e0bffb15 	stw	r2,-20(fp)
    
  } while (active);
   401ac:	e0bffb17 	ldw	r2,-20(fp)
   401b0:	103fdb1e 	bne	r2,zero,40120 <_gp+0xfffeddb4>

  /*
   * Notify the operating system that interrupt processing is complete.
   */ 

  ALT_OS_INT_EXIT();
   401b4:	0001883a 	nop
}
   401b8:	0001883a 	nop
   401bc:	e037883a 	mov	sp,fp
   401c0:	dfc00117 	ldw	ra,4(sp)
   401c4:	df000017 	ldw	fp,0(sp)
   401c8:	dec00204 	addi	sp,sp,8
   401cc:	f800283a 	ret

000401d0 <alt_instruction_exception_entry>:
 * that handler if it has been registered. Absent a handler, it will
 * break break or hang as discussed below.
 */
int 
alt_instruction_exception_entry (alt_u32 exception_pc)
{
   401d0:	defffb04 	addi	sp,sp,-20
   401d4:	dfc00415 	stw	ra,16(sp)
   401d8:	df000315 	stw	fp,12(sp)
   401dc:	df000304 	addi	fp,sp,12
   401e0:	e13fff15 	stw	r4,-4(fp)
  cause = ( (cause & NIOS2_EXCEPTION_REG_CAUSE_MASK) >>
              NIOS2_EXCEPTION_REG_CAUSE_OFST );

  NIOS2_READ_BADADDR(badaddr);
#else
  cause = NIOS2_EXCEPTION_CAUSE_NOT_PRESENT;
   401e4:	00bfffc4 	movi	r2,-1
   401e8:	e0bffd15 	stw	r2,-12(fp)
  badaddr = 0;
   401ec:	e03ffe15 	stw	zero,-8(fp)
#endif /* NIOS2_HAS_EXTRA_EXCEPTION_INFO */

  if(alt_instruction_exception_handler) {
   401f0:	d0a0d017 	ldw	r2,-31936(gp)
   401f4:	10000726 	beq	r2,zero,40214 <alt_instruction_exception_entry+0x44>
     * Call handler. Its return value indicates whether the exception-causing
     * instruction should be re-issued. The code that called us,
     * alt_eceptions_entry.S, will look at this value and adjust the ea
     * register as necessary
     */
    return alt_instruction_exception_handler(cause, exception_pc, badaddr);
   401f8:	d0a0d017 	ldw	r2,-31936(gp)
   401fc:	e0fffd17 	ldw	r3,-12(fp)
   40200:	e1bffe17 	ldw	r6,-8(fp)
   40204:	e17fff17 	ldw	r5,-4(fp)
   40208:	1809883a 	mov	r4,r3
   4020c:	103ee83a 	callr	r2
   40210:	00000206 	br	4021c <alt_instruction_exception_entry+0x4c>
   *    (a peripheral which negates its interrupt output before its
   *    interrupt handler has been executed will cause spurious interrupts)
   */
  else {
#ifdef NIOS2_HAS_DEBUG_STUB
    NIOS2_BREAK();
   40214:	003da03a 	break	0
      ;
#endif /* NIOS2_HAS_DEBUG_STUB */
  }

  /* We should not get here. Remove compiler warning. */
  return NIOS2_EXCEPTION_RETURN_REISSUE_INST;
   40218:	0005883a 	mov	r2,zero
}
   4021c:	e037883a 	mov	sp,fp
   40220:	dfc00117 	ldw	ra,4(sp)
   40224:	df000017 	ldw	fp,0(sp)
   40228:	dec00204 	addi	sp,sp,8
   4022c:	f800283a 	ret

Disassembly of section .text:

00040230 <_start>:

    /*
     * Now that the caches are initialized, set up the stack pointer and global pointer.
     * The values provided by the linker are assumed to be correctly aligned.
     */
    movhi sp, %hi(__alt_stack_pointer)
   40230:	06c00174 	movhi	sp,5
    ori sp, sp, %lo(__alt_stack_pointer)
   40234:	dec00014 	ori	sp,sp,0
    movhi gp, %hi(_gp)
   40238:	06800174 	movhi	gp,5
    ori gp, gp, %lo(_gp)
   4023c:	d688db14 	ori	gp,gp,9068
 */
#ifndef ALT_SIM_OPTIMIZE
    /* Log that the BSS is about to be cleared. */
    ALT_LOG_PUTS(alt_log_msg_bss)

    movhi r2, %hi(__bss_start)
   40240:	00800134 	movhi	r2,4
    ori r2, r2, %lo(__bss_start)
   40244:	10a9a214 	ori	r2,r2,42632

    movhi r3, %hi(__bss_end)
   40248:	00c00134 	movhi	r3,4
    ori r3, r3, %lo(__bss_end)
   4024c:	18e9fa14 	ori	r3,r3,42984

    beq r2, r3, 1f
   40250:	10c00326 	beq	r2,r3,40260 <_start+0x30>

0:
    stw zero, (r2)
   40254:	10000015 	stw	zero,0(r2)
    addi r2, r2, 4
   40258:	10800104 	addi	r2,r2,4
    bltu r2, r3, 0b
   4025c:	10fffd36 	bltu	r2,r3,40254 <_gp+0xfffedee8>
     * section aren't defined until alt_load() has been called).
     */
    mov   et, zero
#endif

    call alt_load
   40260:	0047fc00 	call	47fc0 <alt_load>

    /* Log that alt_main is about to be called. */
    ALT_LOG_PUTS(alt_log_msg_alt_main)

    /* Call the C entry point. It should never return. */
    call alt_main
   40264:	00480440 	call	48044 <alt_main>

00040268 <alt_after_alt_main>:

    /* Wait in infinite loop in case alt_main does return. */
alt_after_alt_main:
    br alt_after_alt_main
   40268:	003fff06 	br	40268 <_gp+0xfffedefc>

0004026c <Fat_Test>:
#include <stdio.h>
#include ".\terasic_lib\terasic_includes.h"
#include ".\terasic_fat\FatFileSystem.h"


bool Fat_Test(FAT_HANDLE hFat, char *pDumpFile){
   4026c:	deff6704 	addi	sp,sp,-612
   40270:	dfc09815 	stw	ra,608(sp)
   40274:	df009715 	stw	fp,604(sp)
   40278:	df009704 	addi	fp,sp,604
   4027c:	e13ffe15 	stw	r4,-8(fp)
   40280:	e17fff15 	stw	r5,-4(fp)
    bool bSuccess;
    int nCount = 0;
   40284:	e03f6a15 	stw	zero,-600(fp)
    FAT_BROWSE_HANDLE hBrowse;
    FILE_CONTEXT FileContext;

    bSuccess = Fat_FileBrowseBegin(hFat, &hBrowse);
   40288:	e0bf7204 	addi	r2,fp,-568
   4028c:	100b883a 	mov	r5,r2
   40290:	e13ffe17 	ldw	r4,-8(fp)
   40294:	00406dc0 	call	406dc <Fat_FileBrowseBegin>
   40298:	e0bf6915 	stw	r2,-604(fp)
    if (bSuccess){
   4029c:	e0bf6917 	ldw	r2,-604(fp)
   402a0:	10003d26 	beq	r2,zero,40398 <Fat_Test+0x12c>
        while(Fat_FileBrowseNext(&hBrowse, &FileContext)){
   402a4:	00003606 	br	40380 <Fat_Test+0x114>
            if (FileContext.bLongFilename){
   402a8:	e0bfb417 	ldw	r2,-304(fp)
   402ac:	10002b26 	beq	r2,zero,4035c <Fat_Test+0xf0>
                alt_u16 *pData16;
                alt_u8 *pData8;
                pData16 = (alt_u16 *)FileContext.szName;
   402b0:	e0bf7404 	addi	r2,fp,-560
   402b4:	e0bf6b15 	stw	r2,-596(fp)
                pData8 = FileContext.szName;
   402b8:	e0bf7404 	addi	r2,fp,-560
   402bc:	e0bf6c15 	stw	r2,-592(fp)
                printf("[%d]", nCount);
   402c0:	e17f6a17 	ldw	r5,-600(fp)
   402c4:	01000174 	movhi	r4,5
   402c8:	21261404 	addi	r4,r4,-26544
   402cc:	0046d980 	call	46d98 <printf>
                while(*pData16){
   402d0:	00001b06 	br	40340 <Fat_Test+0xd4>
                    if (*pData8)
   402d4:	e0bf6c17 	ldw	r2,-592(fp)
   402d8:	10800003 	ldbu	r2,0(r2)
   402dc:	10803fcc 	andi	r2,r2,255
   402e0:	10000526 	beq	r2,zero,402f8 <Fat_Test+0x8c>
                        printf("%c", *pData8);
   402e4:	e0bf6c17 	ldw	r2,-592(fp)
   402e8:	10800003 	ldbu	r2,0(r2)
   402ec:	10803fcc 	andi	r2,r2,255
   402f0:	1009883a 	mov	r4,r2
   402f4:	0046dec0 	call	46dec <putchar>
                    pData8++;
   402f8:	e0bf6c17 	ldw	r2,-592(fp)
   402fc:	10800044 	addi	r2,r2,1
   40300:	e0bf6c15 	stw	r2,-592(fp)
                    if (*pData8)
   40304:	e0bf6c17 	ldw	r2,-592(fp)
   40308:	10800003 	ldbu	r2,0(r2)
   4030c:	10803fcc 	andi	r2,r2,255
   40310:	10000526 	beq	r2,zero,40328 <Fat_Test+0xbc>
                        printf("%c", *pData8);
   40314:	e0bf6c17 	ldw	r2,-592(fp)
   40318:	10800003 	ldbu	r2,0(r2)
   4031c:	10803fcc 	andi	r2,r2,255
   40320:	1009883a 	mov	r4,r2
   40324:	0046dec0 	call	46dec <putchar>
                    pData8++;
   40328:	e0bf6c17 	ldw	r2,-592(fp)
   4032c:	10800044 	addi	r2,r2,1
   40330:	e0bf6c15 	stw	r2,-592(fp)
                    //
                    pData16++;
   40334:	e0bf6b17 	ldw	r2,-596(fp)
   40338:	10800084 	addi	r2,r2,2
   4033c:	e0bf6b15 	stw	r2,-596(fp)
                alt_u16 *pData16;
                alt_u8 *pData8;
                pData16 = (alt_u16 *)FileContext.szName;
                pData8 = FileContext.szName;
                printf("[%d]", nCount);
                while(*pData16){
   40340:	e0bf6b17 	ldw	r2,-596(fp)
   40344:	1080000b 	ldhu	r2,0(r2)
   40348:	10bfffcc 	andi	r2,r2,65535
   4034c:	103fe11e 	bne	r2,zero,402d4 <_gp+0xfffedf68>
                        printf("%c", *pData8);
                    pData8++;
                    //
                    pData16++;
                }
                printf("\n");
   40350:	01000284 	movi	r4,10
   40354:	0046dec0 	call	46dec <putchar>
   40358:	00000606 	br	40374 <Fat_Test+0x108>
            }else{
                printf("[%d]%s\n", nCount, FileContext.szName);
   4035c:	e0bf7404 	addi	r2,fp,-560
   40360:	100d883a 	mov	r6,r2
   40364:	e17f6a17 	ldw	r5,-600(fp)
   40368:	01000174 	movhi	r4,5
   4036c:	21261604 	addi	r4,r4,-26536
   40370:	0046d980 	call	46d98 <printf>
            }
            nCount++;
   40374:	e0bf6a17 	ldw	r2,-600(fp)
   40378:	10800044 	addi	r2,r2,1
   4037c:	e0bf6a15 	stw	r2,-600(fp)
    FAT_BROWSE_HANDLE hBrowse;
    FILE_CONTEXT FileContext;

    bSuccess = Fat_FileBrowseBegin(hFat, &hBrowse);
    if (bSuccess){
        while(Fat_FileBrowseNext(&hBrowse, &FileContext)){
   40380:	e0ff7404 	addi	r3,fp,-560
   40384:	e0bf7204 	addi	r2,fp,-568
   40388:	180b883a 	mov	r5,r3
   4038c:	1009883a 	mov	r4,r2
   40390:	00407480 	call	40748 <Fat_FileBrowseNext>
   40394:	103fc41e 	bne	r2,zero,402a8 <_gp+0xfffedf3c>
                printf("[%d]%s\n", nCount, FileContext.szName);
            }
            nCount++;
        }
    }
    if (bSuccess && pDumpFile && strlen(pDumpFile)){
   40398:	e0bf6917 	ldw	r2,-604(fp)
   4039c:	10005926 	beq	r2,zero,40504 <Fat_Test+0x298>
   403a0:	e0bfff17 	ldw	r2,-4(fp)
   403a4:	10005726 	beq	r2,zero,40504 <Fat_Test+0x298>
   403a8:	e0bfff17 	ldw	r2,-4(fp)
   403ac:	10800003 	ldbu	r2,0(r2)
   403b0:	10803fcc 	andi	r2,r2,255
   403b4:	1080201c 	xori	r2,r2,128
   403b8:	10bfe004 	addi	r2,r2,-128
   403bc:	10005126 	beq	r2,zero,40504 <Fat_Test+0x298>
        FAT_FILE_HANDLE hFile;
        hFile =  Fat_FileOpen(hFat, pDumpFile);
   403c0:	e17fff17 	ldw	r5,-4(fp)
   403c4:	e13ffe17 	ldw	r4,-8(fp)
   403c8:	0040ed80 	call	40ed8 <Fat_FileOpen>
   403cc:	e0bf7015 	stw	r2,-576(fp)
        if (hFile){
   403d0:	e0bf7017 	ldw	r2,-576(fp)
   403d4:	10004626 	beq	r2,zero,404f0 <Fat_Test+0x284>
            char szRead[256];
            int nReadSize, nFileSize, nTotalReadSize=0;
   403d8:	e03f6e15 	stw	zero,-584(fp)
            nFileSize = Fat_FileSize(hFile);
   403dc:	e13f7017 	ldw	r4,-576(fp)
   403e0:	00410040 	call	41004 <Fat_FileSize>
   403e4:	e0bf7115 	stw	r2,-572(fp)
            if (nReadSize > sizeof(szRead))
   403e8:	e0bf6d17 	ldw	r2,-588(fp)
   403ec:	10804070 	cmpltui	r2,r2,257
   403f0:	1000021e 	bne	r2,zero,403fc <Fat_Test+0x190>
                nReadSize = sizeof(szRead);
   403f4:	00804004 	movi	r2,256
   403f8:	e0bf6d15 	stw	r2,-588(fp)
            printf("%s dump:\n", pDumpFile);
   403fc:	e17fff17 	ldw	r5,-4(fp)
   40400:	01000174 	movhi	r4,5
   40404:	21261804 	addi	r4,r4,-26528
   40408:	0046d980 	call	46d98 <printf>
            while(bSuccess && nTotalReadSize < nFileSize){
   4040c:	00002c06 	br	404c0 <Fat_Test+0x254>
                nReadSize = sizeof(szRead);
   40410:	00804004 	movi	r2,256
   40414:	e0bf6d15 	stw	r2,-588(fp)
                if (nReadSize > (nFileSize - nTotalReadSize))
   40418:	e0ff7117 	ldw	r3,-572(fp)
   4041c:	e0bf6e17 	ldw	r2,-584(fp)
   40420:	1887c83a 	sub	r3,r3,r2
   40424:	e0bf6d17 	ldw	r2,-588(fp)
   40428:	1880040e 	bge	r3,r2,4043c <Fat_Test+0x1d0>
                    nReadSize = (nFileSize - nTotalReadSize);
   4042c:	e0ff7117 	ldw	r3,-572(fp)
   40430:	e0bf6e17 	ldw	r2,-584(fp)
   40434:	1885c83a 	sub	r2,r3,r2
   40438:	e0bf6d15 	stw	r2,-588(fp)
                //
                if (Fat_FileRead(hFile, szRead, nReadSize)){
   4043c:	e0bfbe04 	addi	r2,fp,-264
   40440:	e1bf6d17 	ldw	r6,-588(fp)
   40444:	100b883a 	mov	r5,r2
   40448:	e13f7017 	ldw	r4,-576(fp)
   4044c:	00410480 	call	41048 <Fat_FileRead>
   40450:	10001626 	beq	r2,zero,404ac <Fat_Test+0x240>
                    int i;
                    for(i=0;i<nReadSize;i++){
   40454:	e03f6f15 	stw	zero,-580(fp)
   40458:	00000c06 	br	4048c <Fat_Test+0x220>
                        printf("%c", szRead[i]);
   4045c:	e0ffbe04 	addi	r3,fp,-264
   40460:	e0bf6f17 	ldw	r2,-580(fp)
   40464:	1885883a 	add	r2,r3,r2
   40468:	10800003 	ldbu	r2,0(r2)
   4046c:	10803fcc 	andi	r2,r2,255
   40470:	1080201c 	xori	r2,r2,128
   40474:	10bfe004 	addi	r2,r2,-128
   40478:	1009883a 	mov	r4,r2
   4047c:	0046dec0 	call	46dec <putchar>
                if (nReadSize > (nFileSize - nTotalReadSize))
                    nReadSize = (nFileSize - nTotalReadSize);
                //
                if (Fat_FileRead(hFile, szRead, nReadSize)){
                    int i;
                    for(i=0;i<nReadSize;i++){
   40480:	e0bf6f17 	ldw	r2,-580(fp)
   40484:	10800044 	addi	r2,r2,1
   40488:	e0bf6f15 	stw	r2,-580(fp)
   4048c:	e0ff6f17 	ldw	r3,-580(fp)
   40490:	e0bf6d17 	ldw	r2,-588(fp)
   40494:	18bff116 	blt	r3,r2,4045c <_gp+0xfffee0f0>
                        printf("%c", szRead[i]);
                    }
                    nTotalReadSize += nReadSize;
   40498:	e0ff6e17 	ldw	r3,-584(fp)
   4049c:	e0bf6d17 	ldw	r2,-588(fp)
   404a0:	1885883a 	add	r2,r3,r2
   404a4:	e0bf6e15 	stw	r2,-584(fp)
   404a8:	00000506 	br	404c0 <Fat_Test+0x254>
                }else{
                    bSuccess = FALSE;
   404ac:	e03f6915 	stw	zero,-604(fp)
                    printf("\nFaied to read the file \"%s\"\n", pDumpFile);
   404b0:	e17fff17 	ldw	r5,-4(fp)
   404b4:	01000174 	movhi	r4,5
   404b8:	21261b04 	addi	r4,r4,-26516
   404bc:	0046d980 	call	46d98 <printf>
            int nReadSize, nFileSize, nTotalReadSize=0;
            nFileSize = Fat_FileSize(hFile);
            if (nReadSize > sizeof(szRead))
                nReadSize = sizeof(szRead);
            printf("%s dump:\n", pDumpFile);
            while(bSuccess && nTotalReadSize < nFileSize){
   404c0:	e0bf6917 	ldw	r2,-604(fp)
   404c4:	10000326 	beq	r2,zero,404d4 <Fat_Test+0x268>
   404c8:	e0ff6e17 	ldw	r3,-584(fp)
   404cc:	e0bf7117 	ldw	r2,-572(fp)
   404d0:	18bfcf16 	blt	r3,r2,40410 <_gp+0xfffee0a4>
                }else{
                    bSuccess = FALSE;
                    printf("\nFaied to read the file \"%s\"\n", pDumpFile);
                }
            } // while
            if (bSuccess)
   404d4:	e0bf6917 	ldw	r2,-604(fp)
   404d8:	10000226 	beq	r2,zero,404e4 <Fat_Test+0x278>
                printf("\n");
   404dc:	01000284 	movi	r4,10
   404e0:	0046dec0 	call	46dec <putchar>
            Fat_FileClose(hFile);
   404e4:	e13f7017 	ldw	r4,-576(fp)
   404e8:	00415cc0 	call	415cc <Fat_FileClose>
   404ec:	00000506 	br	40504 <Fat_Test+0x298>
        }else{
            bSuccess = FALSE;
   404f0:	e03f6915 	stw	zero,-604(fp)
            printf("Cannot find the file \"%s\"\n", pDumpFile);
   404f4:	e17fff17 	ldw	r5,-4(fp)
   404f8:	01000174 	movhi	r4,5
   404fc:	21262304 	addi	r4,r4,-26484
   40500:	0046d980 	call	46d98 <printf>
        }
    }

    return bSuccess;
   40504:	e0bf6917 	ldw	r2,-604(fp)
}
   40508:	e037883a 	mov	sp,fp
   4050c:	dfc00117 	ldw	ra,4(sp)
   40510:	df000017 	ldw	fp,0(sp)
   40514:	dec00204 	addi	sp,sp,8
   40518:	f800283a 	ret

0004051c <main>:


int main()
{
   4051c:	defffd04 	addi	sp,sp,-12
   40520:	dfc00215 	stw	ra,8(sp)
   40524:	df000115 	stw	fp,4(sp)
   40528:	df000104 	addi	fp,sp,4
    FAT_HANDLE hFat;

    printf("========== DE2-115 SDCARD Demo ==========\n");
   4052c:	01000174 	movhi	r4,5
   40530:	21262a04 	addi	r4,r4,-26456
   40534:	0046e880 	call	46e88 <puts>

    while(1){
        printf("Processing...\r\n");
   40538:	01000174 	movhi	r4,5
   4053c:	21263504 	addi	r4,r4,-26412
   40540:	0046e880 	call	46e88 <puts>
        hFat = Fat_Mount(FAT_SD_CARD, 0);
   40544:	000b883a 	mov	r5,zero
   40548:	0009883a 	mov	r4,zero
   4054c:	00405dc0 	call	405dc <Fat_Mount>
   40550:	e0bfff15 	stw	r2,-4(fp)
        if (hFat){
   40554:	e0bfff17 	ldw	r2,-4(fp)
   40558:	10001326 	beq	r2,zero,405a8 <main+0x8c>
            printf("sdcard mount success!\n");
   4055c:	01000174 	movhi	r4,5
   40560:	21263904 	addi	r4,r4,-26396
   40564:	0046e880 	call	46e88 <puts>
            printf("Root Directory Item Count:%d\n", Fat_FileCount(hFat));
   40568:	e13fff17 	ldw	r4,-4(fp)
   4056c:	0040b740 	call	40b74 <Fat_FileCount>
   40570:	100b883a 	mov	r5,r2
   40574:	01000174 	movhi	r4,5
   40578:	21263f04 	addi	r4,r4,-26372
   4057c:	0046d980 	call	46d98 <printf>
            Fat_Test(hFat, "text.txt");
   40580:	01400174 	movhi	r5,5
   40584:	29664704 	addi	r5,r5,-26340
   40588:	e13fff17 	ldw	r4,-4(fp)
   4058c:	004026c0 	call	4026c <Fat_Test>
            Fat_Unmount(hFat);
   40590:	e13fff17 	ldw	r4,-4(fp)
   40594:	00406200 	call	40620 <Fat_Unmount>

            printf("===== Test Done =====\r\nPress KEY3 to test again.\r\n");
   40598:	01000174 	movhi	r4,5
   4059c:	21264a04 	addi	r4,r4,-26328
   405a0:	0046e880 	call	46e88 <puts>
   405a4:	00000306 	br	405b4 <main+0x98>
        }else{
            printf("Failed to mount the SDCARD!\r\nPlease insert the SDCARD into DE2-115 board and press KEY3.\r\n");
   405a8:	01000174 	movhi	r4,5
   405ac:	21265704 	addi	r4,r4,-26276
   405b0:	0046e880 	call	46e88 <puts>
        }
        // wait users to press BUTTON3
        while ((IORD_ALTERA_AVALON_PIO_DATA(KEY_BASE) & 0x08) == 0x08);
   405b4:	0001883a 	nop
   405b8:	00800234 	movhi	r2,8
   405bc:	10841004 	addi	r2,r2,4160
   405c0:	10800037 	ldwio	r2,0(r2)
   405c4:	1080020c 	andi	r2,r2,8
   405c8:	103ffb1e 	bne	r2,zero,405b8 <_gp+0xfffee24c>
        usleep(400*1000); // debounce
   405cc:	010001b4 	movhi	r4,6
   405d0:	2106a004 	addi	r4,r4,6784
   405d4:	00483040 	call	48304 <usleep>
    } // while
   405d8:	003fd706 	br	40538 <_gp+0xfffee1cc>

000405dc <Fat_Mount>:
bool fatSameLongFilename(alt_u16 *p1, alt_u16 *p2);




FAT_HANDLE Fat_Mount(FAT_DEVICE FatDevice, DEVICE_HANDLE hUsbDisk){
   405dc:	defffb04 	addi	sp,sp,-20
   405e0:	dfc00415 	stw	ra,16(sp)
   405e4:	df000315 	stw	fp,12(sp)
   405e8:	df000304 	addi	fp,sp,12
   405ec:	e13ffe15 	stw	r4,-8(fp)
   405f0:	e17fff15 	stw	r5,-4(fp)
    
    //Fat_Unmount();
    FAT_HANDLE hFat = 0;
   405f4:	e03ffd15 	stw	zero,-12(fp)
    
    if (FatDevice == FAT_SD_CARD){
   405f8:	e0bffe17 	ldw	r2,-8(fp)
   405fc:	1000021e 	bne	r2,zero,40608 <Fat_Mount+0x2c>
        #ifdef SUPPORT_SD_CARD
        hFat = fatMountSdcard();
   40600:	00428880 	call	42888 <fatMountSdcard>
   40604:	e0bffd15 	stw	r2,-12(fp)
    }else if (FatDevice == FAT_USB_DISK){
        #ifdef SUPPORT_USB_DISK
        hFat = fatMountUsbDisk(hUsbDisk);
        #endif
    }  
    return hFat;      
   40608:	e0bffd17 	ldw	r2,-12(fp)
        
}
   4060c:	e037883a 	mov	sp,fp
   40610:	dfc00117 	ldw	ra,4(sp)
   40614:	df000017 	ldw	fp,0(sp)
   40618:	dec00204 	addi	sp,sp,8
   4061c:	f800283a 	ret

00040620 <Fat_Unmount>:

void Fat_Unmount(FAT_HANDLE Fat){
   40620:	defffc04 	addi	sp,sp,-16
   40624:	dfc00315 	stw	ra,12(sp)
   40628:	df000215 	stw	fp,8(sp)
   4062c:	df000204 	addi	fp,sp,8
   40630:	e13fff15 	stw	r4,-4(fp)
    VOLUME_INFO *pVol = (VOLUME_INFO *)Fat;
   40634:	e0bfff17 	ldw	r2,-4(fp)
   40638:	e0bffe15 	stw	r2,-8(fp)
    if (!pVol)
   4063c:	e0bffe17 	ldw	r2,-8(fp)
   40640:	10000526 	beq	r2,zero,40658 <Fat_Unmount+0x38>
    if (pVol->szFatTable){
        free(pVol->szFatTable);
        pVol->szFatTable = 0;
    }        
#endif //#ifdef FAT_READONLY
    pVol->bMount = FALSE;
   40644:	e0bffe17 	ldw	r2,-8(fp)
   40648:	10000415 	stw	zero,16(r2)
    
    free(pVol);  
   4064c:	e13ffe17 	ldw	r4,-8(fp)
   40650:	0046ac40 	call	46ac4 <free>
   40654:	00000106 	br	4065c <Fat_Unmount+0x3c>
}

void Fat_Unmount(FAT_HANDLE Fat){
    VOLUME_INFO *pVol = (VOLUME_INFO *)Fat;
    if (!pVol)
        return;
   40658:	0001883a 	nop
    }        
#endif //#ifdef FAT_READONLY
    pVol->bMount = FALSE;
    
    free(pVol);  
}   
   4065c:	e037883a 	mov	sp,fp
   40660:	dfc00117 	ldw	ra,4(sp)
   40664:	df000017 	ldw	fp,0(sp)
   40668:	dec00204 	addi	sp,sp,8
   4066c:	f800283a 	ret

00040670 <Fat_Type>:

FAT_TYPE Fat_Type(FAT_HANDLE Fat){
   40670:	defffc04 	addi	sp,sp,-16
   40674:	df000315 	stw	fp,12(sp)
   40678:	df000304 	addi	fp,sp,12
   4067c:	e13fff15 	stw	r4,-4(fp)
    VOLUME_INFO *pVol = (VOLUME_INFO *)Fat;
   40680:	e0bfff17 	ldw	r2,-4(fp)
   40684:	e0bffe15 	stw	r2,-8(fp)
    FAT_TYPE Type = FAT_UNKNOWN;
   40688:	e03ffd15 	stw	zero,-12(fp)
    if (pVol){
   4068c:	e0bffe17 	ldw	r2,-8(fp)
   40690:	10000d26 	beq	r2,zero,406c8 <Fat_Type+0x58>
        if (pVol->Partition_Type == PARTITION_FAT16)
   40694:	e0bffe17 	ldw	r2,-8(fp)
   40698:	10800317 	ldw	r2,12(r2)
   4069c:	10800198 	cmpnei	r2,r2,6
   406a0:	1000031e 	bne	r2,zero,406b0 <Fat_Type+0x40>
            Type = FAT_FAT16;
   406a4:	00800044 	movi	r2,1
   406a8:	e0bffd15 	stw	r2,-12(fp)
   406ac:	00000606 	br	406c8 <Fat_Type+0x58>
        else if (pVol->Partition_Type == PARTITION_FAT32)
   406b0:	e0bffe17 	ldw	r2,-8(fp)
   406b4:	10800317 	ldw	r2,12(r2)
   406b8:	10800318 	cmpnei	r2,r2,12
   406bc:	1000021e 	bne	r2,zero,406c8 <Fat_Type+0x58>
            Type = FAT_FAT32;
   406c0:	00800084 	movi	r2,2
   406c4:	e0bffd15 	stw	r2,-12(fp)
    }
    return Type;        
   406c8:	e0bffd17 	ldw	r2,-12(fp)
}
   406cc:	e037883a 	mov	sp,fp
   406d0:	df000017 	ldw	fp,0(sp)
   406d4:	dec00104 	addi	sp,sp,4
   406d8:	f800283a 	ret

000406dc <Fat_FileBrowseBegin>:

bool Fat_FileBrowseBegin(FAT_HANDLE hFat, FAT_BROWSE_HANDLE *pFatBrowseHandle){
   406dc:	defffc04 	addi	sp,sp,-16
   406e0:	df000315 	stw	fp,12(sp)
   406e4:	df000304 	addi	fp,sp,12
   406e8:	e13ffe15 	stw	r4,-8(fp)
   406ec:	e17fff15 	stw	r5,-4(fp)
    VOLUME_INFO *pVol = (VOLUME_INFO *)hFat;
   406f0:	e0bffe17 	ldw	r2,-8(fp)
   406f4:	e0bffd15 	stw	r2,-12(fp)
    if (!pVol)
   406f8:	e0bffd17 	ldw	r2,-12(fp)
   406fc:	1000021e 	bne	r2,zero,40708 <Fat_FileBrowseBegin+0x2c>
        return FALSE;
   40700:	0005883a 	mov	r2,zero
   40704:	00000c06 	br	40738 <Fat_FileBrowseBegin+0x5c>
    if (!pVol->bMount)
   40708:	e0bffd17 	ldw	r2,-12(fp)
   4070c:	10800417 	ldw	r2,16(r2)
   40710:	1000021e 	bne	r2,zero,4071c <Fat_FileBrowseBegin+0x40>
        return FALSE;
   40714:	0005883a 	mov	r2,zero
   40718:	00000706 	br	40738 <Fat_FileBrowseBegin+0x5c>
    pFatBrowseHandle->DirectoryIndex = -1;
   4071c:	e0bfff17 	ldw	r2,-4(fp)
   40720:	00ffffc4 	movi	r3,-1
   40724:	10c00015 	stw	r3,0(r2)
    pFatBrowseHandle->hFat = hFat;
   40728:	e0bfff17 	ldw	r2,-4(fp)
   4072c:	e0fffe17 	ldw	r3,-8(fp)
   40730:	10c00115 	stw	r3,4(r2)
    return TRUE;
   40734:	00800044 	movi	r2,1
}
   40738:	e037883a 	mov	sp,fp
   4073c:	df000017 	ldw	fp,0(sp)
   40740:	dec00104 	addi	sp,sp,4
   40744:	f800283a 	ret

00040748 <Fat_FileBrowseNext>:

bool Fat_FileBrowseNext(FAT_BROWSE_HANDLE *pFatBrowseHandle, FILE_CONTEXT *pFileContext){
   40748:	defff404 	addi	sp,sp,-48
   4074c:	dfc00b15 	stw	ra,44(sp)
   40750:	df000a15 	stw	fp,40(sp)
   40754:	df000a04 	addi	fp,sp,40
   40758:	e13ffe15 	stw	r4,-8(fp)
   4075c:	e17fff15 	stw	r5,-4(fp)
    bool bFind = FALSE, bError=FALSE, bLongFilename = FALSE;
   40760:	e03ff615 	stw	zero,-40(fp)
   40764:	e03ff715 	stw	zero,-36(fp)
   40768:	e03ff815 	stw	zero,-32(fp)
    int OrderValue = 0;
   4076c:	e03ff915 	stw	zero,-28(fp)
    FAT_DIRECTORY *pDir;
    //unsigned int nSecter, nSecterOffset,nByteOffset;
    VOLUME_INFO *pVol = (VOLUME_INFO *)pFatBrowseHandle->hFat;
   40770:	e0bffe17 	ldw	r2,-8(fp)
   40774:	10800117 	ldw	r2,4(r2)
   40778:	e0bffa15 	stw	r2,-24(fp)
    
    if (!pVol)
   4077c:	e0bffa17 	ldw	r2,-24(fp)
   40780:	1000021e 	bne	r2,zero,4078c <Fat_FileBrowseNext+0x44>
        return FALSE;    
   40784:	0005883a 	mov	r2,zero
   40788:	0000f506 	br	40b60 <Fat_FileBrowseNext+0x418>
    
    if (!pVol->bMount)
   4078c:	e0bffa17 	ldw	r2,-24(fp)
   40790:	10800417 	ldw	r2,16(r2)
   40794:	1000021e 	bne	r2,zero,407a0 <Fat_FileBrowseNext+0x58>
        return FALSE;
   40798:	0005883a 	mov	r2,zero
   4079c:	0000f006 	br	40b60 <Fat_FileBrowseNext+0x418>
    
    
    do{  // search Directory Table
        pFatBrowseHandle->DirectoryIndex++;        
   407a0:	e0bffe17 	ldw	r2,-8(fp)
   407a4:	10800017 	ldw	r2,0(r2)
   407a8:	10c00044 	addi	r3,r2,1
   407ac:	e0bffe17 	ldw	r2,-8(fp)
   407b0:	10c00015 	stw	r3,0(r2)
        pDir = fatFindDirectory(pVol,pFatBrowseHandle->DirectoryIndex);
   407b4:	e0bffe17 	ldw	r2,-8(fp)
   407b8:	10800017 	ldw	r2,0(r2)
   407bc:	100b883a 	mov	r5,r2
   407c0:	e13ffa17 	ldw	r4,-24(fp)
   407c4:	004231c0 	call	4231c <fatFindDirectory>
   407c8:	e0bffb15 	stw	r2,-20(fp)
        if (!pDir)
   407cc:	e0bffb17 	ldw	r2,-20(fp)
   407d0:	1000021e 	bne	r2,zero,407dc <Fat_FileBrowseNext+0x94>
            bError = TRUE;
   407d4:	00800044 	movi	r2,1
   407d8:	e0bff715 	stw	r2,-36(fp)
            
        if (!bError){                        
   407dc:	e0bff717 	ldw	r2,-36(fp)
   407e0:	1000d71e 	bne	r2,zero,40b40 <Fat_FileBrowseNext+0x3f8>
            if (fatIsValidDir(pDir) && !fatIsUnusedDir(pDir)){
   407e4:	e13ffb17 	ldw	r4,-20(fp)
   407e8:	0041f640 	call	41f64 <fatIsValidDir>
   407ec:	1000d426 	beq	r2,zero,40b40 <Fat_FileBrowseNext+0x3f8>
   407f0:	e13ffb17 	ldw	r4,-20(fp)
   407f4:	00420100 	call	42010 <fatIsUnusedDir>
   407f8:	1000d11e 	bne	r2,zero,40b40 <Fat_FileBrowseNext+0x3f8>
                if ((pDir->Attribute & ATTR_LONG_NAME) == ATTR_LONG_NAME){
   407fc:	e0bffb17 	ldw	r2,-20(fp)
   40800:	108002c3 	ldbu	r2,11(r2)
   40804:	10803fcc 	andi	r2,r2,255
   40808:	108003cc 	andi	r2,r2,15
   4080c:	108003d8 	cmpnei	r2,r2,15
   40810:	1000521e 	bne	r2,zero,4095c <Fat_FileBrowseNext+0x214>
                    FAT_LONG_DIRECTORY *pLDIR = (FAT_LONG_DIRECTORY *)pDir;
   40814:	e0bffb17 	ldw	r2,-20(fp)
   40818:	e0bffc15 	stw	r2,-16(fp)
                    // check attribute
                    if ((pLDIR->LDIR_Attr & ATTR_LONG_NAME) != ATTR_LONG_NAME){
   4081c:	e0bffc17 	ldw	r2,-16(fp)
   40820:	108002c3 	ldbu	r2,11(r2)
   40824:	10803fcc 	andi	r2,r2,255
   40828:	108003cc 	andi	r2,r2,15
   4082c:	108003e0 	cmpeqi	r2,r2,15
   40830:	1000031e 	bne	r2,zero,40840 <Fat_FileBrowseNext+0xf8>
                        bError = TRUE;
   40834:	00800044 	movi	r2,1
   40838:	e0bff715 	stw	r2,-36(fp)
   4083c:	00001e06 	br	408b8 <Fat_FileBrowseNext+0x170>
                    }else{                        
                        // check order
                        if (OrderValue == 0){
   40840:	e0bff917 	ldw	r2,-28(fp)
   40844:	1000141e 	bne	r2,zero,40898 <Fat_FileBrowseNext+0x150>
                            // last entry
                            if (bLongFilename || ((OrderValue & LAST_LONG_ENTRY) != OrderValue))
   40848:	e0bff817 	ldw	r2,-32(fp)
   4084c:	1000041e 	bne	r2,zero,40860 <Fat_FileBrowseNext+0x118>
   40850:	e0bff917 	ldw	r2,-28(fp)
   40854:	10c0100c 	andi	r3,r2,64
   40858:	e0bff917 	ldw	r2,-28(fp)
   4085c:	18800326 	beq	r3,r2,4086c <Fat_FileBrowseNext+0x124>
                                bError = TRUE;
   40860:	00800044 	movi	r2,1
   40864:	e0bff715 	stw	r2,-36(fp)
   40868:	00000506 	br	40880 <Fat_FileBrowseNext+0x138>
                            else
                                OrderValue = pLDIR->LDIR_Ord & 0x3F;
   4086c:	e0bffc17 	ldw	r2,-16(fp)
   40870:	10800003 	ldbu	r2,0(r2)
   40874:	10803fcc 	andi	r2,r2,255
   40878:	10800fcc 	andi	r2,r2,63
   4087c:	e0bff915 	stw	r2,-28(fp)
                            memset(pFileContext->szName, 0, sizeof(pFileContext->szName));        
   40880:	e0bfff17 	ldw	r2,-4(fp)
   40884:	01804004 	movi	r6,256
   40888:	000b883a 	mov	r5,zero
   4088c:	1009883a 	mov	r4,r2
   40890:	0046b000 	call	46b00 <memset>
   40894:	00000806 	br	408b8 <Fat_FileBrowseNext+0x170>
                        }else{
                            if ((pLDIR->LDIR_Ord & 0x3F) != OrderValue)
   40898:	e0bffc17 	ldw	r2,-16(fp)
   4089c:	10800003 	ldbu	r2,0(r2)
   408a0:	10803fcc 	andi	r2,r2,255
   408a4:	10c00fcc 	andi	r3,r2,63
   408a8:	e0bff917 	ldw	r2,-28(fp)
   408ac:	18800226 	beq	r3,r2,408b8 <Fat_FileBrowseNext+0x170>
                                bError = TRUE;
   408b0:	00800044 	movi	r2,1
   408b4:	e0bff715 	stw	r2,-36(fp)
                        }
                    }
                    
                    //                        
                    if (!bError){
   408b8:	e0bff717 	ldw	r2,-36(fp)
   408bc:	1000a01e 	bne	r2,zero,40b40 <Fat_FileBrowseNext+0x3f8>
                        int BaseOffset;
                        bLongFilename = TRUE;
   408c0:	00800044 	movi	r2,1
   408c4:	e0bff815 	stw	r2,-32(fp)
                        OrderValue--;
   408c8:	e0bff917 	ldw	r2,-28(fp)
   408cc:	10bfffc4 	addi	r2,r2,-1
   408d0:	e0bff915 	stw	r2,-28(fp)
                        BaseOffset = OrderValue * 26;
   408d4:	01400684 	movi	r5,26
   408d8:	e13ff917 	ldw	r4,-28(fp)
   408dc:	004543c0 	call	4543c <__mulsi3>
   408e0:	e0bffd15 	stw	r2,-12(fp)
                        // cast filename
                        memcpy(pFileContext->szName+BaseOffset, pLDIR->LDIR_Name1, 10);
   408e4:	e0ffff17 	ldw	r3,-4(fp)
   408e8:	e0bffd17 	ldw	r2,-12(fp)
   408ec:	1887883a 	add	r3,r3,r2
   408f0:	e0bffc17 	ldw	r2,-16(fp)
   408f4:	10800044 	addi	r2,r2,1
   408f8:	01800284 	movi	r6,10
   408fc:	100b883a 	mov	r5,r2
   40900:	1809883a 	mov	r4,r3
   40904:	0046ad80 	call	46ad8 <memcpy>
                        memcpy(pFileContext->szName+BaseOffset+10, pLDIR->LDIR_Name2, 12);
   40908:	e0ffff17 	ldw	r3,-4(fp)
   4090c:	e0bffd17 	ldw	r2,-12(fp)
   40910:	10800284 	addi	r2,r2,10
   40914:	1887883a 	add	r3,r3,r2
   40918:	e0bffc17 	ldw	r2,-16(fp)
   4091c:	10800384 	addi	r2,r2,14
   40920:	01800304 	movi	r6,12
   40924:	100b883a 	mov	r5,r2
   40928:	1809883a 	mov	r4,r3
   4092c:	0046ad80 	call	46ad8 <memcpy>
                        memcpy(pFileContext->szName+BaseOffset+22, pLDIR->LDIR_Name3, 4);
   40930:	e0ffff17 	ldw	r3,-4(fp)
   40934:	e0bffd17 	ldw	r2,-12(fp)
   40938:	10800584 	addi	r2,r2,22
   4093c:	1887883a 	add	r3,r3,r2
   40940:	e0bffc17 	ldw	r2,-16(fp)
   40944:	10800704 	addi	r2,r2,28
   40948:	01800104 	movi	r6,4
   4094c:	100b883a 	mov	r5,r2
   40950:	1809883a 	mov	r4,r3
   40954:	0046ad80 	call	46ad8 <memcpy>
   40958:	00007906 	br	40b40 <Fat_FileBrowseNext+0x3f8>
                    }                        
                }else{
                    if (bLongFilename){
   4095c:	e0bff817 	ldw	r2,-32(fp)
   40960:	10000e26 	beq	r2,zero,4099c <Fat_FileBrowseNext+0x254>
                        pFileContext->Attribute = ATTR_LONG_NAME;
   40964:	e0bfff17 	ldw	r2,-4(fp)
   40968:	00c003c4 	movi	r3,15
   4096c:	10c04505 	stb	r3,276(r2)
                        if ((pDir->Attribute & (ATTR_ARCHIVE | ATTR_DIRECTORY)) == 0)
   40970:	e0bffb17 	ldw	r2,-20(fp)
   40974:	108002c3 	ldbu	r2,11(r2)
   40978:	10803fcc 	andi	r2,r2,255
   4097c:	10800c0c 	andi	r2,r2,48
   40980:	1000031e 	bne	r2,zero,40990 <Fat_FileBrowseNext+0x248>
                            bError = TRUE;
   40984:	00800044 	movi	r2,1
   40988:	e0bff715 	stw	r2,-36(fp)
   4098c:	00000906 	br	409b4 <Fat_FileBrowseNext+0x26c>
                        else    
                            bFind = TRUE;
   40990:	00800044 	movi	r2,1
   40994:	e0bff615 	stw	r2,-40(fp)
   40998:	00000606 	br	409b4 <Fat_FileBrowseNext+0x26c>
                    }else{
                        fatComposeShortFilename(pDir, pFileContext->szName);
   4099c:	e0bfff17 	ldw	r2,-4(fp)
   409a0:	100b883a 	mov	r5,r2
   409a4:	e13ffb17 	ldw	r4,-20(fp)
   409a8:	0040c740 	call	40c74 <fatComposeShortFilename>
                        bFind = TRUE;
   409ac:	00800044 	movi	r2,1
   409b0:	e0bff615 	stw	r2,-40(fp)
                    }
                    
                    if (bFind){
   409b4:	e0bff617 	ldw	r2,-40(fp)
   409b8:	10006126 	beq	r2,zero,40b40 <Fat_FileBrowseNext+0x3f8>
                        // my ext
                        pFileContext->bLongFilename = bLongFilename;
   409bc:	e0bfff17 	ldw	r2,-4(fp)
   409c0:	e0fff817 	ldw	r3,-32(fp)
   409c4:	10c04015 	stw	r3,256(r2)
                        pFileContext->bFile = (pDir->Attribute & ATTR_ARCHIVE)?TRUE:FALSE;
   409c8:	e0bffb17 	ldw	r2,-20(fp)
   409cc:	108002c3 	ldbu	r2,11(r2)
   409d0:	10803fcc 	andi	r2,r2,255
   409d4:	1080080c 	andi	r2,r2,32
   409d8:	1004c03a 	cmpne	r2,r2,zero
   409dc:	10c03fcc 	andi	r3,r2,255
   409e0:	e0bfff17 	ldw	r2,-4(fp)
   409e4:	10c04115 	stw	r3,260(r2)
                        pFileContext->bDirectory = (pDir->Attribute & ATTR_DIRECTORY)?TRUE:FALSE;
   409e8:	e0bffb17 	ldw	r2,-20(fp)
   409ec:	108002c3 	ldbu	r2,11(r2)
   409f0:	10803fcc 	andi	r2,r2,255
   409f4:	1080040c 	andi	r2,r2,16
   409f8:	1004c03a 	cmpne	r2,r2,zero
   409fc:	10c03fcc 	andi	r3,r2,255
   40a00:	e0bfff17 	ldw	r2,-4(fp)
   40a04:	10c04215 	stw	r3,264(r2)
                        pFileContext->bVolume = (pDir->Attribute & ATTR_VOLUME_ID)?TRUE:FALSE;
   40a08:	e0bffb17 	ldw	r2,-20(fp)
   40a0c:	108002c3 	ldbu	r2,11(r2)
   40a10:	10803fcc 	andi	r2,r2,255
   40a14:	1080020c 	andi	r2,r2,8
   40a18:	1004c03a 	cmpne	r2,r2,zero
   40a1c:	10c03fcc 	andi	r3,r2,255
   40a20:	e0bfff17 	ldw	r2,-4(fp)
   40a24:	10c04315 	stw	r3,268(r2)
                        pFileContext->DirEntryIndex = pFatBrowseHandle->DirectoryIndex; // add in v2.0.0
   40a28:	e0bffe17 	ldw	r2,-8(fp)
   40a2c:	10c00017 	ldw	r3,0(r2)
   40a30:	e0bfff17 	ldw	r2,-4(fp)
   40a34:	10c04415 	stw	r3,272(r2)
                        
                        //
                        pFileContext->Attribute = pDir->Attribute;
   40a38:	e0bffb17 	ldw	r2,-20(fp)
   40a3c:	10c002c3 	ldbu	r3,11(r2)
   40a40:	e0bfff17 	ldw	r2,-4(fp)
   40a44:	10c04505 	stb	r3,276(r2)
                        pFileContext->CreateTime = pDir->CreateTime;
   40a48:	e0bffb17 	ldw	r2,-20(fp)
   40a4c:	10c00383 	ldbu	r3,14(r2)
   40a50:	108003c3 	ldbu	r2,15(r2)
   40a54:	1004923a 	slli	r2,r2,8
   40a58:	10c4b03a 	or	r2,r2,r3
   40a5c:	1007883a 	mov	r3,r2
   40a60:	e0bfff17 	ldw	r2,-4(fp)
   40a64:	10c0458d 	sth	r3,278(r2)
                        pFileContext->LastAccessDate = pDir->LastAccessDate;
   40a68:	e0bffb17 	ldw	r2,-20(fp)
   40a6c:	10c00483 	ldbu	r3,18(r2)
   40a70:	108004c3 	ldbu	r2,19(r2)
   40a74:	1004923a 	slli	r2,r2,8
   40a78:	10c4b03a 	or	r2,r2,r3
   40a7c:	1007883a 	mov	r3,r2
   40a80:	e0bfff17 	ldw	r2,-4(fp)
   40a84:	10c0468d 	sth	r3,282(r2)
                        pFileContext->FirstLogicalClusterHi = pDir->FirstLogicalClusterHi;
   40a88:	e0bffb17 	ldw	r2,-20(fp)
   40a8c:	10c00503 	ldbu	r3,20(r2)
   40a90:	10800543 	ldbu	r2,21(r2)
   40a94:	1004923a 	slli	r2,r2,8
   40a98:	10c4b03a 	or	r2,r2,r3
   40a9c:	1007883a 	mov	r3,r2
   40aa0:	e0bfff17 	ldw	r2,-4(fp)
   40aa4:	10c0470d 	sth	r3,284(r2)
                        pFileContext->LastWriteTime = pDir->LastWriteTime;
   40aa8:	e0bffb17 	ldw	r2,-20(fp)
   40aac:	10c00583 	ldbu	r3,22(r2)
   40ab0:	108005c3 	ldbu	r2,23(r2)
   40ab4:	1004923a 	slli	r2,r2,8
   40ab8:	10c4b03a 	or	r2,r2,r3
   40abc:	1007883a 	mov	r3,r2
   40ac0:	e0bfff17 	ldw	r2,-4(fp)
   40ac4:	10c0478d 	sth	r3,286(r2)
                        pFileContext->LastWriteDate = pDir->LastWriteDate;
   40ac8:	e0bffb17 	ldw	r2,-20(fp)
   40acc:	10c00603 	ldbu	r3,24(r2)
   40ad0:	10800643 	ldbu	r2,25(r2)
   40ad4:	1004923a 	slli	r2,r2,8
   40ad8:	10c4b03a 	or	r2,r2,r3
   40adc:	1007883a 	mov	r3,r2
   40ae0:	e0bfff17 	ldw	r2,-4(fp)
   40ae4:	10c0480d 	sth	r3,288(r2)
                        pFileContext->FirstLogicalCluster = pDir->FirstLogicalCluster;
   40ae8:	e0bffb17 	ldw	r2,-20(fp)
   40aec:	10c00683 	ldbu	r3,26(r2)
   40af0:	108006c3 	ldbu	r2,27(r2)
   40af4:	1004923a 	slli	r2,r2,8
   40af8:	10c4b03a 	or	r2,r2,r3
   40afc:	1007883a 	mov	r3,r2
   40b00:	e0bfff17 	ldw	r2,-4(fp)
   40b04:	10c0488d 	sth	r3,290(r2)
                        pFileContext->FileSize = pDir->FileSize;
   40b08:	e0bffb17 	ldw	r2,-20(fp)
   40b0c:	10c00703 	ldbu	r3,28(r2)
   40b10:	11000743 	ldbu	r4,29(r2)
   40b14:	2008923a 	slli	r4,r4,8
   40b18:	20c6b03a 	or	r3,r4,r3
   40b1c:	11000783 	ldbu	r4,30(r2)
   40b20:	2008943a 	slli	r4,r4,16
   40b24:	20c6b03a 	or	r3,r4,r3
   40b28:	108007c3 	ldbu	r2,31(r2)
   40b2c:	1004963a 	slli	r2,r2,24
   40b30:	10c4b03a 	or	r2,r2,r3
   40b34:	1007883a 	mov	r3,r2
   40b38:	e0bfff17 	ldw	r2,-4(fp)
   40b3c:	10c04915 	stw	r3,292(r2)
                    }                        
                }                    
            }                
        }            
    }while (!bFind && !fatIsLastDir(pDir) && !bError);
   40b40:	e0bff617 	ldw	r2,-40(fp)
   40b44:	1000051e 	bne	r2,zero,40b5c <Fat_FileBrowseNext+0x414>
   40b48:	e13ffb17 	ldw	r4,-20(fp)
   40b4c:	0041f200 	call	41f20 <fatIsLastDir>
   40b50:	1000021e 	bne	r2,zero,40b5c <Fat_FileBrowseNext+0x414>
   40b54:	e0bff717 	ldw	r2,-36(fp)
   40b58:	103f1126 	beq	r2,zero,407a0 <_gp+0xfffee434>
    
    return bFind;
   40b5c:	e0bff617 	ldw	r2,-40(fp)
    
}
   40b60:	e037883a 	mov	sp,fp
   40b64:	dfc00117 	ldw	ra,4(sp)
   40b68:	df000017 	ldw	fp,0(sp)
   40b6c:	dec00204 	addi	sp,sp,8
   40b70:	f800283a 	ret

00040b74 <Fat_FileCount>:


unsigned int Fat_FileCount(FAT_HANDLE Fat){
   40b74:	deffb004 	addi	sp,sp,-320
   40b78:	dfc04f15 	stw	ra,316(sp)
   40b7c:	df004e15 	stw	fp,312(sp)
   40b80:	df004e04 	addi	fp,sp,312
   40b84:	e13fff15 	stw	r4,-4(fp)
    unsigned int nCount = 0;
   40b88:	e03fb215 	stw	zero,-312(fp)
    FAT_BROWSE_HANDLE hBrowse;
    FILE_CONTEXT FileContext;
    
    if (Fat_FileBrowseBegin(Fat, &hBrowse)){
   40b8c:	e0bfb304 	addi	r2,fp,-308
   40b90:	100b883a 	mov	r5,r2
   40b94:	e13fff17 	ldw	r4,-4(fp)
   40b98:	00406dc0 	call	406dc <Fat_FileBrowseBegin>
   40b9c:	10000a26 	beq	r2,zero,40bc8 <Fat_FileCount+0x54>
        while(Fat_FileBrowseNext(&hBrowse, &FileContext))
   40ba0:	00000306 	br	40bb0 <Fat_FileCount+0x3c>
            nCount++;
   40ba4:	e0bfb217 	ldw	r2,-312(fp)
   40ba8:	10800044 	addi	r2,r2,1
   40bac:	e0bfb215 	stw	r2,-312(fp)
    unsigned int nCount = 0;
    FAT_BROWSE_HANDLE hBrowse;
    FILE_CONTEXT FileContext;
    
    if (Fat_FileBrowseBegin(Fat, &hBrowse)){
        while(Fat_FileBrowseNext(&hBrowse, &FileContext))
   40bb0:	e0ffb504 	addi	r3,fp,-300
   40bb4:	e0bfb304 	addi	r2,fp,-308
   40bb8:	180b883a 	mov	r5,r3
   40bbc:	1009883a 	mov	r4,r2
   40bc0:	00407480 	call	40748 <Fat_FileBrowseNext>
   40bc4:	103ff71e 	bne	r2,zero,40ba4 <_gp+0xfffee838>
            nCount++;
    }
    
    return nCount;
   40bc8:	e0bfb217 	ldw	r2,-312(fp)
}
   40bcc:	e037883a 	mov	sp,fp
   40bd0:	dfc00117 	ldw	ra,4(sp)
   40bd4:	df000017 	ldw	fp,0(sp)
   40bd8:	dec00204 	addi	sp,sp,8
   40bdc:	f800283a 	ret

00040be0 <fatSameLongFilename>:

bool fatSameLongFilename(alt_u16 *p1, alt_u16 *p2){
   40be0:	defffc04 	addi	sp,sp,-16
   40be4:	df000315 	stw	fp,12(sp)
   40be8:	df000304 	addi	fp,sp,12
   40bec:	e13ffe15 	stw	r4,-8(fp)
   40bf0:	e17fff15 	stw	r5,-4(fp)
    bool bSame = TRUE;
   40bf4:	00800044 	movi	r2,1
   40bf8:	e0bffd15 	stw	r2,-12(fp)
    
    while(bSame && ((*p1 != 0) || (*p2 != 0))){
   40bfc:	00000e06 	br	40c38 <fatSameLongFilename+0x58>
        if (*p1 != *p2){
   40c00:	e0bffe17 	ldw	r2,-8(fp)
   40c04:	10c0000b 	ldhu	r3,0(r2)
   40c08:	e0bfff17 	ldw	r2,-4(fp)
   40c0c:	1080000b 	ldhu	r2,0(r2)
   40c10:	18ffffcc 	andi	r3,r3,65535
   40c14:	10bfffcc 	andi	r2,r2,65535
   40c18:	18800126 	beq	r3,r2,40c20 <fatSameLongFilename+0x40>
            bSame = FALSE;
   40c1c:	e03ffd15 	stw	zero,-12(fp)
        }
        p1++;
   40c20:	e0bffe17 	ldw	r2,-8(fp)
   40c24:	10800084 	addi	r2,r2,2
   40c28:	e0bffe15 	stw	r2,-8(fp)
        p2++;
   40c2c:	e0bfff17 	ldw	r2,-4(fp)
   40c30:	10800084 	addi	r2,r2,2
   40c34:	e0bfff15 	stw	r2,-4(fp)
}

bool fatSameLongFilename(alt_u16 *p1, alt_u16 *p2){
    bool bSame = TRUE;
    
    while(bSame && ((*p1 != 0) || (*p2 != 0))){
   40c38:	e0bffd17 	ldw	r2,-12(fp)
   40c3c:	10000826 	beq	r2,zero,40c60 <fatSameLongFilename+0x80>
   40c40:	e0bffe17 	ldw	r2,-8(fp)
   40c44:	1080000b 	ldhu	r2,0(r2)
   40c48:	10bfffcc 	andi	r2,r2,65535
   40c4c:	103fec1e 	bne	r2,zero,40c00 <_gp+0xfffee894>
   40c50:	e0bfff17 	ldw	r2,-4(fp)
   40c54:	1080000b 	ldhu	r2,0(r2)
   40c58:	10bfffcc 	andi	r2,r2,65535
   40c5c:	103fe81e 	bne	r2,zero,40c00 <_gp+0xfffee894>
        p1++;
        p2++;
        
    }
    
    return bSame;
   40c60:	e0bffd17 	ldw	r2,-12(fp)
}
   40c64:	e037883a 	mov	sp,fp
   40c68:	df000017 	ldw	fp,0(sp)
   40c6c:	dec00104 	addi	sp,sp,4
   40c70:	f800283a 	ret

00040c74 <fatComposeShortFilename>:


void fatComposeShortFilename(FAT_DIRECTORY *pDir, char *szFilename){
   40c74:	defffb04 	addi	sp,sp,-20
   40c78:	df000415 	stw	fp,16(sp)
   40c7c:	df000404 	addi	fp,sp,16
   40c80:	e13ffe15 	stw	r4,-8(fp)
   40c84:	e17fff15 	stw	r5,-4(fp)
    int i,nPos=0;
   40c88:	e03ffd15 	stw	zero,-12(fp)
    
    i=0;
   40c8c:	e03ffc15 	stw	zero,-16(fp)
    while(i < 8 && pDir->Name[i] != 0 && pDir->Name[i] != ' ')
   40c90:	00000d06 	br	40cc8 <fatComposeShortFilename+0x54>
        szFilename[nPos++] = pDir->Name[i++];
   40c94:	e0bffd17 	ldw	r2,-12(fp)
   40c98:	10c00044 	addi	r3,r2,1
   40c9c:	e0fffd15 	stw	r3,-12(fp)
   40ca0:	1007883a 	mov	r3,r2
   40ca4:	e0bfff17 	ldw	r2,-4(fp)
   40ca8:	10c7883a 	add	r3,r2,r3
   40cac:	e0bffc17 	ldw	r2,-16(fp)
   40cb0:	11000044 	addi	r4,r2,1
   40cb4:	e13ffc15 	stw	r4,-16(fp)
   40cb8:	e13ffe17 	ldw	r4,-8(fp)
   40cbc:	2085883a 	add	r2,r4,r2
   40cc0:	10800003 	ldbu	r2,0(r2)
   40cc4:	18800005 	stb	r2,0(r3)

void fatComposeShortFilename(FAT_DIRECTORY *pDir, char *szFilename){
    int i,nPos=0;
    
    i=0;
    while(i < 8 && pDir->Name[i] != 0 && pDir->Name[i] != ' ')
   40cc8:	e0bffc17 	ldw	r2,-16(fp)
   40ccc:	10800208 	cmpgei	r2,r2,8
   40cd0:	1000111e 	bne	r2,zero,40d18 <fatComposeShortFilename+0xa4>
   40cd4:	e0fffe17 	ldw	r3,-8(fp)
   40cd8:	e0bffc17 	ldw	r2,-16(fp)
   40cdc:	1885883a 	add	r2,r3,r2
   40ce0:	10800003 	ldbu	r2,0(r2)
   40ce4:	10803fcc 	andi	r2,r2,255
   40ce8:	1080201c 	xori	r2,r2,128
   40cec:	10bfe004 	addi	r2,r2,-128
   40cf0:	10000926 	beq	r2,zero,40d18 <fatComposeShortFilename+0xa4>
   40cf4:	e0fffe17 	ldw	r3,-8(fp)
   40cf8:	e0bffc17 	ldw	r2,-16(fp)
   40cfc:	1885883a 	add	r2,r3,r2
   40d00:	10800003 	ldbu	r2,0(r2)
   40d04:	10803fcc 	andi	r2,r2,255
   40d08:	1080201c 	xori	r2,r2,128
   40d0c:	10bfe004 	addi	r2,r2,-128
   40d10:	10800818 	cmpnei	r2,r2,32
   40d14:	103fdf1e 	bne	r2,zero,40c94 <_gp+0xfffee928>
        szFilename[nPos++] = pDir->Name[i++];
    
    if (pDir->Attribute & (ATTR_ARCHIVE | ATTR_DIRECTORY)){
   40d18:	e0bffe17 	ldw	r2,-8(fp)
   40d1c:	108002c3 	ldbu	r2,11(r2)
   40d20:	10803fcc 	andi	r2,r2,255
   40d24:	10800c0c 	andi	r2,r2,48
   40d28:	10003326 	beq	r2,zero,40df8 <fatComposeShortFilename+0x184>
        if (pDir->Attribute & (ATTR_ARCHIVE | ATTR_DIRECTORY))     
   40d2c:	e0bffe17 	ldw	r2,-8(fp)
   40d30:	108002c3 	ldbu	r2,11(r2)
   40d34:	10803fcc 	andi	r2,r2,255
   40d38:	10800c0c 	andi	r2,r2,48
   40d3c:	10000826 	beq	r2,zero,40d60 <fatComposeShortFilename+0xec>
            szFilename[nPos++] = '.';   
   40d40:	e0bffd17 	ldw	r2,-12(fp)
   40d44:	10c00044 	addi	r3,r2,1
   40d48:	e0fffd15 	stw	r3,-12(fp)
   40d4c:	1007883a 	mov	r3,r2
   40d50:	e0bfff17 	ldw	r2,-4(fp)
   40d54:	10c5883a 	add	r2,r2,r3
   40d58:	00c00b84 	movi	r3,46
   40d5c:	10c00005 	stb	r3,0(r2)
        i=0;
   40d60:	e03ffc15 	stw	zero,-16(fp)
        while(i < 3 && pDir->Extension[i] != 0 && pDir->Extension[i] != ' ')
   40d64:	00000e06 	br	40da0 <fatComposeShortFilename+0x12c>
            szFilename[nPos++] = pDir->Extension[i++];
   40d68:	e0bffd17 	ldw	r2,-12(fp)
   40d6c:	10c00044 	addi	r3,r2,1
   40d70:	e0fffd15 	stw	r3,-12(fp)
   40d74:	1007883a 	mov	r3,r2
   40d78:	e0bfff17 	ldw	r2,-4(fp)
   40d7c:	10c7883a 	add	r3,r2,r3
   40d80:	e0bffc17 	ldw	r2,-16(fp)
   40d84:	11000044 	addi	r4,r2,1
   40d88:	e13ffc15 	stw	r4,-16(fp)
   40d8c:	e13ffe17 	ldw	r4,-8(fp)
   40d90:	2085883a 	add	r2,r4,r2
   40d94:	10800204 	addi	r2,r2,8
   40d98:	10800003 	ldbu	r2,0(r2)
   40d9c:	18800005 	stb	r2,0(r3)
    
    if (pDir->Attribute & (ATTR_ARCHIVE | ATTR_DIRECTORY)){
        if (pDir->Attribute & (ATTR_ARCHIVE | ATTR_DIRECTORY))     
            szFilename[nPos++] = '.';   
        i=0;
        while(i < 3 && pDir->Extension[i] != 0 && pDir->Extension[i] != ' ')
   40da0:	e0bffc17 	ldw	r2,-16(fp)
   40da4:	108000c8 	cmpgei	r2,r2,3
   40da8:	1000131e 	bne	r2,zero,40df8 <fatComposeShortFilename+0x184>
   40dac:	e0fffe17 	ldw	r3,-8(fp)
   40db0:	e0bffc17 	ldw	r2,-16(fp)
   40db4:	1885883a 	add	r2,r3,r2
   40db8:	10800204 	addi	r2,r2,8
   40dbc:	10800003 	ldbu	r2,0(r2)
   40dc0:	10803fcc 	andi	r2,r2,255
   40dc4:	1080201c 	xori	r2,r2,128
   40dc8:	10bfe004 	addi	r2,r2,-128
   40dcc:	10000a26 	beq	r2,zero,40df8 <fatComposeShortFilename+0x184>
   40dd0:	e0fffe17 	ldw	r3,-8(fp)
   40dd4:	e0bffc17 	ldw	r2,-16(fp)
   40dd8:	1885883a 	add	r2,r3,r2
   40ddc:	10800204 	addi	r2,r2,8
   40de0:	10800003 	ldbu	r2,0(r2)
   40de4:	10803fcc 	andi	r2,r2,255
   40de8:	1080201c 	xori	r2,r2,128
   40dec:	10bfe004 	addi	r2,r2,-128
   40df0:	10800818 	cmpnei	r2,r2,32
   40df4:	103fdc1e 	bne	r2,zero,40d68 <_gp+0xfffee9fc>
            szFilename[nPos++] = pDir->Extension[i++];
    }            
    szFilename[nPos++] = 0;
   40df8:	e0bffd17 	ldw	r2,-12(fp)
   40dfc:	10c00044 	addi	r3,r2,1
   40e00:	e0fffd15 	stw	r3,-12(fp)
   40e04:	1007883a 	mov	r3,r2
   40e08:	e0bfff17 	ldw	r2,-4(fp)
   40e0c:	10c5883a 	add	r2,r2,r3
   40e10:	10000005 	stb	zero,0(r2)
}
   40e14:	0001883a 	nop
   40e18:	e037883a 	mov	sp,fp
   40e1c:	df000017 	ldw	fp,0(sp)
   40e20:	dec00104 	addi	sp,sp,4
   40e24:	f800283a 	ret

00040e28 <Fat_FileExist>:





bool Fat_FileExist(FAT_HANDLE Fat, const char *pFilename){
   40e28:	deffaf04 	addi	sp,sp,-324
   40e2c:	dfc05015 	stw	ra,320(sp)
   40e30:	df004f15 	stw	fp,316(sp)
   40e34:	df004f04 	addi	fp,sp,316
   40e38:	e13ffe15 	stw	r4,-8(fp)
   40e3c:	e17fff15 	stw	r5,-4(fp)
    bool bFind = FALSE;
   40e40:	e03fb115 	stw	zero,-316(fp)
    FAT_BROWSE_HANDLE hBrowse;     
    FILE_CONTEXT FileContext;
    if (Fat_FileBrowseBegin(Fat, &hBrowse)){
   40e44:	e0bfb204 	addi	r2,fp,-312
   40e48:	100b883a 	mov	r5,r2
   40e4c:	e13ffe17 	ldw	r4,-8(fp)
   40e50:	00406dc0 	call	406dc <Fat_FileBrowseBegin>
   40e54:	10001a26 	beq	r2,zero,40ec0 <Fat_FileExist+0x98>
        while (!bFind && Fat_FileBrowseNext(&hBrowse, &FileContext)){
   40e58:	00000f06 	br	40e98 <Fat_FileExist+0x70>
            if (FileContext.bLongFilename){
   40e5c:	e0bff417 	ldw	r2,-48(fp)
   40e60:	10000626 	beq	r2,zero,40e7c <Fat_FileExist+0x54>
                bFind = fatSameLongFilename((alt_u16 *)FileContext.szName, (alt_u16 *)pFilename);
   40e64:	e0bfb404 	addi	r2,fp,-304
   40e68:	e17fff17 	ldw	r5,-4(fp)
   40e6c:	1009883a 	mov	r4,r2
   40e70:	0040be00 	call	40be0 <fatSameLongFilename>
   40e74:	e0bfb115 	stw	r2,-316(fp)
   40e78:	00000706 	br	40e98 <Fat_FileExist+0x70>
            }else{
                if (strcmpi(FileContext.szName, pFilename) == 0)
   40e7c:	e0bfb404 	addi	r2,fp,-304
   40e80:	e17fff17 	ldw	r5,-4(fp)
   40e84:	1009883a 	mov	r4,r2
   40e88:	0046fc80 	call	46fc8 <strcasecmp>
   40e8c:	1000021e 	bne	r2,zero,40e98 <Fat_FileExist+0x70>
                    bFind = TRUE;
   40e90:	00800044 	movi	r2,1
   40e94:	e0bfb115 	stw	r2,-316(fp)
bool Fat_FileExist(FAT_HANDLE Fat, const char *pFilename){
    bool bFind = FALSE;
    FAT_BROWSE_HANDLE hBrowse;     
    FILE_CONTEXT FileContext;
    if (Fat_FileBrowseBegin(Fat, &hBrowse)){
        while (!bFind && Fat_FileBrowseNext(&hBrowse, &FileContext)){
   40e98:	e0bfb117 	ldw	r2,-316(fp)
   40e9c:	1000061e 	bne	r2,zero,40eb8 <Fat_FileExist+0x90>
   40ea0:	e0ffb404 	addi	r3,fp,-304
   40ea4:	e0bfb204 	addi	r2,fp,-312
   40ea8:	180b883a 	mov	r5,r3
   40eac:	1009883a 	mov	r4,r2
   40eb0:	00407480 	call	40748 <Fat_FileBrowseNext>
   40eb4:	103fe91e 	bne	r2,zero,40e5c <_gp+0xfffeeaf0>
            }else{
                if (strcmpi(FileContext.szName, pFilename) == 0)
                    bFind = TRUE;
            }    
        } // while 
        Fat_FileClose(Fat); 
   40eb8:	e13ffe17 	ldw	r4,-8(fp)
   40ebc:	00415cc0 	call	415cc <Fat_FileClose>
    }
    return bFind;            
   40ec0:	e0bfb117 	ldw	r2,-316(fp)
}    
   40ec4:	e037883a 	mov	sp,fp
   40ec8:	dfc00117 	ldw	ra,4(sp)
   40ecc:	df000017 	ldw	fp,0(sp)
   40ed0:	dec00204 	addi	sp,sp,8
   40ed4:	f800283a 	ret

00040ed8 <Fat_FileOpen>:
 
// File Access
FAT_FILE_HANDLE Fat_FileOpen(FAT_HANDLE Fat, const char *pFilename){
   40ed8:	deffae04 	addi	sp,sp,-328
   40edc:	dfc05115 	stw	ra,324(sp)
   40ee0:	df005015 	stw	fp,320(sp)
   40ee4:	df005004 	addi	fp,sp,320
   40ee8:	e13ffe15 	stw	r4,-8(fp)
   40eec:	e17fff15 	stw	r5,-4(fp)
    bool bFind = FALSE;
   40ef0:	e03fb015 	stw	zero,-320(fp)
    FAT_BROWSE_HANDLE hBrowse;     
    FILE_CONTEXT FileContext;
    FAT_FILE_INFO *pFile = 0;
   40ef4:	e03fb115 	stw	zero,-316(fp)
    
    if (Fat_FileBrowseBegin(Fat, &hBrowse)){
   40ef8:	e0bfb204 	addi	r2,fp,-312
   40efc:	100b883a 	mov	r5,r2
   40f00:	e13ffe17 	ldw	r4,-8(fp)
   40f04:	00406dc0 	call	406dc <Fat_FileBrowseBegin>
   40f08:	10003826 	beq	r2,zero,40fec <Fat_FileOpen+0x114>
        while (!bFind && Fat_FileBrowseNext(&hBrowse, &FileContext)){
   40f0c:	00000f06 	br	40f4c <Fat_FileOpen+0x74>
            if (FileContext.bLongFilename){
   40f10:	e0bff417 	ldw	r2,-48(fp)
   40f14:	10000626 	beq	r2,zero,40f30 <Fat_FileOpen+0x58>
                bFind = fatSameLongFilename((alt_u16 *)FileContext.szName, (alt_u16 *)pFilename);
   40f18:	e0bfb404 	addi	r2,fp,-304
   40f1c:	e17fff17 	ldw	r5,-4(fp)
   40f20:	1009883a 	mov	r4,r2
   40f24:	0040be00 	call	40be0 <fatSameLongFilename>
   40f28:	e0bfb015 	stw	r2,-320(fp)
   40f2c:	00000706 	br	40f4c <Fat_FileOpen+0x74>
            }else{
                if (strcmpi(FileContext.szName, pFilename) == 0)
   40f30:	e0bfb404 	addi	r2,fp,-304
   40f34:	e17fff17 	ldw	r5,-4(fp)
   40f38:	1009883a 	mov	r4,r2
   40f3c:	0046fc80 	call	46fc8 <strcasecmp>
   40f40:	1000021e 	bne	r2,zero,40f4c <Fat_FileOpen+0x74>
                    bFind = TRUE;
   40f44:	00800044 	movi	r2,1
   40f48:	e0bfb015 	stw	r2,-320(fp)
    FAT_BROWSE_HANDLE hBrowse;     
    FILE_CONTEXT FileContext;
    FAT_FILE_INFO *pFile = 0;
    
    if (Fat_FileBrowseBegin(Fat, &hBrowse)){
        while (!bFind && Fat_FileBrowseNext(&hBrowse, &FileContext)){
   40f4c:	e0bfb017 	ldw	r2,-320(fp)
   40f50:	1000061e 	bne	r2,zero,40f6c <Fat_FileOpen+0x94>
   40f54:	e0ffb404 	addi	r3,fp,-304
   40f58:	e0bfb204 	addi	r2,fp,-312
   40f5c:	180b883a 	mov	r5,r3
   40f60:	1009883a 	mov	r4,r2
   40f64:	00407480 	call	40748 <Fat_FileBrowseNext>
   40f68:	103fe91e 	bne	r2,zero,40f10 <_gp+0xfffeeba4>
                if (strcmpi(FileContext.szName, pFilename) == 0)
                    bFind = TRUE;
            }    
        } // while 
        
        if (bFind){
   40f6c:	e0bfb017 	ldw	r2,-320(fp)
   40f70:	10001e26 	beq	r2,zero,40fec <Fat_FileOpen+0x114>
            pFile = malloc(sizeof(FAT_FILE_INFO));
   40f74:	01005004 	movi	r4,320
   40f78:	0046ab00 	call	46ab0 <malloc>
   40f7c:	e0bfb115 	stw	r2,-316(fp)
            if (pFile){
   40f80:	e0bfb117 	ldw	r2,-316(fp)
   40f84:	10001926 	beq	r2,zero,40fec <Fat_FileOpen+0x114>
                pFile->OpenAttribute = FILE_OPEN_READ; 
   40f88:	e0bfb117 	ldw	r2,-316(fp)
   40f8c:	00c00044 	movi	r3,1
   40f90:	10c00115 	stw	r3,4(r2)
                pFile->SeekPos = 0;
   40f94:	e0bfb117 	ldw	r2,-316(fp)
   40f98:	10000215 	stw	zero,8(r2)
                pFile->Directory = FileContext;
   40f9c:	e0bfb117 	ldw	r2,-316(fp)
   40fa0:	10800504 	addi	r2,r2,20
   40fa4:	e0ffb404 	addi	r3,fp,-304
   40fa8:	01004a04 	movi	r4,296
   40fac:	200d883a 	mov	r6,r4
   40fb0:	180b883a 	mov	r5,r3
   40fb4:	1009883a 	mov	r4,r2
   40fb8:	0046ad80 	call	46ad8 <memcpy>
                pFile->IsOpened = TRUE;
   40fbc:	e0bfb117 	ldw	r2,-316(fp)
   40fc0:	00c00044 	movi	r3,1
   40fc4:	10c00015 	stw	r3,0(r2)
                pFile->Cluster = FileContext.FirstLogicalCluster;
   40fc8:	e0bffc8b 	ldhu	r2,-14(fp)
   40fcc:	10ffffcc 	andi	r3,r2,65535
   40fd0:	e0bfb117 	ldw	r2,-316(fp)
   40fd4:	10c00315 	stw	r3,12(r2)
                pFile->ClusterSeq = 0;
   40fd8:	e0bfb117 	ldw	r2,-316(fp)
   40fdc:	10000415 	stw	zero,16(r2)
                pFile->Fat = Fat;
   40fe0:	e0bfb117 	ldw	r2,-316(fp)
   40fe4:	e0fffe17 	ldw	r3,-8(fp)
   40fe8:	10c04f15 	stw	r3,316(r2)
            }    
        }    
    }  

    
    return (FAT_FILE_HANDLE)pFile;  
   40fec:	e0bfb117 	ldw	r2,-316(fp)
}
   40ff0:	e037883a 	mov	sp,fp
   40ff4:	dfc00117 	ldw	ra,4(sp)
   40ff8:	df000017 	ldw	fp,0(sp)
   40ffc:	dec00204 	addi	sp,sp,8
   41000:	f800283a 	ret

00041004 <Fat_FileSize>:


unsigned int Fat_FileSize(FAT_FILE_HANDLE hFileHandle){
   41004:	defffd04 	addi	sp,sp,-12
   41008:	df000215 	stw	fp,8(sp)
   4100c:	df000204 	addi	fp,sp,8
   41010:	e13fff15 	stw	r4,-4(fp)
    FAT_FILE_INFO *f = (FAT_FILE_INFO *)hFileHandle;
   41014:	e0bfff17 	ldw	r2,-4(fp)
   41018:	e0bffe15 	stw	r2,-8(fp)
    if (f->IsOpened)
   4101c:	e0bffe17 	ldw	r2,-8(fp)
   41020:	10800017 	ldw	r2,0(r2)
   41024:	10000326 	beq	r2,zero,41034 <Fat_FileSize+0x30>
        return f->Directory.FileSize;
   41028:	e0bffe17 	ldw	r2,-8(fp)
   4102c:	10804e17 	ldw	r2,312(r2)
   41030:	00000106 	br	41038 <Fat_FileSize+0x34>
    return 0;        
   41034:	0005883a 	mov	r2,zero
}
   41038:	e037883a 	mov	sp,fp
   4103c:	df000017 	ldw	fp,0(sp)
   41040:	dec00104 	addi	sp,sp,4
   41044:	f800283a 	ret

00041048 <Fat_FileRead>:


bool Fat_FileRead(FAT_FILE_HANDLE hFileHandle, void *pBuffer, const int nBufferSize){
   41048:	deffef04 	addi	sp,sp,-68
   4104c:	dfc01015 	stw	ra,64(sp)
   41050:	df000f15 	stw	fp,60(sp)
   41054:	df000f04 	addi	fp,sp,60
   41058:	e13ffd15 	stw	r4,-12(fp)
   4105c:	e17ffe15 	stw	r5,-8(fp)
   41060:	e1bfff15 	stw	r6,-4(fp)
    FAT_FILE_INFO *f = (FAT_FILE_INFO *)hFileHandle;
   41064:	e0bffd17 	ldw	r2,-12(fp)
   41068:	e0bff915 	stw	r2,-28(fp)
    VOLUME_INFO *pVol;
    alt_u32 Pos, PhysicalSecter, NextCluster, Cluster;
    alt_u32 BytesPerCluster, nReadCount=0, nClusterSeq;
   4106c:	e03ff415 	stw	zero,-48(fp)
    int s;
    bool bSuccess= TRUE;
   41070:	00800044 	movi	r2,1
   41074:	e0bff715 	stw	r2,-36(fp)
    
    if (!f || !f->Fat)
   41078:	e0bff917 	ldw	r2,-28(fp)
   4107c:	10000326 	beq	r2,zero,4108c <Fat_FileRead+0x44>
   41080:	e0bff917 	ldw	r2,-28(fp)
   41084:	10804f17 	ldw	r2,316(r2)
   41088:	1000021e 	bne	r2,zero,41094 <Fat_FileRead+0x4c>
        return FALSE;
   4108c:	0005883a 	mov	r2,zero
   41090:	00010906 	br	414b8 <Fat_FileRead+0x470>
    pVol = (VOLUME_INFO *)f->Fat;        
   41094:	e0bff917 	ldw	r2,-28(fp)
   41098:	10804f17 	ldw	r2,316(r2)
   4109c:	e0bffa15 	stw	r2,-24(fp)
    
    if (!f->IsOpened){
   410a0:	e0bff917 	ldw	r2,-28(fp)
   410a4:	10800017 	ldw	r2,0(r2)
   410a8:	1000021e 	bne	r2,zero,410b4 <Fat_FileRead+0x6c>
        FAT_DEBUG(("[FAT] Fat_FileRead, file not opened\r\n"));
        return bSuccess;
   410ac:	e0bff717 	ldw	r2,-36(fp)
   410b0:	00010106 	br	414b8 <Fat_FileRead+0x470>
    }        
        
    BytesPerCluster = pVol->nBytesPerCluster; //gVolumeInfo.BPB_BytsPerSec * gVolumeInfo.BPB_SecPerCluster;  
   410b4:	e0bffa17 	ldw	r2,-24(fp)
   410b8:	10800c17 	ldw	r2,48(r2)
   410bc:	e0bffb15 	stw	r2,-20(fp)
    Pos = f->SeekPos;
   410c0:	e0bff917 	ldw	r2,-28(fp)
   410c4:	10800217 	ldw	r2,8(r2)
   410c8:	e0bff115 	stw	r2,-60(fp)
    if (BytesPerCluster == 32768){
   410cc:	e0fffb17 	ldw	r3,-20(fp)
   410d0:	00a00014 	movui	r2,32768
   410d4:	18800a1e 	bne	r3,r2,41100 <Fat_FileRead+0xb8>
        nClusterSeq = Pos >> 15;
   410d8:	e0bff117 	ldw	r2,-60(fp)
   410dc:	1004d3fa 	srli	r2,r2,15
   410e0:	e0bff515 	stw	r2,-44(fp)
        Pos -= (f->ClusterSeq << 15);
   410e4:	e0bff917 	ldw	r2,-28(fp)
   410e8:	10800417 	ldw	r2,16(r2)
   410ec:	100493fa 	slli	r2,r2,15
   410f0:	e0fff117 	ldw	r3,-60(fp)
   410f4:	1885c83a 	sub	r2,r3,r2
   410f8:	e0bff115 	stw	r2,-60(fp)
   410fc:	00002706 	br	4119c <Fat_FileRead+0x154>
    }else if (BytesPerCluster == 16384){
   41100:	e0bffb17 	ldw	r2,-20(fp)
   41104:	10900018 	cmpnei	r2,r2,16384
   41108:	10000a1e 	bne	r2,zero,41134 <Fat_FileRead+0xec>
        nClusterSeq = Pos >> 14;
   4110c:	e0bff117 	ldw	r2,-60(fp)
   41110:	1004d3ba 	srli	r2,r2,14
   41114:	e0bff515 	stw	r2,-44(fp)
        Pos -= (f->ClusterSeq << 14);
   41118:	e0bff917 	ldw	r2,-28(fp)
   4111c:	10800417 	ldw	r2,16(r2)
   41120:	100493ba 	slli	r2,r2,14
   41124:	e0fff117 	ldw	r3,-60(fp)
   41128:	1885c83a 	sub	r2,r3,r2
   4112c:	e0bff115 	stw	r2,-60(fp)
   41130:	00001a06 	br	4119c <Fat_FileRead+0x154>
    }else if (BytesPerCluster == 2048){
   41134:	e0bffb17 	ldw	r2,-20(fp)
   41138:	10820018 	cmpnei	r2,r2,2048
   4113c:	10000a1e 	bne	r2,zero,41168 <Fat_FileRead+0x120>
        nClusterSeq = Pos >> 11;
   41140:	e0bff117 	ldw	r2,-60(fp)
   41144:	1004d2fa 	srli	r2,r2,11
   41148:	e0bff515 	stw	r2,-44(fp)
        Pos -= (f->ClusterSeq << 11);
   4114c:	e0bff917 	ldw	r2,-28(fp)
   41150:	10800417 	ldw	r2,16(r2)
   41154:	100492fa 	slli	r2,r2,11
   41158:	e0fff117 	ldw	r3,-60(fp)
   4115c:	1885c83a 	sub	r2,r3,r2
   41160:	e0bff115 	stw	r2,-60(fp)
   41164:	00000d06 	br	4119c <Fat_FileRead+0x154>
    }else{        
        nClusterSeq = Pos/BytesPerCluster;
   41168:	e17ffb17 	ldw	r5,-20(fp)
   4116c:	e13ff117 	ldw	r4,-60(fp)
   41170:	00453800 	call	45380 <__udivsi3>
   41174:	e0bff515 	stw	r2,-44(fp)
        Pos -= f->ClusterSeq*BytesPerCluster;
   41178:	e0bff917 	ldw	r2,-28(fp)
   4117c:	10800417 	ldw	r2,16(r2)
   41180:	e17ffb17 	ldw	r5,-20(fp)
   41184:	1009883a 	mov	r4,r2
   41188:	004543c0 	call	4543c <__mulsi3>
   4118c:	1007883a 	mov	r3,r2
   41190:	e0bff117 	ldw	r2,-60(fp)
   41194:	10c5c83a 	sub	r2,r2,r3
   41198:	e0bff115 	stw	r2,-60(fp)
    }    
        
       
    Cluster = f->Cluster;
   4119c:	e0bff917 	ldw	r2,-28(fp)
   411a0:	10800317 	ldw	r2,12(r2)
   411a4:	e0bff315 	stw	r2,-52(fp)
    if (nClusterSeq != f->ClusterSeq){
   411a8:	e0bff917 	ldw	r2,-28(fp)
   411ac:	10c00417 	ldw	r3,16(r2)
   411b0:	e0bff517 	ldw	r2,-44(fp)
   411b4:	1880b226 	beq	r3,r2,41480 <Fat_FileRead+0x438>
        Cluster = f->Cluster;  //11/20/2007, richard
   411b8:	e0bff917 	ldw	r2,-28(fp)
   411bc:	10800317 	ldw	r2,12(r2)
   411c0:	e0bff315 	stw	r2,-52(fp)
        // move to first clustor for reading
        while (Pos >= BytesPerCluster && bSuccess){
   411c4:	00001606 	br	41220 <Fat_FileRead+0x1d8>
            // go to next cluster
            NextCluster = fatNextCluster(pVol, Cluster); 
   411c8:	e17ff317 	ldw	r5,-52(fp)
   411cc:	e13ffa17 	ldw	r4,-24(fp)
   411d0:	00419600 	call	41960 <fatNextCluster>
   411d4:	e0bffc15 	stw	r2,-16(fp)
            if (NextCluster == 0){
   411d8:	e0bffc17 	ldw	r2,-16(fp)
   411dc:	1000021e 	bne	r2,zero,411e8 <Fat_FileRead+0x1a0>
                bSuccess = FALSE;
   411e0:	e03ff715 	stw	zero,-36(fp)
   411e4:	00000206 	br	411f0 <Fat_FileRead+0x1a8>
                FAT_DEBUG(("[FAT] Fat_FileRead, no next Cluster, current Cluster=%d\r\n", Cluster));
            }else{
                Cluster = NextCluster;
   411e8:	e0bffc17 	ldw	r2,-16(fp)
   411ec:	e0bff315 	stw	r2,-52(fp)
            }        
            Pos -= BytesPerCluster;
   411f0:	e0fff117 	ldw	r3,-60(fp)
   411f4:	e0bffb17 	ldw	r2,-20(fp)
   411f8:	1885c83a 	sub	r2,r3,r2
   411fc:	e0bff115 	stw	r2,-60(fp)
            f->Cluster = Cluster;
   41200:	e0bff917 	ldw	r2,-28(fp)
   41204:	e0fff317 	ldw	r3,-52(fp)
   41208:	10c00315 	stw	r3,12(r2)
            f->ClusterSeq++; 
   4120c:	e0bff917 	ldw	r2,-28(fp)
   41210:	10800417 	ldw	r2,16(r2)
   41214:	10c00044 	addi	r3,r2,1
   41218:	e0bff917 	ldw	r2,-28(fp)
   4121c:	10c00415 	stw	r3,16(r2)
       
    Cluster = f->Cluster;
    if (nClusterSeq != f->ClusterSeq){
        Cluster = f->Cluster;  //11/20/2007, richard
        // move to first clustor for reading
        while (Pos >= BytesPerCluster && bSuccess){
   41220:	e0fff117 	ldw	r3,-60(fp)
   41224:	e0bffb17 	ldw	r2,-20(fp)
   41228:	18809536 	bltu	r3,r2,41480 <Fat_FileRead+0x438>
   4122c:	e0bff717 	ldw	r2,-36(fp)
   41230:	103fe51e 	bne	r2,zero,411c8 <_gp+0xfffeee5c>
            f->ClusterSeq++; 
        }
    }            
    
    // reading
    while(nReadCount < nBufferSize && bSuccess){
   41234:	00009206 	br	41480 <Fat_FileRead+0x438>
        if (pVol->BPB_SecPerCluster == 32)
   41238:	e0bffa17 	ldw	r2,-24(fp)
   4123c:	10800717 	ldw	r2,28(r2)
   41240:	10800818 	cmpnei	r2,r2,32
   41244:	1000081e 	bne	r2,zero,41268 <Fat_FileRead+0x220>
            PhysicalSecter = ((Cluster-2) << 5) + pVol->DataEntrySecter; // -2: FAT0 & FAT1 are reserved
   41248:	e0bff317 	ldw	r2,-52(fp)
   4124c:	10bfff84 	addi	r2,r2,-2
   41250:	1006917a 	slli	r3,r2,5
   41254:	e0bffa17 	ldw	r2,-24(fp)
   41258:	10800f17 	ldw	r2,60(r2)
   4125c:	1885883a 	add	r2,r3,r2
   41260:	e0bff215 	stw	r2,-56(fp)
   41264:	00001806 	br	412c8 <Fat_FileRead+0x280>
        else if (pVol->BPB_SecPerCluster == 64)
   41268:	e0bffa17 	ldw	r2,-24(fp)
   4126c:	10800717 	ldw	r2,28(r2)
   41270:	10801018 	cmpnei	r2,r2,64
   41274:	1000081e 	bne	r2,zero,41298 <Fat_FileRead+0x250>
            PhysicalSecter = ((Cluster-2) << 6) + pVol->DataEntrySecter; // -2: FAT0 & FAT1 are reserved
   41278:	e0bff317 	ldw	r2,-52(fp)
   4127c:	10bfff84 	addi	r2,r2,-2
   41280:	100691ba 	slli	r3,r2,6
   41284:	e0bffa17 	ldw	r2,-24(fp)
   41288:	10800f17 	ldw	r2,60(r2)
   4128c:	1885883a 	add	r2,r3,r2
   41290:	e0bff215 	stw	r2,-56(fp)
   41294:	00000c06 	br	412c8 <Fat_FileRead+0x280>
        else
            PhysicalSecter = (Cluster-2)*pVol->BPB_SecPerCluster + pVol->DataEntrySecter; // -2: FAT0 & FAT1 are reserved
   41298:	e0bff317 	ldw	r2,-52(fp)
   4129c:	10ffff84 	addi	r3,r2,-2
   412a0:	e0bffa17 	ldw	r2,-24(fp)
   412a4:	10800717 	ldw	r2,28(r2)
   412a8:	100b883a 	mov	r5,r2
   412ac:	1809883a 	mov	r4,r3
   412b0:	004543c0 	call	4543c <__mulsi3>
   412b4:	1007883a 	mov	r3,r2
   412b8:	e0bffa17 	ldw	r2,-24(fp)
   412bc:	10800f17 	ldw	r2,60(r2)
   412c0:	1885883a 	add	r2,r3,r2
   412c4:	e0bff215 	stw	r2,-56(fp)
        for(s=0;s<pVol->BPB_SecPerCluster && nReadCount < nBufferSize && bSuccess;s++){
   412c8:	e03ff615 	stw	zero,-40(fp)
   412cc:	00004e06 	br	41408 <Fat_FileRead+0x3c0>
            if (Pos >= pVol->BPB_BytsPerSec){
   412d0:	e0bffa17 	ldw	r2,-24(fp)
   412d4:	10800617 	ldw	r2,24(r2)
   412d8:	e0fff117 	ldw	r3,-60(fp)
   412dc:	18800636 	bltu	r3,r2,412f8 <Fat_FileRead+0x2b0>
                Pos -= pVol->BPB_BytsPerSec;
   412e0:	e0bffa17 	ldw	r2,-24(fp)
   412e4:	10800617 	ldw	r2,24(r2)
   412e8:	e0fff117 	ldw	r3,-60(fp)
   412ec:	1885c83a 	sub	r2,r3,r2
   412f0:	e0bff115 	stw	r2,-60(fp)
   412f4:	00003e06 	br	413f0 <Fat_FileRead+0x3a8>
            }else{
                // read secter data
                bSuccess = fatReadSecter(pVol, PhysicalSecter);
   412f8:	e17ff217 	ldw	r5,-56(fp)
   412fc:	e13ffa17 	ldw	r4,-24(fp)
   41300:	004228c0 	call	4228c <fatReadSecter>
   41304:	e0bff715 	stw	r2,-36(fp)
                
                if (bSuccess){
   41308:	e0bff717 	ldw	r2,-36(fp)
   4130c:	10003826 	beq	r2,zero,413f0 <Fat_FileRead+0x3a8>
                    // copy data to user buffer
                
                    int nCopyCount;
                    nCopyCount = pVol->BPB_BytsPerSec;
   41310:	e0bffa17 	ldw	r2,-24(fp)
   41314:	10800617 	ldw	r2,24(r2)
   41318:	e0bff815 	stw	r2,-32(fp)
                    if (Pos)
   4131c:	e0bff117 	ldw	r2,-60(fp)
   41320:	10000426 	beq	r2,zero,41334 <Fat_FileRead+0x2ec>
                        nCopyCount -= Pos;
   41324:	e0fff817 	ldw	r3,-32(fp)
   41328:	e0bff117 	ldw	r2,-60(fp)
   4132c:	1885c83a 	sub	r2,r3,r2
   41330:	e0bff815 	stw	r2,-32(fp)
                    if (nCopyCount > (nBufferSize-nReadCount))
   41334:	e0ffff17 	ldw	r3,-4(fp)
   41338:	e0bff417 	ldw	r2,-48(fp)
   4133c:	1887c83a 	sub	r3,r3,r2
   41340:	e0bff817 	ldw	r2,-32(fp)
   41344:	1880042e 	bgeu	r3,r2,41358 <Fat_FileRead+0x310>
                        nCopyCount = nBufferSize-nReadCount;
   41348:	e0ffff17 	ldw	r3,-4(fp)
   4134c:	e0bff417 	ldw	r2,-48(fp)
   41350:	1885c83a 	sub	r2,r3,r2
   41354:	e0bff815 	stw	r2,-32(fp)
                    if (nCopyCount == 512){
   41358:	e0bff817 	ldw	r2,-32(fp)
   4135c:	10808018 	cmpnei	r2,r2,512
   41360:	1000111e 	bne	r2,zero,413a8 <Fat_FileRead+0x360>
                        memcpy((char *)pBuffer+nReadCount, pVol->Secter_Data, 512);
   41364:	e0fffe17 	ldw	r3,-8(fp)
   41368:	e0bff417 	ldw	r2,-48(fp)
   4136c:	1887883a 	add	r3,r3,r2
   41370:	e0bffa17 	ldw	r2,-24(fp)
   41374:	10801004 	addi	r2,r2,64
   41378:	01808004 	movi	r6,512
   4137c:	100b883a 	mov	r5,r2
   41380:	1809883a 	mov	r4,r3
   41384:	0046ad80 	call	46ad8 <memcpy>
                        nReadCount += nCopyCount;
   41388:	e0bff817 	ldw	r2,-32(fp)
   4138c:	e0fff417 	ldw	r3,-48(fp)
   41390:	1885883a 	add	r2,r3,r2
   41394:	e0bff415 	stw	r2,-48(fp)
                        if (Pos > 0)
   41398:	e0bff117 	ldw	r2,-60(fp)
   4139c:	10001426 	beq	r2,zero,413f0 <Fat_FileRead+0x3a8>
                            Pos = 0;
   413a0:	e03ff115 	stw	zero,-60(fp)
   413a4:	00001206 	br	413f0 <Fat_FileRead+0x3a8>
                    }else{
                        memcpy((void *)((char *)pBuffer+nReadCount), pVol->Secter_Data+Pos,nCopyCount);
   413a8:	e0fffe17 	ldw	r3,-8(fp)
   413ac:	e0bff417 	ldw	r2,-48(fp)
   413b0:	1889883a 	add	r4,r3,r2
   413b4:	e0bffa17 	ldw	r2,-24(fp)
   413b8:	10c01004 	addi	r3,r2,64
   413bc:	e0bff117 	ldw	r2,-60(fp)
   413c0:	1885883a 	add	r2,r3,r2
   413c4:	e0fff817 	ldw	r3,-32(fp)
   413c8:	180d883a 	mov	r6,r3
   413cc:	100b883a 	mov	r5,r2
   413d0:	0046ad80 	call	46ad8 <memcpy>
                        nReadCount += nCopyCount;
   413d4:	e0bff817 	ldw	r2,-32(fp)
   413d8:	e0fff417 	ldw	r3,-48(fp)
   413dc:	1885883a 	add	r2,r3,r2
   413e0:	e0bff415 	stw	r2,-48(fp)
                        if (Pos > 0)
   413e4:	e0bff117 	ldw	r2,-60(fp)
   413e8:	10000126 	beq	r2,zero,413f0 <Fat_FileRead+0x3a8>
                            Pos = 0;
   413ec:	e03ff115 	stw	zero,-60(fp)
                    }         
                }    // if bSuccess
                    
            }
            PhysicalSecter++;
   413f0:	e0bff217 	ldw	r2,-56(fp)
   413f4:	10800044 	addi	r2,r2,1
   413f8:	e0bff215 	stw	r2,-56(fp)
            PhysicalSecter = ((Cluster-2) << 5) + pVol->DataEntrySecter; // -2: FAT0 & FAT1 are reserved
        else if (pVol->BPB_SecPerCluster == 64)
            PhysicalSecter = ((Cluster-2) << 6) + pVol->DataEntrySecter; // -2: FAT0 & FAT1 are reserved
        else
            PhysicalSecter = (Cluster-2)*pVol->BPB_SecPerCluster + pVol->DataEntrySecter; // -2: FAT0 & FAT1 are reserved
        for(s=0;s<pVol->BPB_SecPerCluster && nReadCount < nBufferSize && bSuccess;s++){
   413fc:	e0bff617 	ldw	r2,-40(fp)
   41400:	10800044 	addi	r2,r2,1
   41404:	e0bff615 	stw	r2,-40(fp)
   41408:	e0bffa17 	ldw	r2,-24(fp)
   4140c:	10800717 	ldw	r2,28(r2)
   41410:	e0fff617 	ldw	r3,-40(fp)
   41414:	1880052e 	bgeu	r3,r2,4142c <Fat_FileRead+0x3e4>
   41418:	e0bfff17 	ldw	r2,-4(fp)
   4141c:	e0fff417 	ldw	r3,-48(fp)
   41420:	1880022e 	bgeu	r3,r2,4142c <Fat_FileRead+0x3e4>
   41424:	e0bff717 	ldw	r2,-36(fp)
   41428:	103fa91e 	bne	r2,zero,412d0 <_gp+0xfffeef64>
            }
            PhysicalSecter++;
        }    
            
        // next cluster
        if (nReadCount < nBufferSize){
   4142c:	e0bfff17 	ldw	r2,-4(fp)
   41430:	e0fff417 	ldw	r3,-48(fp)
   41434:	1880122e 	bgeu	r3,r2,41480 <Fat_FileRead+0x438>
            NextCluster = fatNextCluster(pVol, Cluster); 
   41438:	e17ff317 	ldw	r5,-52(fp)
   4143c:	e13ffa17 	ldw	r4,-24(fp)
   41440:	00419600 	call	41960 <fatNextCluster>
   41444:	e0bffc15 	stw	r2,-16(fp)
            if (NextCluster == 0){
   41448:	e0bffc17 	ldw	r2,-16(fp)
   4144c:	1000021e 	bne	r2,zero,41458 <Fat_FileRead+0x410>
                bSuccess = FALSE;
   41450:	e03ff715 	stw	zero,-36(fp)
   41454:	00000206 	br	41460 <Fat_FileRead+0x418>
                FAT_DEBUG(("[FAT] Fat_FileRead, no next cluster\r\n"));
            }else{
                Cluster = NextCluster;
   41458:	e0bffc17 	ldw	r2,-16(fp)
   4145c:	e0bff315 	stw	r2,-52(fp)
            }    
            //    
            f->ClusterSeq++; 
   41460:	e0bff917 	ldw	r2,-28(fp)
   41464:	10800417 	ldw	r2,16(r2)
   41468:	10c00044 	addi	r3,r2,1
   4146c:	e0bff917 	ldw	r2,-28(fp)
   41470:	10c00415 	stw	r3,16(r2)
            f->Cluster = Cluster;
   41474:	e0bff917 	ldw	r2,-28(fp)
   41478:	e0fff317 	ldw	r3,-52(fp)
   4147c:	10c00315 	stw	r3,12(r2)
            f->ClusterSeq++; 
        }
    }            
    
    // reading
    while(nReadCount < nBufferSize && bSuccess){
   41480:	e0bfff17 	ldw	r2,-4(fp)
   41484:	e0fff417 	ldw	r3,-48(fp)
   41488:	1880022e 	bgeu	r3,r2,41494 <Fat_FileRead+0x44c>
   4148c:	e0bff717 	ldw	r2,-36(fp)
   41490:	103f691e 	bne	r2,zero,41238 <_gp+0xfffeeecc>
            f->ClusterSeq++; 
            f->Cluster = Cluster;
        }                    
    }
    
    if (bSuccess){
   41494:	e0bff717 	ldw	r2,-36(fp)
   41498:	10000626 	beq	r2,zero,414b4 <Fat_FileRead+0x46c>
        f->SeekPos += nBufferSize;
   4149c:	e0bff917 	ldw	r2,-28(fp)
   414a0:	10c00217 	ldw	r3,8(r2)
   414a4:	e0bfff17 	ldw	r2,-4(fp)
   414a8:	1887883a 	add	r3,r3,r2
   414ac:	e0bff917 	ldw	r2,-28(fp)
   414b0:	10c00215 	stw	r3,8(r2)
    }        
        
    
    return bSuccess;
   414b4:	e0bff717 	ldw	r2,-36(fp)
}
   414b8:	e037883a 	mov	sp,fp
   414bc:	dfc00117 	ldw	ra,4(sp)
   414c0:	df000017 	ldw	fp,0(sp)
   414c4:	dec00204 	addi	sp,sp,8
   414c8:	f800283a 	ret

000414cc <Fat_FileSeek>:


bool Fat_FileSeek(FAT_FILE_HANDLE hFileHandle, const FAT_SEEK_POS SeekPos, const int nOffset){
   414cc:	defff904 	addi	sp,sp,-28
   414d0:	df000615 	stw	fp,24(sp)
   414d4:	df000604 	addi	fp,sp,24
   414d8:	e13ffd15 	stw	r4,-12(fp)
   414dc:	e17ffe15 	stw	r5,-8(fp)
   414e0:	e1bfff15 	stw	r6,-4(fp)
    FAT_FILE_INFO *f = (FAT_FILE_INFO *)hFileHandle;
   414e4:	e0bffd17 	ldw	r2,-12(fp)
   414e8:	e0bffb15 	stw	r2,-20(fp)
    VOLUME_INFO *pVol;
    bool bSuccess= TRUE;
   414ec:	00800044 	movi	r2,1
   414f0:	e0bffa15 	stw	r2,-24(fp)

    if (!f || !f->Fat)
   414f4:	e0bffb17 	ldw	r2,-20(fp)
   414f8:	10000326 	beq	r2,zero,41508 <Fat_FileSeek+0x3c>
   414fc:	e0bffb17 	ldw	r2,-20(fp)
   41500:	10804f17 	ldw	r2,316(r2)
   41504:	1000021e 	bne	r2,zero,41510 <Fat_FileSeek+0x44>
        return FALSE;
   41508:	0005883a 	mov	r2,zero
   4150c:	00002b06 	br	415bc <Fat_FileSeek+0xf0>
    pVol = (VOLUME_INFO *)f->Fat;        
   41510:	e0bffb17 	ldw	r2,-20(fp)
   41514:	10804f17 	ldw	r2,316(r2)
   41518:	e0bffc15 	stw	r2,-16(fp)
    
    if (!f->IsOpened)
   4151c:	e0bffb17 	ldw	r2,-20(fp)
   41520:	10800017 	ldw	r2,0(r2)
   41524:	1000021e 	bne	r2,zero,41530 <Fat_FileSeek+0x64>
        return FALSE;
   41528:	0005883a 	mov	r2,zero
   4152c:	00002306 	br	415bc <Fat_FileSeek+0xf0>
        
    switch(SeekPos){
   41530:	e0bffe17 	ldw	r2,-8(fp)
   41534:	10c00060 	cmpeqi	r3,r2,1
   41538:	1800081e 	bne	r3,zero,4155c <Fat_FileSeek+0x90>
   4153c:	0080032e 	bgeu	zero,r2,4154c <Fat_FileSeek+0x80>
   41540:	108000a0 	cmpeqi	r2,r2,2
   41544:	10000c1e 	bne	r2,zero,41578 <Fat_FileSeek+0xac>
   41548:	00001206 	br	41594 <Fat_FileSeek+0xc8>
        case FILE_SEEK_BEGIN: 
            f->SeekPos = nOffset; 
   4154c:	e0ffff17 	ldw	r3,-4(fp)
   41550:	e0bffb17 	ldw	r2,-20(fp)
   41554:	10c00215 	stw	r3,8(r2)
            break;
   41558:	00001006 	br	4159c <Fat_FileSeek+0xd0>
        case FILE_SEEK_CURRENT: 
            f->SeekPos += nOffset; 
   4155c:	e0bffb17 	ldw	r2,-20(fp)
   41560:	10c00217 	ldw	r3,8(r2)
   41564:	e0bfff17 	ldw	r2,-4(fp)
   41568:	1887883a 	add	r3,r3,r2
   4156c:	e0bffb17 	ldw	r2,-20(fp)
   41570:	10c00215 	stw	r3,8(r2)
            break;
   41574:	00000906 	br	4159c <Fat_FileSeek+0xd0>
        case FILE_SEEK_END: 
            f->SeekPos = f->Directory.FileSize+nOffset; 
   41578:	e0bffb17 	ldw	r2,-20(fp)
   4157c:	10c04e17 	ldw	r3,312(r2)
   41580:	e0bfff17 	ldw	r2,-4(fp)
   41584:	1887883a 	add	r3,r3,r2
   41588:	e0bffb17 	ldw	r2,-20(fp)
   4158c:	10c00215 	stw	r3,8(r2)
            break;
   41590:	00000206 	br	4159c <Fat_FileSeek+0xd0>
        default:
            bSuccess = FALSE;
   41594:	e03ffa15 	stw	zero,-24(fp)
            break;    
   41598:	0001883a 	nop
              
    }
    f->Cluster = f->Directory.FirstLogicalCluster;
   4159c:	e0bffb17 	ldw	r2,-20(fp)
   415a0:	10804d8b 	ldhu	r2,310(r2)
   415a4:	10ffffcc 	andi	r3,r2,65535
   415a8:	e0bffb17 	ldw	r2,-20(fp)
   415ac:	10c00315 	stw	r3,12(r2)
    f->ClusterSeq = 0;
   415b0:	e0bffb17 	ldw	r2,-20(fp)
   415b4:	10000415 	stw	zero,16(r2)
    
    return bSuccess;
   415b8:	e0bffa17 	ldw	r2,-24(fp)
    
}
   415bc:	e037883a 	mov	sp,fp
   415c0:	df000017 	ldw	fp,0(sp)
   415c4:	dec00104 	addi	sp,sp,4
   415c8:	f800283a 	ret

000415cc <Fat_FileClose>:

void Fat_FileClose(FAT_FILE_HANDLE hFileHandle){
   415cc:	defffc04 	addi	sp,sp,-16
   415d0:	dfc00315 	stw	ra,12(sp)
   415d4:	df000215 	stw	fp,8(sp)
   415d8:	df000204 	addi	fp,sp,8
   415dc:	e13fff15 	stw	r4,-4(fp)
    FAT_FILE_INFO *f = (FAT_FILE_INFO *)hFileHandle;
   415e0:	e0bfff17 	ldw	r2,-4(fp)
   415e4:	e0bffe15 	stw	r2,-8(fp)
    if (!f)
   415e8:	e0bffe17 	ldw	r2,-8(fp)
   415ec:	10000326 	beq	r2,zero,415fc <Fat_FileClose+0x30>
        return;
        
    free(f);        
   415f0:	e13ffe17 	ldw	r4,-8(fp)
   415f4:	0046ac40 	call	46ac4 <free>
   415f8:	00000106 	br	41600 <Fat_FileClose+0x34>
}

void Fat_FileClose(FAT_FILE_HANDLE hFileHandle){
    FAT_FILE_INFO *f = (FAT_FILE_INFO *)hFileHandle;
    if (!f)
        return;
   415fc:	0001883a 	nop
        
    free(f);        
}
   41600:	e037883a 	mov	sp,fp
   41604:	dfc00117 	ldw	ra,4(sp)
   41608:	df000017 	ldw	fp,0(sp)
   4160c:	dec00204 	addi	sp,sp,8
   41610:	f800283a 	ret

00041614 <Fat_SpeedTest>:



float Fat_SpeedTest(FAT_HANDLE hFat, alt_u32 TestDurInMs){
   41614:	deff7304 	addi	sp,sp,-564
   41618:	dfc08c15 	stw	ra,560(sp)
   4161c:	df008b15 	stw	fp,556(sp)
   41620:	dc008a15 	stw	r16,552(sp)
   41624:	df008b04 	addi	fp,sp,556
   41628:	e13ffd15 	stw	r4,-12(fp)
   4162c:	e17ffe15 	stw	r5,-8(fp)
    bool bSuccess = TRUE;
   41630:	00800044 	movi	r2,1
   41634:	e0bf7515 	stw	r2,-556(fp)
    alt_u32 time_start, time_finish, time_elapsed, TotalReadBytes=0;
   41638:	e03f7615 	stw	zero,-552(fp)
    int nSecter = 0;
   4163c:	e03f7715 	stw	zero,-548(fp)
    float fMegaBytePerSec = 0;
   41640:	e03f7815 	stw	zero,-544(fp)
    char szBlock[512];
    VOLUME_INFO *pVol = (VOLUME_INFO *)hFat;
   41644:	e0bffd17 	ldw	r2,-12(fp)
   41648:	e0bf7915 	stw	r2,-540(fp)
    if (!pVol)
   4164c:	e0bf7917 	ldw	r2,-540(fp)
   41650:	1000021e 	bne	r2,zero,4165c <Fat_SpeedTest+0x48>
        return 0;
   41654:	0005883a 	mov	r2,zero
   41658:	00005a06 	br	417c4 <Fat_SpeedTest+0x1b0>
 * alt_nticks() returns the elapsed number of system clock ticks since reset.
 */

static ALT_INLINE alt_u32 ALT_ALWAYS_INLINE alt_nticks (void)
{
  return _alt_nticks;
   4165c:	d0a0ce17 	ldw	r2,-31944(gp)
    time_start = alt_nticks();
   41660:	e0bf7a15 	stw	r2,-536(fp)
   41664:	d420ce17 	ldw	r16,-31944(gp)
    time_finish = alt_nticks() + TestDurInMs * 1000 / alt_ticks_per_second();
   41668:	0140fa04 	movi	r5,1000
   4166c:	e13ffe17 	ldw	r4,-8(fp)
   41670:	004543c0 	call	4543c <__mulsi3>
   41674:	1007883a 	mov	r3,r2
 * Obtain the system clock rate in ticks/s. 
 */

static ALT_INLINE alt_u32 ALT_ALWAYS_INLINE alt_ticks_per_second (void)
{
  return _alt_tick_rate;
   41678:	d0a0cd17 	ldw	r2,-31948(gp)
   4167c:	100b883a 	mov	r5,r2
   41680:	1809883a 	mov	r4,r3
   41684:	00453800 	call	45380 <__udivsi3>
   41688:	8085883a 	add	r2,r16,r2
   4168c:	e0bf7b15 	stw	r2,-532(fp)
    while(alt_nticks() < time_finish && bSuccess){
   41690:	00001106 	br	416d8 <Fat_SpeedTest+0xc4>
        bSuccess = pVol->ReadBlock512(pVol->DiskHandle, nSecter, szBlock);
   41694:	e0bf7917 	ldw	r2,-540(fp)
   41698:	10800117 	ldw	r2,4(r2)
   4169c:	e0ff7917 	ldw	r3,-540(fp)
   416a0:	18c00017 	ldw	r3,0(r3)
   416a4:	e13f7717 	ldw	r4,-548(fp)
   416a8:	e17f7d04 	addi	r5,fp,-524
   416ac:	280d883a 	mov	r6,r5
   416b0:	200b883a 	mov	r5,r4
   416b4:	1809883a 	mov	r4,r3
   416b8:	103ee83a 	callr	r2
   416bc:	e0bf7515 	stw	r2,-556(fp)
        nSecter++;
   416c0:	e0bf7717 	ldw	r2,-548(fp)
   416c4:	10800044 	addi	r2,r2,1
   416c8:	e0bf7715 	stw	r2,-548(fp)
        TotalReadBytes += sizeof(szBlock);
   416cc:	e0bf7617 	ldw	r2,-552(fp)
   416d0:	10808004 	addi	r2,r2,512
   416d4:	e0bf7615 	stw	r2,-552(fp)
 * alt_nticks() returns the elapsed number of system clock ticks since reset.
 */

static ALT_INLINE alt_u32 ALT_ALWAYS_INLINE alt_nticks (void)
{
  return _alt_nticks;
   416d8:	d0e0ce17 	ldw	r3,-31944(gp)
    VOLUME_INFO *pVol = (VOLUME_INFO *)hFat;
    if (!pVol)
        return 0;
    time_start = alt_nticks();
    time_finish = alt_nticks() + TestDurInMs * 1000 / alt_ticks_per_second();
    while(alt_nticks() < time_finish && bSuccess){
   416dc:	e0bf7b17 	ldw	r2,-532(fp)
   416e0:	1880022e 	bgeu	r3,r2,416ec <Fat_SpeedTest+0xd8>
   416e4:	e0bf7517 	ldw	r2,-556(fp)
   416e8:	103fea1e 	bne	r2,zero,41694 <_gp+0xfffef328>
        bSuccess = pVol->ReadBlock512(pVol->DiskHandle, nSecter, szBlock);
        nSecter++;
        TotalReadBytes += sizeof(szBlock);
        
    }        
    if (bSuccess){
   416ec:	e0bf7517 	ldw	r2,-556(fp)
   416f0:	10003326 	beq	r2,zero,417c0 <Fat_SpeedTest+0x1ac>
   416f4:	d0e0ce17 	ldw	r3,-31944(gp)
        time_elapsed = alt_nticks() - time_start;
   416f8:	e0bf7a17 	ldw	r2,-536(fp)
   416fc:	1885c83a 	sub	r2,r3,r2
   41700:	e0bf7c15 	stw	r2,-528(fp)
        fMegaBytePerSec = (float)TotalReadBytes * (float)alt_ticks_per_second() / (float)time_elapsed / 1024.0 / 1024.0;
   41704:	e13f7617 	ldw	r4,-552(fp)
   41708:	0045cd40 	call	45cd4 <__floatunsisf>
   4170c:	1021883a 	mov	r16,r2
 * Obtain the system clock rate in ticks/s. 
 */

static ALT_INLINE alt_u32 ALT_ALWAYS_INLINE alt_ticks_per_second (void)
{
  return _alt_tick_rate;
   41710:	d0a0cd17 	ldw	r2,-31948(gp)
   41714:	1009883a 	mov	r4,r2
   41718:	0045cd40 	call	45cd4 <__floatunsisf>
   4171c:	1007883a 	mov	r3,r2
   41720:	180b883a 	mov	r5,r3
   41724:	8009883a 	mov	r4,r16
   41728:	00458a40 	call	458a4 <__mulsf3>
   4172c:	1007883a 	mov	r3,r2
   41730:	1821883a 	mov	r16,r3
   41734:	e13f7c17 	ldw	r4,-528(fp)
   41738:	0045cd40 	call	45cd4 <__floatunsisf>
   4173c:	1007883a 	mov	r3,r2
   41740:	180b883a 	mov	r5,r3
   41744:	8009883a 	mov	r4,r16
   41748:	00454640 	call	45464 <__divsf3>
   4174c:	1007883a 	mov	r3,r2
   41750:	1805883a 	mov	r2,r3
   41754:	1009883a 	mov	r4,r2
   41758:	00467940 	call	46794 <__extendsfdf2>
   4175c:	1011883a 	mov	r8,r2
   41760:	1813883a 	mov	r9,r3
   41764:	000d883a 	mov	r6,zero
   41768:	01d02434 	movhi	r7,16528
   4176c:	4009883a 	mov	r4,r8
   41770:	480b883a 	mov	r5,r9
   41774:	0045dc40 	call	45dc4 <__divdf3>
   41778:	1009883a 	mov	r4,r2
   4177c:	180b883a 	mov	r5,r3
   41780:	2005883a 	mov	r2,r4
   41784:	2807883a 	mov	r3,r5
   41788:	000d883a 	mov	r6,zero
   4178c:	01d02434 	movhi	r7,16528
   41790:	1009883a 	mov	r4,r2
   41794:	180b883a 	mov	r5,r3
   41798:	0045dc40 	call	45dc4 <__divdf3>
   4179c:	1009883a 	mov	r4,r2
   417a0:	180b883a 	mov	r5,r3
   417a4:	2005883a 	mov	r2,r4
   417a8:	2807883a 	mov	r3,r5
   417ac:	1009883a 	mov	r4,r2
   417b0:	180b883a 	mov	r5,r3
   417b4:	00468a40 	call	468a4 <__truncdfsf2>
   417b8:	1007883a 	mov	r3,r2
   417bc:	e0ff7815 	stw	r3,-544(fp)
    }        
    return fMegaBytePerSec;
   417c0:	e0bf7817 	ldw	r2,-544(fp)
   417c4:	1007883a 	mov	r3,r2
    
   
}
   417c8:	1805883a 	mov	r2,r3
   417cc:	e6ffff04 	addi	sp,fp,-4
   417d0:	dfc00217 	ldw	ra,8(sp)
   417d4:	df000117 	ldw	fp,4(sp)
   417d8:	dc000017 	ldw	r16,0(sp)
   417dc:	dec00304 	addi	sp,sp,12
   417e0:	f800283a 	ret

000417e4 <fat16ClusterType>:
//extern VOLUME_INFO gVolumeInfo;




CLUSTER_TYPE fat16ClusterType(alt_u32 Fat){
   417e4:	defffd04 	addi	sp,sp,-12
   417e8:	df000215 	stw	fp,8(sp)
   417ec:	df000204 	addi	fp,sp,8
   417f0:	e13fff15 	stw	r4,-4(fp)
    CLUSTER_TYPE Type;
    Fat = Fat & 0xFFFF; // 16 bits
   417f4:	e0bfff17 	ldw	r2,-4(fp)
   417f8:	10bfffcc 	andi	r2,r2,65535
   417fc:	e0bfff15 	stw	r2,-4(fp)
    
    if (Fat > 0 && Fat < 0xFFF0)
   41800:	e0bfff17 	ldw	r2,-4(fp)
   41804:	10000626 	beq	r2,zero,41820 <fat16ClusterType+0x3c>
   41808:	e0bfff17 	ldw	r2,-4(fp)
   4180c:	10bffc28 	cmpgeui	r2,r2,65520
   41810:	1000031e 	bne	r2,zero,41820 <fat16ClusterType+0x3c>
        Type = CLUSTER_NEXT_INFILE;
   41814:	00800104 	movi	r2,4
   41818:	e0bffe15 	stw	r2,-8(fp)
   4181c:	00001806 	br	41880 <fat16ClusterType+0x9c>
    else if (Fat >= 0xFFF8) // && Fat <= (unsigned short)0xFFFF)
   41820:	e0bfff17 	ldw	r2,-4(fp)
   41824:	10bffe30 	cmpltui	r2,r2,65528
   41828:	1000031e 	bne	r2,zero,41838 <fat16ClusterType+0x54>
        Type = CLUSTER_LAST_INFILE;
   4182c:	008000c4 	movi	r2,3
   41830:	e0bffe15 	stw	r2,-8(fp)
   41834:	00001206 	br	41880 <fat16ClusterType+0x9c>
    else if (Fat == (alt_u16)0x00)
   41838:	e0bfff17 	ldw	r2,-4(fp)
   4183c:	1000021e 	bne	r2,zero,41848 <fat16ClusterType+0x64>
        Type = CLUSTER_UNUSED;
   41840:	e03ffe15 	stw	zero,-8(fp)
   41844:	00000e06 	br	41880 <fat16ClusterType+0x9c>
    else if (Fat >= 0xFFF0 && Fat <= 0xFFF6)
   41848:	e0bfff17 	ldw	r2,-4(fp)
   4184c:	10bffc30 	cmpltui	r2,r2,65520
   41850:	1000061e 	bne	r2,zero,4186c <fat16ClusterType+0x88>
   41854:	e0bfff17 	ldw	r2,-4(fp)
   41858:	10bffde8 	cmpgeui	r2,r2,65527
   4185c:	1000031e 	bne	r2,zero,4186c <fat16ClusterType+0x88>
        Type = CLUSTER_RESERVED;
   41860:	00800044 	movi	r2,1
   41864:	e0bffe15 	stw	r2,-8(fp)
   41868:	00000506 	br	41880 <fat16ClusterType+0x9c>
    else if (Fat == 0xFFF7)
   4186c:	e0ffff17 	ldw	r3,-4(fp)
   41870:	00bffdd4 	movui	r2,65527
   41874:	1880021e 	bne	r3,r2,41880 <fat16ClusterType+0x9c>
        Type = CLUSTER_BAD;
   41878:	00800084 	movi	r2,2
   4187c:	e0bffe15 	stw	r2,-8(fp)
        
    return Type;        
   41880:	e0bffe17 	ldw	r2,-8(fp)
         
}
   41884:	e037883a 	mov	sp,fp
   41888:	df000017 	ldw	fp,0(sp)
   4188c:	dec00104 	addi	sp,sp,4
   41890:	f800283a 	ret

00041894 <fat32ClusterType>:

CLUSTER_TYPE fat32ClusterType(alt_u32 Fat){
   41894:	defffd04 	addi	sp,sp,-12
   41898:	df000215 	stw	fp,8(sp)
   4189c:	df000204 	addi	fp,sp,8
   418a0:	e13fff15 	stw	r4,-4(fp)
    CLUSTER_TYPE Type;
    Fat = Fat & 0xFFFFFFF; // 28 bits
   418a4:	e0ffff17 	ldw	r3,-4(fp)
   418a8:	00840034 	movhi	r2,4096
   418ac:	10bfffc4 	addi	r2,r2,-1
   418b0:	1884703a 	and	r2,r3,r2
   418b4:	e0bfff15 	stw	r2,-4(fp)
    
    if (Fat > 0 && Fat < 0xFFFFFF0)
   418b8:	e0bfff17 	ldw	r2,-4(fp)
   418bc:	10000726 	beq	r2,zero,418dc <fat32ClusterType+0x48>
   418c0:	e0ffff17 	ldw	r3,-4(fp)
   418c4:	00840034 	movhi	r2,4096
   418c8:	10bffbc4 	addi	r2,r2,-17
   418cc:	10c00336 	bltu	r2,r3,418dc <fat32ClusterType+0x48>
        Type = CLUSTER_NEXT_INFILE;
   418d0:	00800104 	movi	r2,4
   418d4:	e0bffe15 	stw	r2,-8(fp)
   418d8:	00001c06 	br	4194c <fat32ClusterType+0xb8>
    else if (Fat >= 0xFFFFFF8) // && Fat <= (unsigned short)0xFFFF)
   418dc:	e0ffff17 	ldw	r3,-4(fp)
   418e0:	00840034 	movhi	r2,4096
   418e4:	10bffdc4 	addi	r2,r2,-9
   418e8:	10c0032e 	bgeu	r2,r3,418f8 <fat32ClusterType+0x64>
        Type = CLUSTER_LAST_INFILE;
   418ec:	008000c4 	movi	r2,3
   418f0:	e0bffe15 	stw	r2,-8(fp)
   418f4:	00001506 	br	4194c <fat32ClusterType+0xb8>
    else if (Fat == (alt_u32)0x00)
   418f8:	e0bfff17 	ldw	r2,-4(fp)
   418fc:	1000021e 	bne	r2,zero,41908 <fat32ClusterType+0x74>
        Type = CLUSTER_UNUSED;
   41900:	e03ffe15 	stw	zero,-8(fp)
   41904:	00001106 	br	4194c <fat32ClusterType+0xb8>
    else if (Fat >= 0xFFFFFF0 && Fat <= 0xFFFFFF6)
   41908:	e0ffff17 	ldw	r3,-4(fp)
   4190c:	00840034 	movhi	r2,4096
   41910:	10bffbc4 	addi	r2,r2,-17
   41914:	10c0072e 	bgeu	r2,r3,41934 <fat32ClusterType+0xa0>
   41918:	e0ffff17 	ldw	r3,-4(fp)
   4191c:	00840034 	movhi	r2,4096
   41920:	10bffd84 	addi	r2,r2,-10
   41924:	10c00336 	bltu	r2,r3,41934 <fat32ClusterType+0xa0>
        Type = CLUSTER_RESERVED;
   41928:	00800044 	movi	r2,1
   4192c:	e0bffe15 	stw	r2,-8(fp)
   41930:	00000606 	br	4194c <fat32ClusterType+0xb8>
    else if (Fat == 0xFFFFFF7)
   41934:	e0ffff17 	ldw	r3,-4(fp)
   41938:	00840034 	movhi	r2,4096
   4193c:	10bffdc4 	addi	r2,r2,-9
   41940:	1880021e 	bne	r3,r2,4194c <fat32ClusterType+0xb8>
        Type = CLUSTER_BAD;
   41944:	00800084 	movi	r2,2
   41948:	e0bffe15 	stw	r2,-8(fp)
        
    return Type;        
   4194c:	e0bffe17 	ldw	r2,-8(fp)
         
}
   41950:	e037883a 	mov	sp,fp
   41954:	df000017 	ldw	fp,0(sp)
   41958:	dec00104 	addi	sp,sp,4
   4195c:	f800283a 	ret

00041960 <fatNextCluster>:

alt_u32 fatNextCluster(VOLUME_INFO *pVol, alt_u32 ThisCluster){
   41960:	defff604 	addi	sp,sp,-40
   41964:	dfc00915 	stw	ra,36(sp)
   41968:	df000815 	stw	fp,32(sp)
   4196c:	dc000715 	stw	r16,28(sp)
   41970:	df000804 	addi	fp,sp,32
   41974:	e13ffd15 	stw	r4,-12(fp)
   41978:	e17ffe15 	stw	r5,-8(fp)
    if (ClusterType != CLUSTER_NEXT_INFILE && ClusterType != CLUSTER_LAST_INFILE){
        NextCluster = 0;  // invalid cluster
    }        
#else
    alt_32 nFatEntryPerSecter;
    const alt_32 nFatEntrySize = (pVol->Partition_Type == PARTITION_FAT32)?4:2; // 2 byte for FAT16
   4197c:	e0bffd17 	ldw	r2,-12(fp)
   41980:	10800317 	ldw	r2,12(r2)
   41984:	10800318 	cmpnei	r2,r2,12
   41988:	1000021e 	bne	r2,zero,41994 <fatNextCluster+0x34>
   4198c:	00800104 	movi	r2,4
   41990:	00000106 	br	41998 <fatNextCluster+0x38>
   41994:	00800084 	movi	r2,2
   41998:	e0bffa15 	stw	r2,-24(fp)
    alt_u32 Secter;
   // char szBlock[512];
    nFatEntryPerSecter = pVol->BPB_BytsPerSec/nFatEntrySize; 
   4199c:	e0bffd17 	ldw	r2,-12(fp)
   419a0:	10800617 	ldw	r2,24(r2)
   419a4:	e0fffa17 	ldw	r3,-24(fp)
   419a8:	180b883a 	mov	r5,r3
   419ac:	1009883a 	mov	r4,r2
   419b0:	00453800 	call	45380 <__udivsi3>
   419b4:	e0bffb15 	stw	r2,-20(fp)
    Secter = pVol->FatEntrySecter + (ThisCluster*nFatEntrySize)/pVol->BPB_BytsPerSec;
   419b8:	e0bffd17 	ldw	r2,-12(fp)
   419bc:	14000d17 	ldw	r16,52(r2)
   419c0:	e0bffa17 	ldw	r2,-24(fp)
   419c4:	e17ffe17 	ldw	r5,-8(fp)
   419c8:	1009883a 	mov	r4,r2
   419cc:	004543c0 	call	4543c <__mulsi3>
   419d0:	1007883a 	mov	r3,r2
   419d4:	e0bffd17 	ldw	r2,-12(fp)
   419d8:	10800617 	ldw	r2,24(r2)
   419dc:	100b883a 	mov	r5,r2
   419e0:	1809883a 	mov	r4,r3
   419e4:	00453800 	call	45380 <__udivsi3>
   419e8:	8085883a 	add	r2,r16,r2
   419ec:	e0bffc15 	stw	r2,-16(fp)
    //if (pVol->ReadBlock512(pVol->DiskHandle, Secter,szBlock)){
    if (fatReadSecter(pVol, Secter)){
   419f0:	e17ffc17 	ldw	r5,-16(fp)
   419f4:	e13ffd17 	ldw	r4,-12(fp)
   419f8:	004228c0 	call	4228c <fatReadSecter>
   419fc:	10003126 	beq	r2,zero,41ac4 <fatNextCluster+0x164>
        if (pVol->Partition_Type == PARTITION_FAT32){
   41a00:	e0bffd17 	ldw	r2,-12(fp)
   41a04:	10800317 	ldw	r2,12(r2)
   41a08:	10800318 	cmpnei	r2,r2,12
   41a0c:	1000131e 	bne	r2,zero,41a5c <fatNextCluster+0xfc>
            NextCluster = *(alt_u32*)(pVol->Secter_Data + (ThisCluster%nFatEntryPerSecter)*nFatEntrySize); 
   41a10:	e0bffd17 	ldw	r2,-12(fp)
   41a14:	14001004 	addi	r16,r2,64
   41a18:	e0fffb17 	ldw	r3,-20(fp)
   41a1c:	e0bffe17 	ldw	r2,-8(fp)
   41a20:	180b883a 	mov	r5,r3
   41a24:	1009883a 	mov	r4,r2
   41a28:	00453e40 	call	453e4 <__umodsi3>
   41a2c:	1007883a 	mov	r3,r2
   41a30:	e0bffa17 	ldw	r2,-24(fp)
   41a34:	100b883a 	mov	r5,r2
   41a38:	1809883a 	mov	r4,r3
   41a3c:	004543c0 	call	4543c <__mulsi3>
   41a40:	8085883a 	add	r2,r16,r2
   41a44:	10800017 	ldw	r2,0(r2)
   41a48:	e0bff915 	stw	r2,-28(fp)
            ClusterType = fat32ClusterType(NextCluster);
   41a4c:	e13ff917 	ldw	r4,-28(fp)
   41a50:	00418940 	call	41894 <fat32ClusterType>
   41a54:	e0bff815 	stw	r2,-32(fp)
   41a58:	00001306 	br	41aa8 <fatNextCluster+0x148>
        }else{
            NextCluster = *(alt_u16 *)(pVol->Secter_Data + (ThisCluster%nFatEntryPerSecter)*nFatEntrySize); 
   41a5c:	e0bffd17 	ldw	r2,-12(fp)
   41a60:	14001004 	addi	r16,r2,64
   41a64:	e0fffb17 	ldw	r3,-20(fp)
   41a68:	e0bffe17 	ldw	r2,-8(fp)
   41a6c:	180b883a 	mov	r5,r3
   41a70:	1009883a 	mov	r4,r2
   41a74:	00453e40 	call	453e4 <__umodsi3>
   41a78:	1007883a 	mov	r3,r2
   41a7c:	e0bffa17 	ldw	r2,-24(fp)
   41a80:	100b883a 	mov	r5,r2
   41a84:	1809883a 	mov	r4,r3
   41a88:	004543c0 	call	4543c <__mulsi3>
   41a8c:	8085883a 	add	r2,r16,r2
   41a90:	1080000b 	ldhu	r2,0(r2)
   41a94:	10bfffcc 	andi	r2,r2,65535
   41a98:	e0bff915 	stw	r2,-28(fp)
            ClusterType = fat16ClusterType(NextCluster);
   41a9c:	e13ff917 	ldw	r4,-28(fp)
   41aa0:	00417e40 	call	417e4 <fat16ClusterType>
   41aa4:	e0bff815 	stw	r2,-32(fp)
        }    
        if (ClusterType != CLUSTER_NEXT_INFILE && ClusterType != CLUSTER_LAST_INFILE)
   41aa8:	e0bff817 	ldw	r2,-32(fp)
   41aac:	10800120 	cmpeqi	r2,r2,4
   41ab0:	1000041e 	bne	r2,zero,41ac4 <fatNextCluster+0x164>
   41ab4:	e0bff817 	ldw	r2,-32(fp)
   41ab8:	108000e0 	cmpeqi	r2,r2,3
   41abc:	1000011e 	bne	r2,zero,41ac4 <fatNextCluster+0x164>
            NextCluster = 0;  // invalid cluster
   41ac0:	e03ff915 	stw	zero,-28(fp)
    }                
    
    
    return NextCluster;
   41ac4:	e0bff917 	ldw	r2,-28(fp)

#endif    
    
    return NextCluster;
}
   41ac8:	e6ffff04 	addi	sp,fp,-4
   41acc:	dfc00217 	ldw	ra,8(sp)
   41ad0:	df000117 	ldw	fp,4(sp)
   41ad4:	dc000017 	ldw	r16,0(sp)
   41ad8:	dec00304 	addi	sp,sp,12
   41adc:	f800283a 	ret

00041ae0 <fatFindUnusedCluster>:

alt_u32 fatFindUnusedCluster(VOLUME_INFO *pVol){
   41ae0:	defff304 	addi	sp,sp,-52
   41ae4:	dfc00c15 	stw	ra,48(sp)
   41ae8:	df000b15 	stw	fp,44(sp)
   41aec:	dc000a15 	stw	r16,40(sp)
   41af0:	df000b04 	addi	fp,sp,44
   41af4:	e13ffe15 	stw	r4,-8(fp)
    CLUSTER_TYPE ClusterType;
    alt_u32 UnusedCluster=-1, ThisCluster = 2, ClusterEntryValue;
   41af8:	00bfffc4 	movi	r2,-1
   41afc:	e0bff615 	stw	r2,-40(fp)
   41b00:	00800084 	movi	r2,2
   41b04:	e0bff715 	stw	r2,-36(fp)
    void *pFatEntry;

    const alt_32 nFatEntrySize = (pVol->Partition_Type == PARTITION_FAT32)?4:2; // 2 byte for FAT16
   41b08:	e0bffe17 	ldw	r2,-8(fp)
   41b0c:	10800317 	ldw	r2,12(r2)
   41b10:	10800318 	cmpnei	r2,r2,12
   41b14:	1000021e 	bne	r2,zero,41b20 <fatFindUnusedCluster+0x40>
   41b18:	00800104 	movi	r2,4
   41b1c:	00000106 	br	41b24 <fatFindUnusedCluster+0x44>
   41b20:	00800084 	movi	r2,2
   41b24:	e0bff915 	stw	r2,-28(fp)
    const alt_32 nFatEntryPerSecter = pVol->BPB_BytsPerSec/nFatEntrySize;
   41b28:	e0bffe17 	ldw	r2,-8(fp)
   41b2c:	10800617 	ldw	r2,24(r2)
   41b30:	e0fff917 	ldw	r3,-28(fp)
   41b34:	180b883a 	mov	r5,r3
   41b38:	1009883a 	mov	r4,r2
   41b3c:	00453800 	call	45380 <__udivsi3>
   41b40:	e0bffa15 	stw	r2,-24(fp)
    alt_u32 Secter;
    bool bDone = FALSE;
   41b44:	e03ff815 	stw	zero,-32(fp)

    while(!bDone){     
   41b48:	00003e06 	br	41c44 <fatFindUnusedCluster+0x164>
        Secter = pVol->FatEntrySecter + (ThisCluster*nFatEntrySize)/pVol->BPB_BytsPerSec;
   41b4c:	e0bffe17 	ldw	r2,-8(fp)
   41b50:	14000d17 	ldw	r16,52(r2)
   41b54:	e0bff917 	ldw	r2,-28(fp)
   41b58:	e17ff717 	ldw	r5,-36(fp)
   41b5c:	1009883a 	mov	r4,r2
   41b60:	004543c0 	call	4543c <__mulsi3>
   41b64:	1007883a 	mov	r3,r2
   41b68:	e0bffe17 	ldw	r2,-8(fp)
   41b6c:	10800617 	ldw	r2,24(r2)
   41b70:	100b883a 	mov	r5,r2
   41b74:	1809883a 	mov	r4,r3
   41b78:	00453800 	call	45380 <__udivsi3>
   41b7c:	8085883a 	add	r2,r16,r2
   41b80:	e0bffb15 	stw	r2,-20(fp)
        if (fatReadSecter(pVol, Secter)){
   41b84:	e17ffb17 	ldw	r5,-20(fp)
   41b88:	e13ffe17 	ldw	r4,-8(fp)
   41b8c:	004228c0 	call	4228c <fatReadSecter>
   41b90:	10002726 	beq	r2,zero,41c30 <fatFindUnusedCluster+0x150>
            pFatEntry = (pVol->Secter_Data + (ThisCluster%nFatEntryPerSecter)*nFatEntrySize);
   41b94:	e0bffe17 	ldw	r2,-8(fp)
   41b98:	14001004 	addi	r16,r2,64
   41b9c:	e0fffa17 	ldw	r3,-24(fp)
   41ba0:	e0bff717 	ldw	r2,-36(fp)
   41ba4:	180b883a 	mov	r5,r3
   41ba8:	1009883a 	mov	r4,r2
   41bac:	00453e40 	call	453e4 <__umodsi3>
   41bb0:	1007883a 	mov	r3,r2
   41bb4:	e0bff917 	ldw	r2,-28(fp)
   41bb8:	100b883a 	mov	r5,r2
   41bbc:	1809883a 	mov	r4,r3
   41bc0:	004543c0 	call	4543c <__mulsi3>
   41bc4:	8085883a 	add	r2,r16,r2
   41bc8:	e0bffc15 	stw	r2,-16(fp)
            if (pVol->Partition_Type == PARTITION_FAT32){
   41bcc:	e0bffe17 	ldw	r2,-8(fp)
   41bd0:	10800317 	ldw	r2,12(r2)
   41bd4:	10800318 	cmpnei	r2,r2,12
   41bd8:	1000071e 	bne	r2,zero,41bf8 <fatFindUnusedCluster+0x118>
                ClusterEntryValue = *(alt_u32*)pFatEntry; 
   41bdc:	e0bffc17 	ldw	r2,-16(fp)
   41be0:	10800017 	ldw	r2,0(r2)
   41be4:	e0bffd15 	stw	r2,-12(fp)
                ClusterType = fat32ClusterType(ClusterEntryValue);
   41be8:	e13ffd17 	ldw	r4,-12(fp)
   41bec:	00418940 	call	41894 <fat32ClusterType>
   41bf0:	e0bff515 	stw	r2,-44(fp)
   41bf4:	00000706 	br	41c14 <fatFindUnusedCluster+0x134>
            }else{
                ClusterEntryValue = *(alt_u16 *)pFatEntry; 
   41bf8:	e0bffc17 	ldw	r2,-16(fp)
   41bfc:	1080000b 	ldhu	r2,0(r2)
   41c00:	10bfffcc 	andi	r2,r2,65535
   41c04:	e0bffd15 	stw	r2,-12(fp)
                ClusterType = fat16ClusterType(ClusterEntryValue);
   41c08:	e13ffd17 	ldw	r4,-12(fp)
   41c0c:	00417e40 	call	417e4 <fat16ClusterType>
   41c10:	e0bff515 	stw	r2,-44(fp)
            }    
            if (ClusterType == CLUSTER_UNUSED){
   41c14:	e0bff517 	ldw	r2,-44(fp)
   41c18:	1000071e 	bne	r2,zero,41c38 <fatFindUnusedCluster+0x158>
                UnusedCluster = ThisCluster;  // invalid cluster
   41c1c:	e0bff717 	ldw	r2,-36(fp)
   41c20:	e0bff615 	stw	r2,-40(fp)
                bDone = TRUE;
   41c24:	00800044 	movi	r2,1
   41c28:	e0bff815 	stw	r2,-32(fp)
   41c2c:	00000206 	br	41c38 <fatFindUnusedCluster+0x158>
            }    
        }else{
            bDone = TRUE;
   41c30:	00800044 	movi	r2,1
   41c34:	e0bff815 	stw	r2,-32(fp)
        }     
        ThisCluster++;           
   41c38:	e0bff717 	ldw	r2,-36(fp)
   41c3c:	10800044 	addi	r2,r2,1
   41c40:	e0bff715 	stw	r2,-36(fp)
    const alt_32 nFatEntrySize = (pVol->Partition_Type == PARTITION_FAT32)?4:2; // 2 byte for FAT16
    const alt_32 nFatEntryPerSecter = pVol->BPB_BytsPerSec/nFatEntrySize;
    alt_u32 Secter;
    bool bDone = FALSE;

    while(!bDone){     
   41c44:	e0bff817 	ldw	r2,-32(fp)
   41c48:	103fc026 	beq	r2,zero,41b4c <_gp+0xfffef7e0>
            bDone = TRUE;
        }     
        ThisCluster++;           
    }                
    
    return UnusedCluster;
   41c4c:	e0bff617 	ldw	r2,-40(fp)

}
   41c50:	e6ffff04 	addi	sp,fp,-4
   41c54:	dfc00217 	ldw	ra,8(sp)
   41c58:	df000117 	ldw	fp,4(sp)
   41c5c:	dc000017 	ldw	r16,0(sp)
   41c60:	dec00304 	addi	sp,sp,12
   41c64:	f800283a 	ret

00041c68 <fatDelClusterList>:


bool fatDelClusterList(VOLUME_INFO *pVol, alt_u32 StartCluster){
   41c68:	defff204 	addi	sp,sp,-56
   41c6c:	dfc00d15 	stw	ra,52(sp)
   41c70:	df000c15 	stw	fp,48(sp)
   41c74:	dc000b15 	stw	r16,44(sp)
   41c78:	df000c04 	addi	fp,sp,48
   41c7c:	e13ffd15 	stw	r4,-12(fp)
   41c80:	e17ffe15 	stw	r5,-8(fp)
    CLUSTER_TYPE ClusterType;
    bool bSuccess = TRUE;
   41c84:	00800044 	movi	r2,1
   41c88:	e0bff515 	stw	r2,-44(fp)
    bool bDone = FALSE;
   41c8c:	e03ff615 	stw	zero,-40(fp)
    alt_u32 ClusterIndex, Secter, ClusterEntryValue;
    void *pFatEntryValue;
    
    
    const int nFatEntrySize = (pVol->Partition_Type == PARTITION_FAT32)?4:2; // 2 byte for FAT16
   41c90:	e0bffd17 	ldw	r2,-12(fp)
   41c94:	10800317 	ldw	r2,12(r2)
   41c98:	10800318 	cmpnei	r2,r2,12
   41c9c:	1000021e 	bne	r2,zero,41ca8 <fatDelClusterList+0x40>
   41ca0:	00800104 	movi	r2,4
   41ca4:	00000106 	br	41cac <fatDelClusterList+0x44>
   41ca8:	00800084 	movi	r2,2
   41cac:	e0bff715 	stw	r2,-36(fp)
    const int nFatEntryPerSecter = pVol->BPB_BytsPerSec/nFatEntrySize;
   41cb0:	e0bffd17 	ldw	r2,-12(fp)
   41cb4:	10800617 	ldw	r2,24(r2)
   41cb8:	e0fff717 	ldw	r3,-36(fp)
   41cbc:	180b883a 	mov	r5,r3
   41cc0:	1009883a 	mov	r4,r2
   41cc4:	00453800 	call	45380 <__udivsi3>
   41cc8:	e0bff815 	stw	r2,-32(fp)
     
    ClusterIndex = StartCluster;
   41ccc:	e0bffe17 	ldw	r2,-8(fp)
   41cd0:	e0bff915 	stw	r2,-28(fp)
    while(bSuccess && !bDone){
   41cd4:	00005706 	br	41e34 <fatDelClusterList+0x1cc>
        // read FAT Table
        Secter = pVol->FatEntrySecter + (ClusterIndex*nFatEntrySize)/pVol->BPB_BytsPerSec;
   41cd8:	e0bffd17 	ldw	r2,-12(fp)
   41cdc:	14000d17 	ldw	r16,52(r2)
   41ce0:	e0bff717 	ldw	r2,-36(fp)
   41ce4:	e17ff917 	ldw	r5,-28(fp)
   41ce8:	1009883a 	mov	r4,r2
   41cec:	004543c0 	call	4543c <__mulsi3>
   41cf0:	1007883a 	mov	r3,r2
   41cf4:	e0bffd17 	ldw	r2,-12(fp)
   41cf8:	10800617 	ldw	r2,24(r2)
   41cfc:	100b883a 	mov	r5,r2
   41d00:	1809883a 	mov	r4,r3
   41d04:	00453800 	call	45380 <__udivsi3>
   41d08:	8085883a 	add	r2,r16,r2
   41d0c:	e0bffa15 	stw	r2,-24(fp)
        bSuccess = fatReadSecter(pVol, Secter);
   41d10:	e17ffa17 	ldw	r5,-24(fp)
   41d14:	e13ffd17 	ldw	r4,-12(fp)
   41d18:	004228c0 	call	4228c <fatReadSecter>
   41d1c:	e0bff515 	stw	r2,-44(fp)
        if (bSuccess){
   41d20:	e0bff517 	ldw	r2,-44(fp)
   41d24:	10004326 	beq	r2,zero,41e34 <fatDelClusterList+0x1cc>
            // get the value of FAT entry
            pFatEntryValue = (pVol->Secter_Data + (ClusterIndex%nFatEntryPerSecter)*nFatEntrySize);
   41d28:	e0bffd17 	ldw	r2,-12(fp)
   41d2c:	14001004 	addi	r16,r2,64
   41d30:	e0fff817 	ldw	r3,-32(fp)
   41d34:	e0bff917 	ldw	r2,-28(fp)
   41d38:	180b883a 	mov	r5,r3
   41d3c:	1009883a 	mov	r4,r2
   41d40:	00453e40 	call	453e4 <__umodsi3>
   41d44:	1007883a 	mov	r3,r2
   41d48:	e0bff717 	ldw	r2,-36(fp)
   41d4c:	100b883a 	mov	r5,r2
   41d50:	1809883a 	mov	r4,r3
   41d54:	004543c0 	call	4543c <__mulsi3>
   41d58:	8085883a 	add	r2,r16,r2
   41d5c:	e0bffb15 	stw	r2,-20(fp)
            if (pVol->Partition_Type == PARTITION_FAT32){
   41d60:	e0bffd17 	ldw	r2,-12(fp)
   41d64:	10800317 	ldw	r2,12(r2)
   41d68:	10800318 	cmpnei	r2,r2,12
   41d6c:	1000071e 	bne	r2,zero,41d8c <fatDelClusterList+0x124>
                ClusterEntryValue = *(alt_u32 *)pFatEntryValue; 
   41d70:	e0bffb17 	ldw	r2,-20(fp)
   41d74:	10800017 	ldw	r2,0(r2)
   41d78:	e0bffc15 	stw	r2,-16(fp)
                ClusterType = fat32ClusterType(ClusterEntryValue);
   41d7c:	e13ffc17 	ldw	r4,-16(fp)
   41d80:	00418940 	call	41894 <fat32ClusterType>
   41d84:	e0bff415 	stw	r2,-48(fp)
   41d88:	00000706 	br	41da8 <fatDelClusterList+0x140>
            }else{
                ClusterEntryValue = *(alt_u16 *)pFatEntryValue; //(pVol->Secter_Data + (ThisCluster%nFatEntryPerSecter)*nFatEntrySize); 
   41d8c:	e0bffb17 	ldw	r2,-20(fp)
   41d90:	1080000b 	ldhu	r2,0(r2)
   41d94:	10bfffcc 	andi	r2,r2,65535
   41d98:	e0bffc15 	stw	r2,-16(fp)
                ClusterType = fat16ClusterType(ClusterEntryValue);
   41d9c:	e13ffc17 	ldw	r4,-16(fp)
   41da0:	00417e40 	call	417e4 <fat16ClusterType>
   41da4:	e0bff415 	stw	r2,-48(fp)
            }
                
            if (ClusterType != CLUSTER_NEXT_INFILE && ClusterType != CLUSTER_LAST_INFILE){
   41da8:	e0bff417 	ldw	r2,-48(fp)
   41dac:	10800120 	cmpeqi	r2,r2,4
   41db0:	1000071e 	bne	r2,zero,41dd0 <fatDelClusterList+0x168>
   41db4:	e0bff417 	ldw	r2,-48(fp)
   41db8:	108000e0 	cmpeqi	r2,r2,3
   41dbc:	1000041e 	bne	r2,zero,41dd0 <fatDelClusterList+0x168>
                bDone = TRUE;
   41dc0:	00800044 	movi	r2,1
   41dc4:	e0bff615 	stw	r2,-40(fp)
                bSuccess = FALSE;
   41dc8:	e03ff515 	stw	zero,-44(fp)
   41dcc:	00001906 	br	41e34 <fatDelClusterList+0x1cc>
            }else{
                if (ClusterType == CLUSTER_LAST_INFILE)
   41dd0:	e0bff417 	ldw	r2,-48(fp)
   41dd4:	108000d8 	cmpnei	r2,r2,3
   41dd8:	1000021e 	bne	r2,zero,41de4 <fatDelClusterList+0x17c>
                    bDone = TRUE; // the last cluster
   41ddc:	00800044 	movi	r2,1
   41de0:	e0bff615 	stw	r2,-40(fp)
                // update
                if (pVol->Partition_Type == PARTITION_FAT32)
   41de4:	e0bffd17 	ldw	r2,-12(fp)
   41de8:	10800317 	ldw	r2,12(r2)
   41dec:	10800318 	cmpnei	r2,r2,12
   41df0:	1000031e 	bne	r2,zero,41e00 <fatDelClusterList+0x198>
                    *(alt_u32 *)pFatEntryValue = CLUSTER_UNUSED;
   41df4:	e0bffb17 	ldw	r2,-20(fp)
   41df8:	10000015 	stw	zero,0(r2)
   41dfc:	00000206 	br	41e08 <fatDelClusterList+0x1a0>
                else 
                    *(alt_u16 *)pFatEntryValue = CLUSTER_UNUSED;
   41e00:	e0bffb17 	ldw	r2,-20(fp)
   41e04:	1000000d 	sth	zero,0(r2)
                //write back FAT Table
                bSuccess = pVol->WriteBlock512(pVol->DiskHandle, pVol->Secter_Index, pVol->Secter_Data);
   41e08:	e0bffd17 	ldw	r2,-12(fp)
   41e0c:	10800217 	ldw	r2,8(r2)
   41e10:	e0fffd17 	ldw	r3,-12(fp)
   41e14:	19000017 	ldw	r4,0(r3)
   41e18:	e0fffd17 	ldw	r3,-12(fp)
   41e1c:	19409017 	ldw	r5,576(r3)
   41e20:	e0fffd17 	ldw	r3,-12(fp)
   41e24:	18c01004 	addi	r3,r3,64
   41e28:	180d883a 	mov	r6,r3
   41e2c:	103ee83a 	callr	r2
   41e30:	e0bff515 	stw	r2,-44(fp)
    
    const int nFatEntrySize = (pVol->Partition_Type == PARTITION_FAT32)?4:2; // 2 byte for FAT16
    const int nFatEntryPerSecter = pVol->BPB_BytsPerSec/nFatEntrySize;
     
    ClusterIndex = StartCluster;
    while(bSuccess && !bDone){
   41e34:	e0bff517 	ldw	r2,-44(fp)
   41e38:	10000226 	beq	r2,zero,41e44 <fatDelClusterList+0x1dc>
   41e3c:	e0bff617 	ldw	r2,-40(fp)
   41e40:	103fa526 	beq	r2,zero,41cd8 <_gp+0xfffef96c>
            }    
        }                
    }  // while                
    
    
    return bSuccess;
   41e44:	e0bff517 	ldw	r2,-44(fp)

}
   41e48:	e6ffff04 	addi	sp,fp,-4
   41e4c:	dfc00217 	ldw	ra,8(sp)
   41e50:	df000117 	ldw	fp,4(sp)
   41e54:	dc000017 	ldw	r16,0(sp)
   41e58:	dec00304 	addi	sp,sp,12
   41e5c:	f800283a 	ret

00041e60 <fatDumpDate>:


void fatDumpDate(unsigned short Date){
   41e60:	defffb04 	addi	sp,sp,-20
   41e64:	df000415 	stw	fp,16(sp)
   41e68:	df000404 	addi	fp,sp,16
   41e6c:	2005883a 	mov	r2,r4
   41e70:	e0bfff0d 	sth	r2,-4(fp)
    int Year, Month, Day;
    Year = ((Date >> 9) & 0x1F) + 1980;
   41e74:	e0bfff0b 	ldhu	r2,-4(fp)
   41e78:	1004d27a 	srli	r2,r2,9
   41e7c:	10bfffcc 	andi	r2,r2,65535
   41e80:	108007cc 	andi	r2,r2,31
   41e84:	1081ef04 	addi	r2,r2,1980
   41e88:	e0bffc15 	stw	r2,-16(fp)
    Month = ((Date >> 5) & 0xF);
   41e8c:	e0bfff0b 	ldhu	r2,-4(fp)
   41e90:	1004d17a 	srli	r2,r2,5
   41e94:	10bfffcc 	andi	r2,r2,65535
   41e98:	108003cc 	andi	r2,r2,15
   41e9c:	e0bffd15 	stw	r2,-12(fp)
    Day = ((Date >> 0) & 0x1F);
   41ea0:	e0bfff0b 	ldhu	r2,-4(fp)
   41ea4:	108007cc 	andi	r2,r2,31
   41ea8:	e0bffe15 	stw	r2,-8(fp)
    FAT_DEBUG(("%d,%d,%d", Year, Month, Day)); 
}
   41eac:	0001883a 	nop
   41eb0:	e037883a 	mov	sp,fp
   41eb4:	df000017 	ldw	fp,0(sp)
   41eb8:	dec00104 	addi	sp,sp,4
   41ebc:	f800283a 	ret

00041ec0 <fatDumpTime>:

void fatDumpTime(unsigned short Date){
   41ec0:	defffb04 	addi	sp,sp,-20
   41ec4:	df000415 	stw	fp,16(sp)
   41ec8:	df000404 	addi	fp,sp,16
   41ecc:	2005883a 	mov	r2,r4
   41ed0:	e0bfff0d 	sth	r2,-4(fp)
    int H,M,S;
    H = ((Date >> 9) & 0x1F);
   41ed4:	e0bfff0b 	ldhu	r2,-4(fp)
   41ed8:	1004d27a 	srli	r2,r2,9
   41edc:	10bfffcc 	andi	r2,r2,65535
   41ee0:	108007cc 	andi	r2,r2,31
   41ee4:	e0bffc15 	stw	r2,-16(fp)
    M = ((Date >> 5) & 0x3F);
   41ee8:	e0bfff0b 	ldhu	r2,-4(fp)
   41eec:	1004d17a 	srli	r2,r2,5
   41ef0:	10bfffcc 	andi	r2,r2,65535
   41ef4:	10800fcc 	andi	r2,r2,63
   41ef8:	e0bffd15 	stw	r2,-12(fp)
    S = ((Date >> 0) & 0x1F)*2;
   41efc:	e0bfff0b 	ldhu	r2,-4(fp)
   41f00:	108007cc 	andi	r2,r2,31
   41f04:	1085883a 	add	r2,r2,r2
   41f08:	e0bffe15 	stw	r2,-8(fp)
    FAT_DEBUG(("%d:%d:%d", H, M, S));     
}
   41f0c:	0001883a 	nop
   41f10:	e037883a 	mov	sp,fp
   41f14:	df000017 	ldw	fp,0(sp)
   41f18:	dec00104 	addi	sp,sp,4
   41f1c:	f800283a 	ret

00041f20 <fatIsLastDir>:

bool fatIsLastDir(FAT_DIRECTORY *pDir){
   41f20:	defffe04 	addi	sp,sp,-8
   41f24:	df000115 	stw	fp,4(sp)
   41f28:	df000104 	addi	fp,sp,4
   41f2c:	e13fff15 	stw	r4,-4(fp)
    if (pDir->Name[0] == REMAINED_UNUSED_DIR_ENTRY)  // 0x00
   41f30:	e0bfff17 	ldw	r2,-4(fp)
   41f34:	10800003 	ldbu	r2,0(r2)
   41f38:	10803fcc 	andi	r2,r2,255
   41f3c:	1080201c 	xori	r2,r2,128
   41f40:	10bfe004 	addi	r2,r2,-128
   41f44:	1000021e 	bne	r2,zero,41f50 <fatIsLastDir+0x30>
        return TRUE;
   41f48:	00800044 	movi	r2,1
   41f4c:	00000106 	br	41f54 <fatIsLastDir+0x34>
    return FALSE;        
   41f50:	0005883a 	mov	r2,zero
}
   41f54:	e037883a 	mov	sp,fp
   41f58:	df000017 	ldw	fp,0(sp)
   41f5c:	dec00104 	addi	sp,sp,4
   41f60:	f800283a 	ret

00041f64 <fatIsValidDir>:


bool fatIsValidDir(FAT_DIRECTORY *pDir){
   41f64:	defff704 	addi	sp,sp,-36
   41f68:	dfc00815 	stw	ra,32(sp)
   41f6c:	df000715 	stw	fp,28(sp)
   41f70:	df000704 	addi	fp,sp,28
   41f74:	e13fff15 	stw	r4,-4(fp)
    char szTest[] = {0x00, 0xE5, 0x22, 0x2A, 0x2B, 0x2C, 0x2E, 0x2F, 0x3A, 0x3B, 0x3C, 0x3E, 0x3F, 0x5B, 0x5C, 0x5D, 0x7C};
   41f78:	00800174 	movhi	r2,5
   41f7c:	10a66d84 	addi	r2,r2,-26186
   41f80:	e0fffa04 	addi	r3,fp,-24
   41f84:	1009883a 	mov	r4,r2
   41f88:	00800444 	movi	r2,17
   41f8c:	100d883a 	mov	r6,r2
   41f90:	200b883a 	mov	r5,r4
   41f94:	1809883a 	mov	r4,r3
   41f98:	0046ad80 	call	46ad8 <memcpy>
    int i;
    
    for(i=0;i<sizeof(szTest)/sizeof(szTest[0]);i++){
   41f9c:	e03ff915 	stw	zero,-28(fp)
   41fa0:	00001206 	br	41fec <fatIsValidDir+0x88>
        if (pDir->Name[0] == szTest[i]){
   41fa4:	e0bfff17 	ldw	r2,-4(fp)
   41fa8:	11000003 	ldbu	r4,0(r2)
   41fac:	e0fffa04 	addi	r3,fp,-24
   41fb0:	e0bff917 	ldw	r2,-28(fp)
   41fb4:	1885883a 	add	r2,r3,r2
   41fb8:	10800003 	ldbu	r2,0(r2)
   41fbc:	20c03fcc 	andi	r3,r4,255
   41fc0:	18c0201c 	xori	r3,r3,128
   41fc4:	18ffe004 	addi	r3,r3,-128
   41fc8:	10803fcc 	andi	r2,r2,255
   41fcc:	1080201c 	xori	r2,r2,128
   41fd0:	10bfe004 	addi	r2,r2,-128
   41fd4:	1880021e 	bne	r3,r2,41fe0 <fatIsValidDir+0x7c>
            return FALSE;
   41fd8:	0005883a 	mov	r2,zero
   41fdc:	00000706 	br	41ffc <fatIsValidDir+0x98>

bool fatIsValidDir(FAT_DIRECTORY *pDir){
    char szTest[] = {0x00, 0xE5, 0x22, 0x2A, 0x2B, 0x2C, 0x2E, 0x2F, 0x3A, 0x3B, 0x3C, 0x3E, 0x3F, 0x5B, 0x5C, 0x5D, 0x7C};
    int i;
    
    for(i=0;i<sizeof(szTest)/sizeof(szTest[0]);i++){
   41fe0:	e0bff917 	ldw	r2,-28(fp)
   41fe4:	10800044 	addi	r2,r2,1
   41fe8:	e0bff915 	stw	r2,-28(fp)
   41fec:	e0bff917 	ldw	r2,-28(fp)
   41ff0:	10800470 	cmpltui	r2,r2,17
   41ff4:	103feb1e 	bne	r2,zero,41fa4 <_gp+0xfffefc38>
        if (pDir->Name[0] == szTest[i]){
            return FALSE;
        }
    }    
    return TRUE;
   41ff8:	00800044 	movi	r2,1
    
}
   41ffc:	e037883a 	mov	sp,fp
   42000:	dfc00117 	ldw	ra,4(sp)
   42004:	df000017 	ldw	fp,0(sp)
   42008:	dec00204 	addi	sp,sp,8
   4200c:	f800283a 	ret

00042010 <fatIsUnusedDir>:

bool fatIsUnusedDir(FAT_DIRECTORY *pDir){
   42010:	defffe04 	addi	sp,sp,-8
   42014:	df000115 	stw	fp,4(sp)
   42018:	df000104 	addi	fp,sp,4
   4201c:	e13fff15 	stw	r4,-4(fp)
    if (pDir->Name[0] == (alt_8)UNUSED_DIR_ENTRY)
   42020:	e0bfff17 	ldw	r2,-4(fp)
   42024:	10800003 	ldbu	r2,0(r2)
   42028:	10803fcc 	andi	r2,r2,255
   4202c:	1080201c 	xori	r2,r2,128
   42030:	10bfe004 	addi	r2,r2,-128
   42034:	10bff958 	cmpnei	r2,r2,-27
   42038:	1000021e 	bne	r2,zero,42044 <fatIsUnusedDir+0x34>
        return TRUE;
   4203c:	00800044 	movi	r2,1
   42040:	00000106 	br	42048 <fatIsUnusedDir+0x38>
    return FALSE; 
   42044:	0005883a 	mov	r2,zero
}
   42048:	e037883a 	mov	sp,fp
   4204c:	df000017 	ldw	fp,0(sp)
   42050:	dec00104 	addi	sp,sp,4
   42054:	f800283a 	ret

00042058 <fatDump>:

// debug
void fatDump(FAT_DIRECTORY *pDir){
   42058:	defff804 	addi	sp,sp,-32
   4205c:	dfc00715 	stw	ra,28(sp)
   42060:	df000615 	stw	fp,24(sp)
   42064:	df000604 	addi	fp,sp,24
   42068:	e13fff15 	stw	r4,-4(fp)
    char szInvalidName[] = {0x22, 0x2A, 0x2B, 0x2C, 0x2E, 0x2F, 0x3A, 0x3B, 0x3C, 0x3E, 0x3F, 0x5B, 0x5C, 0x5D, 0x7C};
   4206c:	00800174 	movhi	r2,5
   42070:	10a671c4 	addi	r2,r2,-26169
   42074:	e0fffb04 	addi	r3,fp,-20
   42078:	1009883a 	mov	r4,r2
   4207c:	008003c4 	movi	r2,15
   42080:	100d883a 	mov	r6,r2
   42084:	200b883a 	mov	r5,r4
   42088:	1809883a 	mov	r4,r3
   4208c:	0046ad80 	call	46ad8 <memcpy>
    int i;
    if (pDir->Name[0] == (char)0xE5){
   42090:	e0bfff17 	ldw	r2,-4(fp)
   42094:	10800003 	ldbu	r2,0(r2)
   42098:	10803fcc 	andi	r2,r2,255
   4209c:	1080201c 	xori	r2,r2,128
   420a0:	10bfe004 	addi	r2,r2,-128
   420a4:	10bff958 	cmpnei	r2,r2,-27
   420a8:	10004a26 	beq	r2,zero,421d4 <fatDump+0x17c>
        FAT_DEBUG(("the directory entry is free.\n"));
        return;
    }
    if (pDir->Name[0] == 0x00){
   420ac:	e0bfff17 	ldw	r2,-4(fp)
   420b0:	10800003 	ldbu	r2,0(r2)
   420b4:	10803fcc 	andi	r2,r2,255
   420b8:	1080201c 	xori	r2,r2,128
   420bc:	10bfe004 	addi	r2,r2,-128
   420c0:	10004626 	beq	r2,zero,421dc <fatDump+0x184>
        FAT_DEBUG(("the directory entry is free, and there are no allocated directory entries after tis one.\n"));
        return;
    }
    
    if (pDir->Name[0] <= 0x20 && pDir->Name[0] != 0x05){
   420c4:	e0bfff17 	ldw	r2,-4(fp)
   420c8:	10800003 	ldbu	r2,0(r2)
   420cc:	10803fcc 	andi	r2,r2,255
   420d0:	1080201c 	xori	r2,r2,128
   420d4:	10bfe004 	addi	r2,r2,-128
   420d8:	10800848 	cmpgei	r2,r2,33
   420dc:	1000071e 	bne	r2,zero,420fc <fatDump+0xa4>
   420e0:	e0bfff17 	ldw	r2,-4(fp)
   420e4:	10800003 	ldbu	r2,0(r2)
   420e8:	10803fcc 	andi	r2,r2,255
   420ec:	1080201c 	xori	r2,r2,128
   420f0:	10bfe004 	addi	r2,r2,-128
   420f4:	10800160 	cmpeqi	r2,r2,5
   420f8:	10003a26 	beq	r2,zero,421e4 <fatDump+0x18c>
        FAT_DEBUG(("Invalid file name.\n"));
        return;
    }
    
    for(i=0;i<sizeof(szInvalidName)/sizeof(szInvalidName[0]);i++){
   420fc:	e03ffa15 	stw	zero,-24(fp)
   42100:	00001006 	br	42144 <fatDump+0xec>
        if (pDir->Name[0] == szInvalidName[i]){
   42104:	e0bfff17 	ldw	r2,-4(fp)
   42108:	11000003 	ldbu	r4,0(r2)
   4210c:	e0fffb04 	addi	r3,fp,-20
   42110:	e0bffa17 	ldw	r2,-24(fp)
   42114:	1885883a 	add	r2,r3,r2
   42118:	10800003 	ldbu	r2,0(r2)
   4211c:	20c03fcc 	andi	r3,r4,255
   42120:	18c0201c 	xori	r3,r3,128
   42124:	18ffe004 	addi	r3,r3,-128
   42128:	10803fcc 	andi	r2,r2,255
   4212c:	1080201c 	xori	r2,r2,128
   42130:	10bfe004 	addi	r2,r2,-128
   42134:	18802d26 	beq	r3,r2,421ec <fatDump+0x194>
    if (pDir->Name[0] <= 0x20 && pDir->Name[0] != 0x05){
        FAT_DEBUG(("Invalid file name.\n"));
        return;
    }
    
    for(i=0;i<sizeof(szInvalidName)/sizeof(szInvalidName[0]);i++){
   42138:	e0bffa17 	ldw	r2,-24(fp)
   4213c:	10800044 	addi	r2,r2,1
   42140:	e0bffa15 	stw	r2,-24(fp)
   42144:	e0bffa17 	ldw	r2,-24(fp)
   42148:	108003f0 	cmpltui	r2,r2,15
   4214c:	103fed1e 	bne	r2,zero,42104 <_gp+0xfffefd98>
        FAT_DEBUG(("  Directory\n"));
    if (pDir->Attribute & ATTR_ARCHIVE)
        FAT_DEBUG(("  Archive\n"));
    if (pDir->Attribute & ATTR_LONG_NAME)
        FAT_DEBUG(("  Long Name\n"));
    FAT_DEBUG(("CreateTime:")); fatDumpTime(pDir->CreateTime);FAT_DEBUG(("\n"));
   42150:	e0bfff17 	ldw	r2,-4(fp)
   42154:	10c00383 	ldbu	r3,14(r2)
   42158:	108003c3 	ldbu	r2,15(r2)
   4215c:	1004923a 	slli	r2,r2,8
   42160:	10c4b03a 	or	r2,r2,r3
   42164:	10bfffcc 	andi	r2,r2,65535
   42168:	1009883a 	mov	r4,r2
   4216c:	0041ec00 	call	41ec0 <fatDumpTime>
    FAT_DEBUG(("CreateDate:")); fatDumpDate(pDir->LastAccessDate);FAT_DEBUG(("\n"));
   42170:	e0bfff17 	ldw	r2,-4(fp)
   42174:	10c00483 	ldbu	r3,18(r2)
   42178:	108004c3 	ldbu	r2,19(r2)
   4217c:	1004923a 	slli	r2,r2,8
   42180:	10c4b03a 	or	r2,r2,r3
   42184:	10bfffcc 	andi	r2,r2,65535
   42188:	1009883a 	mov	r4,r2
   4218c:	0041e600 	call	41e60 <fatDumpDate>
    FAT_DEBUG(("ClusterHi:%04Xh\n", pDir->FirstLogicalClusterHi));
    FAT_DEBUG(("LastWriteTime:")); fatDumpTime(pDir->LastWriteTime);FAT_DEBUG(("\n"));
   42190:	e0bfff17 	ldw	r2,-4(fp)
   42194:	10c00583 	ldbu	r3,22(r2)
   42198:	108005c3 	ldbu	r2,23(r2)
   4219c:	1004923a 	slli	r2,r2,8
   421a0:	10c4b03a 	or	r2,r2,r3
   421a4:	10bfffcc 	andi	r2,r2,65535
   421a8:	1009883a 	mov	r4,r2
   421ac:	0041ec00 	call	41ec0 <fatDumpTime>
    FAT_DEBUG(("LastWriteDate:")); fatDumpDate(pDir->LastWriteDate);FAT_DEBUG(("\n"));
   421b0:	e0bfff17 	ldw	r2,-4(fp)
   421b4:	10c00603 	ldbu	r3,24(r2)
   421b8:	10800643 	ldbu	r2,25(r2)
   421bc:	1004923a 	slli	r2,r2,8
   421c0:	10c4b03a 	or	r2,r2,r3
   421c4:	10bfffcc 	andi	r2,r2,65535
   421c8:	1009883a 	mov	r4,r2
   421cc:	0041e600 	call	41e60 <fatDumpDate>
   421d0:	00000706 	br	421f0 <fatDump+0x198>
void fatDump(FAT_DIRECTORY *pDir){
    char szInvalidName[] = {0x22, 0x2A, 0x2B, 0x2C, 0x2E, 0x2F, 0x3A, 0x3B, 0x3C, 0x3E, 0x3F, 0x5B, 0x5C, 0x5D, 0x7C};
    int i;
    if (pDir->Name[0] == (char)0xE5){
        FAT_DEBUG(("the directory entry is free.\n"));
        return;
   421d4:	0001883a 	nop
   421d8:	00000506 	br	421f0 <fatDump+0x198>
    }
    if (pDir->Name[0] == 0x00){
        FAT_DEBUG(("the directory entry is free, and there are no allocated directory entries after tis one.\n"));
        return;
   421dc:	0001883a 	nop
   421e0:	00000306 	br	421f0 <fatDump+0x198>
    }
    
    if (pDir->Name[0] <= 0x20 && pDir->Name[0] != 0x05){
        FAT_DEBUG(("Invalid file name.\n"));
        return;
   421e4:	0001883a 	nop
   421e8:	00000106 	br	421f0 <fatDump+0x198>
    }
    
    for(i=0;i<sizeof(szInvalidName)/sizeof(szInvalidName[0]);i++){
        if (pDir->Name[0] == szInvalidName[i]){
            FAT_DEBUG(("Invalid file name.\n"));
            return;
   421ec:	0001883a 	nop
    FAT_DEBUG(("ClusterHi:%04Xh\n", pDir->FirstLogicalClusterHi));
    FAT_DEBUG(("LastWriteTime:")); fatDumpTime(pDir->LastWriteTime);FAT_DEBUG(("\n"));
    FAT_DEBUG(("LastWriteDate:")); fatDumpDate(pDir->LastWriteDate);FAT_DEBUG(("\n"));
    FAT_DEBUG(("Cluster:%04Xh(%d)\n", pDir->FirstLogicalCluster,pDir->FirstLogicalCluster));
    FAT_DEBUG(("File Size:%08Xh(%ld)\n", pDir->FileSize, (long)pDir->FileSize));
}
   421f0:	e037883a 	mov	sp,fp
   421f4:	dfc00117 	ldw	ra,4(sp)
   421f8:	df000017 	ldw	fp,0(sp)
   421fc:	dec00204 	addi	sp,sp,8
   42200:	f800283a 	ret

00042204 <fatArray2Value>:


unsigned int fatArray2Value(unsigned char *pValue, unsigned int nNum){
   42204:	defffa04 	addi	sp,sp,-24
   42208:	df000515 	stw	fp,20(sp)
   4220c:	df000504 	addi	fp,sp,20
   42210:	e13ffe15 	stw	r4,-8(fp)
   42214:	e17fff15 	stw	r5,-4(fp)
    alt_u8 *pMSB = (pValue + nNum - 1);
   42218:	e0bfff17 	ldw	r2,-4(fp)
   4221c:	10bfffc4 	addi	r2,r2,-1
   42220:	e0fffe17 	ldw	r3,-8(fp)
   42224:	1885883a 	add	r2,r3,r2
   42228:	e0bffb15 	stw	r2,-20(fp)
    alt_u32 nValue;
    int i;
    for(i=0;i<nNum;i++){
   4222c:	e03ffd15 	stw	zero,-12(fp)
   42230:	00000e06 	br	4226c <fatArray2Value+0x68>
        nValue <<= 8;
   42234:	e0bffc17 	ldw	r2,-16(fp)
   42238:	1004923a 	slli	r2,r2,8
   4223c:	e0bffc15 	stw	r2,-16(fp)
        nValue |= *pMSB--;
   42240:	e0bffb17 	ldw	r2,-20(fp)
   42244:	10ffffc4 	addi	r3,r2,-1
   42248:	e0fffb15 	stw	r3,-20(fp)
   4224c:	10800003 	ldbu	r2,0(r2)
   42250:	10803fcc 	andi	r2,r2,255
   42254:	e0fffc17 	ldw	r3,-16(fp)
   42258:	1884b03a 	or	r2,r3,r2
   4225c:	e0bffc15 	stw	r2,-16(fp)

unsigned int fatArray2Value(unsigned char *pValue, unsigned int nNum){
    alt_u8 *pMSB = (pValue + nNum - 1);
    alt_u32 nValue;
    int i;
    for(i=0;i<nNum;i++){
   42260:	e0bffd17 	ldw	r2,-12(fp)
   42264:	10800044 	addi	r2,r2,1
   42268:	e0bffd15 	stw	r2,-12(fp)
   4226c:	e0fffd17 	ldw	r3,-12(fp)
   42270:	e0bfff17 	ldw	r2,-4(fp)
   42274:	18bfef36 	bltu	r3,r2,42234 <_gp+0xfffefec8>
        nValue <<= 8;
        nValue |= *pMSB--;
        
    }
    
    return nValue;
   42278:	e0bffc17 	ldw	r2,-16(fp)
}
   4227c:	e037883a 	mov	sp,fp
   42280:	df000017 	ldw	fp,0(sp)
   42284:	dec00104 	addi	sp,sp,4
   42288:	f800283a 	ret

0004228c <fatReadSecter>:

//=================================================================================
//// add in v2.0
bool fatReadSecter(VOLUME_INFO *pVol, alt_u32 nSecter){
   4228c:	defffb04 	addi	sp,sp,-20
   42290:	dfc00415 	stw	ra,16(sp)
   42294:	df000315 	stw	fp,12(sp)
   42298:	df000304 	addi	fp,sp,12
   4229c:	e13ffe15 	stw	r4,-8(fp)
   422a0:	e17fff15 	stw	r5,-4(fp)
    bool bSuccess = TRUE;
   422a4:	00800044 	movi	r2,1
   422a8:	e0bffd15 	stw	r2,-12(fp)
    if (nSecter != pVol->Secter_Index){
   422ac:	e0bffe17 	ldw	r2,-8(fp)
   422b0:	10c09017 	ldw	r3,576(r2)
   422b4:	e0bfff17 	ldw	r2,-4(fp)
   422b8:	18801226 	beq	r3,r2,42304 <fatReadSecter+0x78>
        if (!pVol->ReadBlock512(pVol->DiskHandle, nSecter, pVol->Secter_Data)){
   422bc:	e0bffe17 	ldw	r2,-8(fp)
   422c0:	10800117 	ldw	r2,4(r2)
   422c4:	e0fffe17 	ldw	r3,-8(fp)
   422c8:	19000017 	ldw	r4,0(r3)
   422cc:	e0fffe17 	ldw	r3,-8(fp)
   422d0:	18c01004 	addi	r3,r3,64
   422d4:	180d883a 	mov	r6,r3
   422d8:	e17fff17 	ldw	r5,-4(fp)
   422dc:	103ee83a 	callr	r2
   422e0:	1000051e 	bne	r2,zero,422f8 <fatReadSecter+0x6c>
            pVol->Secter_Index = -1;
   422e4:	e0bffe17 	ldw	r2,-8(fp)
   422e8:	00ffffc4 	movi	r3,-1
   422ec:	10c09015 	stw	r3,576(r2)
            bSuccess = FALSE;
   422f0:	e03ffd15 	stw	zero,-12(fp)
   422f4:	00000306 	br	42304 <fatReadSecter+0x78>
        }else{
            pVol->Secter_Index = nSecter;
   422f8:	e0bffe17 	ldw	r2,-8(fp)
   422fc:	e0ffff17 	ldw	r3,-4(fp)
   42300:	10c09015 	stw	r3,576(r2)
        }
    }
    return bSuccess;          
   42304:	e0bffd17 	ldw	r2,-12(fp)
}     
   42308:	e037883a 	mov	sp,fp
   4230c:	dfc00117 	ldw	ra,4(sp)
   42310:	df000017 	ldw	fp,0(sp)
   42314:	dec00204 	addi	sp,sp,8
   42318:	f800283a 	ret

0004231c <fatFindDirectory>:

//=================================================================================
//// add in v2.0
FAT_DIRECTORY* fatFindDirectory(VOLUME_INFO *pVol, alt_u32 nDirectoryIndex){
   4231c:	defff804 	addi	sp,sp,-32
   42320:	dfc00715 	stw	ra,28(sp)
   42324:	df000615 	stw	fp,24(sp)
   42328:	df000604 	addi	fp,sp,24
   4232c:	e13ffe15 	stw	r4,-8(fp)
   42330:	e17fff15 	stw	r5,-4(fp)
    FAT_DIRECTORY *pDir=NULL;
   42334:	e03ffa15 	stw	zero,-24(fp)
    alt_u32 nSecterOffset, nSecter, nByteOffset;
             
    nSecterOffset = (sizeof(FAT_DIRECTORY)*nDirectoryIndex)/pVol->BPB_BytsPerSec;
   42338:	e0bfff17 	ldw	r2,-4(fp)
   4233c:	1006917a 	slli	r3,r2,5
   42340:	e0bffe17 	ldw	r2,-8(fp)
   42344:	10800617 	ldw	r2,24(r2)
   42348:	100b883a 	mov	r5,r2
   4234c:	1809883a 	mov	r4,r3
   42350:	00453800 	call	45380 <__udivsi3>
   42354:	e0bffb15 	stw	r2,-20(fp)
    nSecter = pVol->RootDirectoryEntrySecter + nSecterOffset;
   42358:	e0bffe17 	ldw	r2,-8(fp)
   4235c:	10c00e17 	ldw	r3,56(r2)
   42360:	e0bffb17 	ldw	r2,-20(fp)
   42364:	1885883a 	add	r2,r3,r2
   42368:	e0bffc15 	stw	r2,-16(fp)
        // read sector
    if (fatReadSecter(pVol, nSecter)){
   4236c:	e17ffc17 	ldw	r5,-16(fp)
   42370:	e13ffe17 	ldw	r4,-8(fp)
   42374:	004228c0 	call	4228c <fatReadSecter>
   42378:	10000d26 	beq	r2,zero,423b0 <fatFindDirectory+0x94>
        nByteOffset = (sizeof(FAT_DIRECTORY)*nDirectoryIndex)%pVol->BPB_BytsPerSec; 
   4237c:	e0bfff17 	ldw	r2,-4(fp)
   42380:	1006917a 	slli	r3,r2,5
   42384:	e0bffe17 	ldw	r2,-8(fp)
   42388:	10800617 	ldw	r2,24(r2)
   4238c:	100b883a 	mov	r5,r2
   42390:	1809883a 	mov	r4,r3
   42394:	00453e40 	call	453e4 <__umodsi3>
   42398:	e0bffd15 	stw	r2,-12(fp)
        pDir = (FAT_DIRECTORY *)(pVol->Secter_Data + nByteOffset);
   4239c:	e0bffe17 	ldw	r2,-8(fp)
   423a0:	10c01004 	addi	r3,r2,64
   423a4:	e0bffd17 	ldw	r2,-12(fp)
   423a8:	1885883a 	add	r2,r3,r2
   423ac:	e0bffa15 	stw	r2,-24(fp)
    }        
        
    return pDir;        
   423b0:	e0bffa17 	ldw	r2,-24(fp)
}
   423b4:	e037883a 	mov	sp,fp
   423b8:	dfc00117 	ldw	ra,4(sp)
   423bc:	df000017 	ldw	fp,0(sp)
   423c0:	dec00204 	addi	sp,sp,8
   423c4:	f800283a 	ret

000423c8 <fatFindUnusedDirectory>:

//=================================================================================
//// add in v2.0
alt_u32 fatFindUnusedDirectory(VOLUME_INFO *pVol){
   423c8:	defff604 	addi	sp,sp,-40
   423cc:	dfc00915 	stw	ra,36(sp)
   423d0:	df000815 	stw	fp,32(sp)
   423d4:	df000804 	addi	fp,sp,32
   423d8:	e13fff15 	stw	r4,-4(fp)
    alt_u32 Dir = -1;
   423dc:	00bfffc4 	movi	r2,-1
   423e0:	e0bff815 	stw	r2,-32(fp)
    FAT_DIRECTORY *pDir=NULL;
   423e4:	e03ffb15 	stw	zero,-20(fp)
    alt_u32 nSecterOffset, nSecter, nByteOffset;
    alt_u32 nDirectoryIndex = 2; //??? start from ?
   423e8:	00800084 	movi	r2,2
   423ec:	e0bff915 	stw	r2,-28(fp)
    bool bDone = FALSE;
   423f0:	e03ffa15 	stw	zero,-24(fp)
             
    while(!bDone){             
   423f4:	00003006 	br	424b8 <fatFindUnusedDirectory+0xf0>
        nSecterOffset = (sizeof(FAT_DIRECTORY)*nDirectoryIndex)/pVol->BPB_BytsPerSec;
   423f8:	e0bff917 	ldw	r2,-28(fp)
   423fc:	1006917a 	slli	r3,r2,5
   42400:	e0bfff17 	ldw	r2,-4(fp)
   42404:	10800617 	ldw	r2,24(r2)
   42408:	100b883a 	mov	r5,r2
   4240c:	1809883a 	mov	r4,r3
   42410:	00453800 	call	45380 <__udivsi3>
   42414:	e0bffc15 	stw	r2,-16(fp)
        nSecter = pVol->RootDirectoryEntrySecter + nSecterOffset;
   42418:	e0bfff17 	ldw	r2,-4(fp)
   4241c:	10c00e17 	ldw	r3,56(r2)
   42420:	e0bffc17 	ldw	r2,-16(fp)
   42424:	1885883a 	add	r2,r3,r2
   42428:	e0bffd15 	stw	r2,-12(fp)
            // read sector
        if (fatReadSecter(pVol, nSecter)){
   4242c:	e17ffd17 	ldw	r5,-12(fp)
   42430:	e13fff17 	ldw	r4,-4(fp)
   42434:	004228c0 	call	4228c <fatReadSecter>
   42438:	10001e26 	beq	r2,zero,424b4 <fatFindUnusedDirectory+0xec>
            nByteOffset = (sizeof(FAT_DIRECTORY)*nDirectoryIndex)%pVol->BPB_BytsPerSec; 
   4243c:	e0bff917 	ldw	r2,-28(fp)
   42440:	1006917a 	slli	r3,r2,5
   42444:	e0bfff17 	ldw	r2,-4(fp)
   42448:	10800617 	ldw	r2,24(r2)
   4244c:	100b883a 	mov	r5,r2
   42450:	1809883a 	mov	r4,r3
   42454:	00453e40 	call	453e4 <__umodsi3>
   42458:	e0bffe15 	stw	r2,-8(fp)
            pDir = (FAT_DIRECTORY *)(pVol->Secter_Data + nByteOffset);
   4245c:	e0bfff17 	ldw	r2,-4(fp)
   42460:	10c01004 	addi	r3,r2,64
   42464:	e0bffe17 	ldw	r2,-8(fp)
   42468:	1885883a 	add	r2,r3,r2
   4246c:	e0bffb15 	stw	r2,-20(fp)
            if (fatIsLastDir(pDir) || fatIsUnusedDir(pDir)){
   42470:	e13ffb17 	ldw	r4,-20(fp)
   42474:	0041f200 	call	41f20 <fatIsLastDir>
   42478:	1000031e 	bne	r2,zero,42488 <fatFindUnusedDirectory+0xc0>
   4247c:	e13ffb17 	ldw	r4,-20(fp)
   42480:	00420100 	call	42010 <fatIsUnusedDir>
   42484:	10000726 	beq	r2,zero,424a4 <fatFindUnusedDirectory+0xdc>
                bDone = TRUE;
   42488:	00800044 	movi	r2,1
   4248c:	e0bffa15 	stw	r2,-24(fp)
                if (fatIsUnusedDir(pDir))
   42490:	e13ffb17 	ldw	r4,-20(fp)
   42494:	00420100 	call	42010 <fatIsUnusedDir>
   42498:	10000226 	beq	r2,zero,424a4 <fatFindUnusedDirectory+0xdc>
                    Dir = nDirectoryIndex;
   4249c:	e0bff917 	ldw	r2,-28(fp)
   424a0:	e0bff815 	stw	r2,-32(fp)
            }
            nDirectoryIndex++;        
   424a4:	e0bff917 	ldw	r2,-28(fp)
   424a8:	10800044 	addi	r2,r2,1
   424ac:	e0bff915 	stw	r2,-28(fp)
   424b0:	00000106 	br	424b8 <fatFindUnusedDirectory+0xf0>
        }else{
                bDone = FALSE;
   424b4:	e03ffa15 	stw	zero,-24(fp)
    FAT_DIRECTORY *pDir=NULL;
    alt_u32 nSecterOffset, nSecter, nByteOffset;
    alt_u32 nDirectoryIndex = 2; //??? start from ?
    bool bDone = FALSE;
             
    while(!bDone){             
   424b8:	e0bffa17 	ldw	r2,-24(fp)
   424bc:	103fce26 	beq	r2,zero,423f8 <_gp+0xffff008c>
        }else{
                bDone = FALSE;
        }
    }             
    
    return Dir;      
   424c0:	e0bff817 	ldw	r2,-32(fp)
}
   424c4:	e037883a 	mov	sp,fp
   424c8:	dfc00117 	ldw	ra,4(sp)
   424cc:	df000017 	ldw	fp,0(sp)
   424d0:	dec00204 	addi	sp,sp,8
   424d4:	f800283a 	ret

000424d8 <fatMount>:

//=================================================================================
bool fatMount(VOLUME_INFO *pVol){
   424d8:	deff7604 	addi	sp,sp,-552
   424dc:	dfc08915 	stw	ra,548(sp)
   424e0:	df008815 	stw	fp,544(sp)
   424e4:	dc008715 	stw	r16,540(sp)
   424e8:	df008804 	addi	fp,sp,544
   424ec:	e13ffe15 	stw	r4,-8(fp)
    bool bSuccess = TRUE;
   424f0:	00800044 	movi	r2,1
   424f4:	e0bf7815 	stw	r2,-544(fp)
    // 1DEh( 16 bytes): 3nd Partition Entry
    // 1EEh( 16 bytes): 4nd Partition Entry
    // 1FEh(  2 bytes): Executable Maker (55h AAh)
    
    // read first block (secotor 0), BPB(BIOS Parameter Block) or called as boot sector or reserved sector
    if (!pVol->ReadBlock512(pVol->DiskHandle, 0, szBlock)){
   424f8:	e0bffe17 	ldw	r2,-8(fp)
   424fc:	10800117 	ldw	r2,4(r2)
   42500:	e0fffe17 	ldw	r3,-8(fp)
   42504:	18c00017 	ldw	r3,0(r3)
   42508:	e13f7e04 	addi	r4,fp,-520
   4250c:	200d883a 	mov	r6,r4
   42510:	000b883a 	mov	r5,zero
   42514:	1809883a 	mov	r4,r3
   42518:	103ee83a 	callr	r2
   4251c:	1000021e 	bne	r2,zero,42528 <fatMount+0x50>
    //if (!pVol->ReadBlock512(pVol->DiskHandle, 8192, szBlock)){
        FAT_DEBUG(("Read section 0 error.\n"));
        return FALSE;
   42520:	0005883a 	mov	r2,zero
   42524:	0000b406 	br	427f8 <fatMount+0x320>
        return FALSE;
    }
    */
        
    // check file system 
    FirstPartitionEntry = 0x1BE;
   42528:	00806f84 	movi	r2,446
   4252c:	e0bf7915 	stw	r2,-540(fp)
    PartitionType = szBlock[FirstPartitionEntry + 4];
   42530:	e0bf7917 	ldw	r2,-540(fp)
   42534:	10800104 	addi	r2,r2,4
   42538:	e0ff7e04 	addi	r3,fp,-520
   4253c:	1885883a 	add	r2,r3,r2
   42540:	10800003 	ldbu	r2,0(r2)
   42544:	10803fcc 	andi	r2,r2,255
   42548:	e0bf7a15 	stw	r2,-536(fp)
    if (PartitionType == PARTITION_FAT16){
   4254c:	e0bf7a17 	ldw	r2,-536(fp)
   42550:	108001a0 	cmpeqi	r2,r2,6
   42554:	1000051e 	bne	r2,zero,4256c <fatMount+0x94>
        FAT_DEBUG(("FAT16\n"));
    }else if (PartitionType == PARTITION_FAT32){
   42558:	e0bf7a17 	ldw	r2,-536(fp)
   4255c:	10800320 	cmpeqi	r2,r2,12
   42560:	1000021e 	bne	r2,zero,4256c <fatMount+0x94>
        FAT_DEBUG(("FAT32\n"));
    }else{        
        FAT_DEBUG(("the partition type(%d) is not supported.\n", PartitionType));
        return FALSE; // only support FAT16 in this example
   42564:	0005883a 	mov	r2,zero
   42568:	0000a306 	br	427f8 <fatMount+0x320>
    }       
    pVol->Partition_Type = PartitionType; 
   4256c:	e0ff7a17 	ldw	r3,-536(fp)
   42570:	e0bffe17 	ldw	r2,-8(fp)
   42574:	10c00315 	stw	r3,12(r2)
    // 2.2 Find the first section of partition 1                    
    FirstSectionInVolume1 = fatArray2Value(&szBlock[FirstPartitionEntry + 8],4);
   42578:	e0bf7917 	ldw	r2,-540(fp)
   4257c:	10800204 	addi	r2,r2,8
   42580:	e0ff7e04 	addi	r3,fp,-520
   42584:	1885883a 	add	r2,r3,r2
   42588:	01400104 	movi	r5,4
   4258c:	1009883a 	mov	r4,r2
   42590:	00422040 	call	42204 <fatArray2Value>
   42594:	e0bf7b15 	stw	r2,-532(fp)
                            //szBlock[FirstPartitionEntry + 8 + 1]*256 + 
                            //szBlock[FirstPartitionEntry + 8];        
    
    //3 Parsing the Volume Boot Record(BR)
    //3.1  Read the Volume Boot Record(BR)
    if (!pVol->ReadBlock512(pVol->DiskHandle, FirstSectionInVolume1, szBlock)){
   42598:	e0bffe17 	ldw	r2,-8(fp)
   4259c:	10800117 	ldw	r2,4(r2)
   425a0:	e0fffe17 	ldw	r3,-8(fp)
   425a4:	18c00017 	ldw	r3,0(r3)
   425a8:	e13f7b17 	ldw	r4,-532(fp)
   425ac:	e17f7e04 	addi	r5,fp,-520
   425b0:	280d883a 	mov	r6,r5
   425b4:	200b883a 	mov	r5,r4
   425b8:	1809883a 	mov	r4,r3
   425bc:	103ee83a 	callr	r2
   425c0:	1000021e 	bne	r2,zero,425cc <fatMount+0xf4>
        FAT_DEBUG(("Read first sector in volume one fail.\n"));
        return FALSE;
   425c4:	0005883a 	mov	r2,zero
   425c8:	00008b06 	br	427f8 <fatMount+0x320>
    }        
    pVol->PartitionStartSecter = FirstSectionInVolume1;     
   425cc:	e0ff7b17 	ldw	r3,-532(fp)
   425d0:	e0bffe17 	ldw	r2,-8(fp)
   425d4:	10c00515 	stw	r3,20(r2)
    pVol->BPB_BytsPerSec = szBlock[0x0B+1]*256 + szBlock[0x0B];
   425d8:	e0bf8103 	ldbu	r2,-508(fp)
   425dc:	10803fcc 	andi	r2,r2,255
   425e0:	1006923a 	slli	r3,r2,8
   425e4:	e0bf80c3 	ldbu	r2,-509(fp)
   425e8:	10803fcc 	andi	r2,r2,255
   425ec:	1885883a 	add	r2,r3,r2
   425f0:	1007883a 	mov	r3,r2
   425f4:	e0bffe17 	ldw	r2,-8(fp)
   425f8:	10c00615 	stw	r3,24(r2)
    pVol->BPB_SecPerCluster = szBlock[0x0D];
   425fc:	e0bf8143 	ldbu	r2,-507(fp)
   42600:	10c03fcc 	andi	r3,r2,255
   42604:	e0bffe17 	ldw	r2,-8(fp)
   42608:	10c00715 	stw	r3,28(r2)
    pVol->BPB_RsvdSecCnt = szBlock[0x0E + 1]*256 + szBlock[0x0E]; 
   4260c:	e0bf81c3 	ldbu	r2,-505(fp)
   42610:	10803fcc 	andi	r2,r2,255
   42614:	1006923a 	slli	r3,r2,8
   42618:	e0bf8183 	ldbu	r2,-506(fp)
   4261c:	10803fcc 	andi	r2,r2,255
   42620:	1885883a 	add	r2,r3,r2
   42624:	1007883a 	mov	r3,r2
   42628:	e0bffe17 	ldw	r2,-8(fp)
   4262c:	10c00815 	stw	r3,32(r2)
    pVol->BPB_NumFATs = szBlock[0x10];
   42630:	e0bf8203 	ldbu	r2,-504(fp)
   42634:	10c03fcc 	andi	r3,r2,255
   42638:	e0bffe17 	ldw	r2,-8(fp)
   4263c:	10c00915 	stw	r3,36(r2)
    pVol->BPB_RootEntCnt = szBlock[0x11+1]*256 + szBlock[0x11]; 
   42640:	e0bf8283 	ldbu	r2,-502(fp)
   42644:	10803fcc 	andi	r2,r2,255
   42648:	1006923a 	slli	r3,r2,8
   4264c:	e0bf8243 	ldbu	r2,-503(fp)
   42650:	10803fcc 	andi	r2,r2,255
   42654:	1885883a 	add	r2,r3,r2
   42658:	1007883a 	mov	r3,r2
   4265c:	e0bffe17 	ldw	r2,-8(fp)
   42660:	10c00a15 	stw	r3,40(r2)
    pVol->BPB_FATSz = szBlock[0x16+1]*256 + szBlock[0x16];
   42664:	e0bf83c3 	ldbu	r2,-497(fp)
   42668:	10803fcc 	andi	r2,r2,255
   4266c:	1006923a 	slli	r3,r2,8
   42670:	e0bf8383 	ldbu	r2,-498(fp)
   42674:	10803fcc 	andi	r2,r2,255
   42678:	1885883a 	add	r2,r3,r2
   4267c:	1007883a 	mov	r3,r2
   42680:	e0bffe17 	ldw	r2,-8(fp)
   42684:	10c00b15 	stw	r3,44(r2)
    
    // add for v2.0
    pVol->Secter_Index = -1;
   42688:	e0bffe17 	ldw	r2,-8(fp)
   4268c:	00ffffc4 	movi	r3,-1
   42690:	10c09015 	stw	r3,576(r2)
    memset(pVol->Secter_Data, 0, MY_SECTER_SIZE); // 512 bytes
   42694:	e0bffe17 	ldw	r2,-8(fp)
   42698:	10801004 	addi	r2,r2,64
   4269c:	01808004 	movi	r6,512
   426a0:	000b883a 	mov	r5,zero
   426a4:	1009883a 	mov	r4,r2
   426a8:	0046b000 	call	46b00 <memset>
    
    if (pVol->Partition_Type == PARTITION_FAT32){
   426ac:	e0bffe17 	ldw	r2,-8(fp)
   426b0:	10800317 	ldw	r2,12(r2)
   426b4:	10800318 	cmpnei	r2,r2,12
   426b8:	1000081e 	bne	r2,zero,426dc <fatMount+0x204>
        pVol->BPB_FATSz = fatArray2Value(&szBlock[0x24], 4);  // BPB_FATSz32
   426bc:	e0bf7e04 	addi	r2,fp,-520
   426c0:	10800904 	addi	r2,r2,36
   426c4:	01400104 	movi	r5,4
   426c8:	1009883a 	mov	r4,r2
   426cc:	00422040 	call	42204 <fatArray2Value>
   426d0:	1007883a 	mov	r3,r2
   426d4:	e0bffe17 	ldw	r2,-8(fp)
   426d8:	10c00b15 	stw	r3,44(r2)
        //pVol->BPB_RootEntCnt = fatArray2Value(&szBlock[0x2C], 4);  // BPB_RootClus            
    }
    
    if (pVol->BPB_BytsPerSec != MY_SECTER_SIZE){
   426dc:	e0bffe17 	ldw	r2,-8(fp)
   426e0:	10800617 	ldw	r2,24(r2)
   426e4:	10808020 	cmpeqi	r2,r2,512
   426e8:	1000021e 	bne	r2,zero,426f4 <fatMount+0x21c>
        FAT_DEBUG(("This program only supports FAT BPB_BytsPerSec == %d\n", MY_SECTER_SIZE));
        return FALSE; // only support FAT16 in this example
   426ec:	0005883a 	mov	r2,zero
   426f0:	00004106 	br	427f8 <fatMount+0x320>
    FAT_DEBUG(("Number of Copyies of FAT: %02Xh(%d)\n", gVolumeInfo.BPB_NumFATs, gVolumeInfo.BPB_NumFATs));
    FAT_DEBUG(("Maxmun Root Directory Entries: %04Xh(%d)\n", gVolumeInfo.BPB_RootEntCnt, gVolumeInfo.BPB_RootEntCnt));
    FAT_DEBUG(("Sectors Per FAT: %04Xh(%d)\n", gVolumeInfo.BPB_FATSz, gVolumeInfo.BPB_FATSz));
#endif    
    //
    pVol->FatEntrySecter = pVol->PartitionStartSecter + pVol->BPB_RsvdSecCnt;
   426f4:	e0bffe17 	ldw	r2,-8(fp)
   426f8:	10c00517 	ldw	r3,20(r2)
   426fc:	e0bffe17 	ldw	r2,-8(fp)
   42700:	10800817 	ldw	r2,32(r2)
   42704:	1887883a 	add	r3,r3,r2
   42708:	e0bffe17 	ldw	r2,-8(fp)
   4270c:	10c00d15 	stw	r3,52(r2)
    pVol->RootDirectoryEntrySecter = pVol->FatEntrySecter + pVol->BPB_NumFATs * pVol->BPB_FATSz;
   42710:	e0bffe17 	ldw	r2,-8(fp)
   42714:	14000d17 	ldw	r16,52(r2)
   42718:	e0bffe17 	ldw	r2,-8(fp)
   4271c:	10c00917 	ldw	r3,36(r2)
   42720:	e0bffe17 	ldw	r2,-8(fp)
   42724:	10800b17 	ldw	r2,44(r2)
   42728:	100b883a 	mov	r5,r2
   4272c:	1809883a 	mov	r4,r3
   42730:	004543c0 	call	4543c <__mulsi3>
   42734:	8087883a 	add	r3,r16,r2
   42738:	e0bffe17 	ldw	r2,-8(fp)
   4273c:	10c00e15 	stw	r3,56(r2)
    pVol->DataEntrySecter = pVol->RootDirectoryEntrySecter + ((pVol->BPB_RootEntCnt*32)+(pVol->BPB_BytsPerSec-1))/pVol->BPB_BytsPerSec;
   42740:	e0bffe17 	ldw	r2,-8(fp)
   42744:	14000e17 	ldw	r16,56(r2)
   42748:	e0bffe17 	ldw	r2,-8(fp)
   4274c:	10800a17 	ldw	r2,40(r2)
   42750:	1006917a 	slli	r3,r2,5
   42754:	e0bffe17 	ldw	r2,-8(fp)
   42758:	10800617 	ldw	r2,24(r2)
   4275c:	1885883a 	add	r2,r3,r2
   42760:	10ffffc4 	addi	r3,r2,-1
   42764:	e0bffe17 	ldw	r2,-8(fp)
   42768:	10800617 	ldw	r2,24(r2)
   4276c:	100b883a 	mov	r5,r2
   42770:	1809883a 	mov	r4,r3
   42774:	00453800 	call	45380 <__udivsi3>
   42778:	8087883a 	add	r3,r16,r2
   4277c:	e0bffe17 	ldw	r2,-8(fp)
   42780:	10c00f15 	stw	r3,60(r2)
    
    // read FAT table into memory
    pVol->nBytesPerCluster = pVol->BPB_BytsPerSec * pVol->BPB_SecPerCluster;
   42784:	e0bffe17 	ldw	r2,-8(fp)
   42788:	10c00617 	ldw	r3,24(r2)
   4278c:	e0bffe17 	ldw	r2,-8(fp)
   42790:	10800717 	ldw	r2,28(r2)
   42794:	100b883a 	mov	r5,r2
   42798:	1809883a 	mov	r4,r3
   4279c:	004543c0 	call	4543c <__mulsi3>
   427a0:	1007883a 	mov	r3,r2
   427a4:	e0bffe17 	ldw	r2,-8(fp)
   427a8:	10c00c15 	stw	r3,48(r2)
    nFatTableSecterNum = pVol->BPB_NumFATs * pVol->BPB_FATSz;
   427ac:	e0bffe17 	ldw	r2,-8(fp)
   427b0:	10c00917 	ldw	r3,36(r2)
   427b4:	e0bffe17 	ldw	r2,-8(fp)
   427b8:	10800b17 	ldw	r2,44(r2)
   427bc:	100b883a 	mov	r5,r2
   427c0:	1809883a 	mov	r4,r3
   427c4:	004543c0 	call	4543c <__mulsi3>
   427c8:	e0bf7c15 	stw	r2,-528(fp)
    nFatTableSize = nFatTableSecterNum * pVol->BPB_BytsPerSec;
   427cc:	e0bffe17 	ldw	r2,-8(fp)
   427d0:	10800617 	ldw	r2,24(r2)
   427d4:	e0ff7c17 	ldw	r3,-528(fp)
   427d8:	180b883a 	mov	r5,r3
   427dc:	1009883a 	mov	r4,r2
   427e0:	004543c0 	call	4543c <__mulsi3>
   427e4:	e0bf7d15 	stw	r2,-524(fp)
    if (bSuccess){
        FAT_DEBUG(("Fat_Mount success\n"));
    }else{        
        FAT_DEBUG(("Fat_Mount fail\n"));
    }        
    pVol->bMount = bSuccess;
   427e8:	e0bffe17 	ldw	r2,-8(fp)
   427ec:	e0ff7817 	ldw	r3,-544(fp)
   427f0:	10c00415 	stw	r3,16(r2)
    return bSuccess;   
   427f4:	e0bf7817 	ldw	r2,-544(fp)
    

}
   427f8:	e6ffff04 	addi	sp,fp,-4
   427fc:	dfc00217 	ldw	ra,8(sp)
   42800:	df000117 	ldw	fp,4(sp)
   42804:	dc000017 	ldw	r16,0(sp)
   42808:	dec00304 	addi	sp,sp,12
   4280c:	f800283a 	ret

00042810 <SD_ReadBlock512>:

//===================== SUPPORT_SD_CARD =================================================
#ifdef SUPPORT_SD_CARD

bool SD_ReadBlock512(DISK_HANDLE DiskHandle, alt_u32 PysicalSelector, alt_u8 szBuf[512]){
   42810:	defffb04 	addi	sp,sp,-20
   42814:	dfc00415 	stw	ra,16(sp)
   42818:	df000315 	stw	fp,12(sp)
   4281c:	df000304 	addi	fp,sp,12
   42820:	e13ffd15 	stw	r4,-12(fp)
   42824:	e17ffe15 	stw	r5,-8(fp)
   42828:	e1bfff15 	stw	r6,-4(fp)
    return SDLIB_ReadBlock512(PysicalSelector, szBuf);
   4282c:	e17fff17 	ldw	r5,-4(fp)
   42830:	e13ffe17 	ldw	r4,-8(fp)
   42834:	0043a680 	call	43a68 <SDLIB_ReadBlock512>
}
   42838:	e037883a 	mov	sp,fp
   4283c:	dfc00117 	ldw	ra,4(sp)
   42840:	df000017 	ldw	fp,0(sp)
   42844:	dec00204 	addi	sp,sp,8
   42848:	f800283a 	ret

0004284c <SD_WriteBlock512>:

bool SD_WriteBlock512(DISK_HANDLE DiskHandle, alt_u32 PysicalSelector, alt_u8 szBuf[512]){
   4284c:	defffb04 	addi	sp,sp,-20
   42850:	dfc00415 	stw	ra,16(sp)
   42854:	df000315 	stw	fp,12(sp)
   42858:	df000304 	addi	fp,sp,12
   4285c:	e13ffd15 	stw	r4,-12(fp)
   42860:	e17ffe15 	stw	r5,-8(fp)
   42864:	e1bfff15 	stw	r6,-4(fp)
    return SDLIB_WriteBlock512(PysicalSelector, szBuf);
   42868:	e17fff17 	ldw	r5,-4(fp)
   4286c:	e13ffe17 	ldw	r4,-8(fp)
   42870:	0043b5c0 	call	43b5c <SDLIB_WriteBlock512>
}
   42874:	e037883a 	mov	sp,fp
   42878:	dfc00117 	ldw	ra,4(sp)
   4287c:	df000017 	ldw	fp,0(sp)
   42880:	dec00204 	addi	sp,sp,8
   42884:	f800283a 	ret

00042888 <fatMountSdcard>:

FAT_HANDLE fatMountSdcard(void){
   42888:	defff804 	addi	sp,sp,-32
   4288c:	dfc00715 	stw	ra,28(sp)
   42890:	df000615 	stw	fp,24(sp)
   42894:	df000604 	addi	fp,sp,24
    FAT_HANDLE hFat = 0;
   42898:	e03ffa15 	stw	zero,-24(fp)
    VOLUME_INFO *pVol;
    const int nMaxTry=10;
   4289c:	00800284 	movi	r2,10
   428a0:	e0bffd15 	stw	r2,-12(fp)
    bool bFind = FALSE;
   428a4:	e03ffb15 	stw	zero,-20(fp)
    int nTry=0;
   428a8:	e03ffc15 	stw	zero,-16(fp)
    bool bSuccess = TRUE;
   428ac:	00800044 	movi	r2,1
   428b0:	e0bffe15 	stw	r2,-8(fp)
    
        
    //1. chek whether SD Card existed. Init SD card if it is present.
    while(!bFind && nTry++ < nMaxTry){
   428b4:	00000706 	br	428d4 <fatMountSdcard+0x4c>
        bFind = SDLIB_Init();
   428b8:	004374c0 	call	4374c <SDLIB_Init>
   428bc:	e0bffb15 	stw	r2,-20(fp)
        if (!bFind)
   428c0:	e0bffb17 	ldw	r2,-20(fp)
   428c4:	1000031e 	bne	r2,zero,428d4 <fatMountSdcard+0x4c>
            usleep(100*1000);
   428c8:	010000b4 	movhi	r4,2
   428cc:	2121a804 	addi	r4,r4,-31072
   428d0:	00483040 	call	48304 <usleep>
    int nTry=0;
    bool bSuccess = TRUE;
    
        
    //1. chek whether SD Card existed. Init SD card if it is present.
    while(!bFind && nTry++ < nMaxTry){
   428d4:	e0bffb17 	ldw	r2,-20(fp)
   428d8:	1000051e 	bne	r2,zero,428f0 <fatMountSdcard+0x68>
   428dc:	e0bffc17 	ldw	r2,-16(fp)
   428e0:	10c00044 	addi	r3,r2,1
   428e4:	e0fffc15 	stw	r3,-16(fp)
   428e8:	e0fffd17 	ldw	r3,-12(fp)
   428ec:	10fff216 	blt	r2,r3,428b8 <_gp+0xffff054c>
        bFind = SDLIB_Init();
        if (!bFind)
            usleep(100*1000);
    }
    if (!bFind){
   428f0:	e0bffb17 	ldw	r2,-20(fp)
   428f4:	1000021e 	bne	r2,zero,42900 <fatMountSdcard+0x78>
        FAT_DEBUG(("Cannot find SD card.\n"));
        return hFat;
   428f8:	e0bffa17 	ldw	r2,-24(fp)
   428fc:	00001a06 	br	42968 <fatMountSdcard+0xe0>
    }    
    
    hFat = malloc(sizeof(VOLUME_INFO));
   42900:	01009104 	movi	r4,580
   42904:	0046ab00 	call	46ab0 <malloc>
   42908:	e0bffa15 	stw	r2,-24(fp)
    pVol = (VOLUME_INFO *)hFat;
   4290c:	e0bffa17 	ldw	r2,-24(fp)
   42910:	e0bfff15 	stw	r2,-4(fp)
    pVol->ReadBlock512 = SD_ReadBlock512;
   42914:	e0ffff17 	ldw	r3,-4(fp)
   42918:	00800134 	movhi	r2,4
   4291c:	108a0404 	addi	r2,r2,10256
   42920:	18800115 	stw	r2,4(r3)
    pVol->WriteBlock512 = SD_WriteBlock512;
   42924:	e0ffff17 	ldw	r3,-4(fp)
   42928:	00800134 	movhi	r2,4
   4292c:	108a1304 	addi	r2,r2,10316
   42930:	18800215 	stw	r2,8(r3)
    bSuccess = fatMount(pVol);
   42934:	e13fff17 	ldw	r4,-4(fp)
   42938:	00424d80 	call	424d8 <fatMount>
   4293c:	e0bffe15 	stw	r2,-8(fp)
        
    
  
    if (bSuccess){
   42940:	e0bffe17 	ldw	r2,-8(fp)
   42944:	10000426 	beq	r2,zero,42958 <fatMountSdcard+0xd0>
        FAT_DEBUG(("Fat_Mount success\n"));
        pVol->bMount = TRUE;
   42948:	e0bfff17 	ldw	r2,-4(fp)
   4294c:	00c00044 	movi	r3,1
   42950:	10c00415 	stw	r3,16(r2)
   42954:	00000306 	br	42964 <fatMountSdcard+0xdc>
    }else{        
        FAT_DEBUG(("Fat_Mount fail\n"));
        free((void *)hFat);
   42958:	e13ffa17 	ldw	r4,-24(fp)
   4295c:	0046ac40 	call	46ac4 <free>
        hFat = 0;
   42960:	e03ffa15 	stw	zero,-24(fp)
    }        

    return hFat;   
   42964:	e0bffa17 	ldw	r2,-24(fp)
}
   42968:	e037883a 	mov	sp,fp
   4296c:	dfc00117 	ldw	ra,4(sp)
   42970:	df000017 	ldw	fp,0(sp)
   42974:	dec00204 	addi	sp,sp,8
   42978:	f800283a 	ret

0004297c <debug_output>:
    UART_WriteString(pMessage);  // UART debug
}

#else

void debug_output(char *pMessage){
   4297c:	defffd04 	addi	sp,sp,-12
   42980:	dfc00215 	stw	ra,8(sp)
   42984:	df000115 	stw	fp,4(sp)
   42988:	df000104 	addi	fp,sp,4
   4298c:	e13fff15 	stw	r4,-4(fp)
    
    printf(pMessage);
   42990:	e13fff17 	ldw	r4,-4(fp)
   42994:	0046d980 	call	46d98 <printf>
}
   42998:	0001883a 	nop
   4299c:	e037883a 	mov	sp,fp
   429a0:	dfc00117 	ldw	ra,4(sp)
   429a4:	df000017 	ldw	fp,0(sp)
   429a8:	dec00204 	addi	sp,sp,8
   429ac:	f800283a 	ret

000429b0 <myprintf>:





int myprintf(char *format, ...){
   429b0:	deff7804 	addi	sp,sp,-544
   429b4:	dfc08415 	stw	ra,528(sp)
   429b8:	df008315 	stw	fp,524(sp)
   429bc:	df008304 	addi	fp,sp,524
   429c0:	e13fff15 	stw	r4,-4(fp)
   429c4:	e1400215 	stw	r5,8(fp)
   429c8:	e1800315 	stw	r6,12(fp)
   429cc:	e1c00415 	stw	r7,16(fp)
    int rc;
    char szText[512];
    
    va_list paramList;
    va_start(paramList, format);
   429d0:	e0800204 	addi	r2,fp,8
   429d4:	e0bffe15 	stw	r2,-8(fp)
    rc = vsnprintf(szText, 512, format, paramList);
   429d8:	e0fffe17 	ldw	r3,-8(fp)
   429dc:	e0bf7e04 	addi	r2,fp,-520
   429e0:	180f883a 	mov	r7,r3
   429e4:	e1bfff17 	ldw	r6,-4(fp)
   429e8:	01408004 	movi	r5,512
   429ec:	1009883a 	mov	r4,r2
   429f0:	0047c600 	call	47c60 <vsnprintf>
   429f4:	e0bf7d15 	stw	r2,-524(fp)
    va_end(paramList);
    
    debug_output(szText);
   429f8:	e0bf7e04 	addi	r2,fp,-520
   429fc:	1009883a 	mov	r4,r2
   42a00:	004297c0 	call	4297c <debug_output>

    return rc;    
   42a04:	e0bf7d17 	ldw	r2,-524(fp)
}
   42a08:	e037883a 	mov	sp,fp
   42a0c:	dfc00117 	ldw	ra,4(sp)
   42a10:	df000017 	ldw	fp,0(sp)
   42a14:	dec00504 	addi	sp,sp,20
   42a18:	f800283a 	ret

00042a1c <myprintf_hexarray>:


int myprintf_hexarray(unsigned char *pHex, int len){
   42a1c:	defff704 	addi	sp,sp,-36
   42a20:	dfc00815 	stw	ra,32(sp)
   42a24:	df000715 	stw	fp,28(sp)
   42a28:	df000704 	addi	fp,sp,28
   42a2c:	e13ffe15 	stw	r4,-8(fp)
   42a30:	e17fff15 	stw	r5,-4(fp)
    int i;
    unsigned char szText[16];
    for(i=0;i<len;i++){
   42a34:	e03ff915 	stw	zero,-28(fp)
   42a38:	00001106 	br	42a80 <myprintf_hexarray+0x64>
        sprintf(szText, "[%02X]", *(pHex+i));
   42a3c:	e0bff917 	ldw	r2,-28(fp)
   42a40:	e0fffe17 	ldw	r3,-8(fp)
   42a44:	1885883a 	add	r2,r3,r2
   42a48:	10800003 	ldbu	r2,0(r2)
   42a4c:	10c03fcc 	andi	r3,r2,255
   42a50:	e0bffa04 	addi	r2,fp,-24
   42a54:	180d883a 	mov	r6,r3
   42a58:	01400174 	movhi	r5,5
   42a5c:	29667604 	addi	r5,r5,-26152
   42a60:	1009883a 	mov	r4,r2
   42a64:	0046f500 	call	46f50 <sprintf>
        DEBUG((szText));
   42a68:	e0bffa04 	addi	r2,fp,-24
   42a6c:	1009883a 	mov	r4,r2
   42a70:	00429b00 	call	429b0 <myprintf>


int myprintf_hexarray(unsigned char *pHex, int len){
    int i;
    unsigned char szText[16];
    for(i=0;i<len;i++){
   42a74:	e0bff917 	ldw	r2,-28(fp)
   42a78:	10800044 	addi	r2,r2,1
   42a7c:	e0bff915 	stw	r2,-28(fp)
   42a80:	e0fff917 	ldw	r3,-28(fp)
   42a84:	e0bfff17 	ldw	r2,-4(fp)
   42a88:	18bfec16 	blt	r3,r2,42a3c <_gp+0xffff06d0>
        sprintf(szText, "[%02X]", *(pHex+i));
        DEBUG((szText));
    }
    return len;
   42a8c:	e0bfff17 	ldw	r2,-4(fp)
}
   42a90:	e037883a 	mov	sp,fp
   42a94:	dfc00117 	ldw	ra,4(sp)
   42a98:	df000017 	ldw	fp,0(sp)
   42a9c:	dec00204 	addi	sp,sp,8
   42aa0:	f800283a 	ret

00042aa4 <myprintf_dwordarray>:

int  myprintf_dwordarray(unsigned int *pArray, int nElementCount){
   42aa4:	defff704 	addi	sp,sp,-36
   42aa8:	dfc00815 	stw	ra,32(sp)
   42aac:	df000715 	stw	fp,28(sp)
   42ab0:	df000704 	addi	fp,sp,28
   42ab4:	e13ffe15 	stw	r4,-8(fp)
   42ab8:	e17fff15 	stw	r5,-4(fp)
    int i;
    char szText[16];
    for(i=0;i<nElementCount;i++){
   42abc:	e03ff915 	stw	zero,-28(fp)
   42ac0:	00001306 	br	42b10 <myprintf_dwordarray+0x6c>
        sprintf(szText, "[%08X]", *(pArray+i));
   42ac4:	e0bff917 	ldw	r2,-28(fp)
   42ac8:	1085883a 	add	r2,r2,r2
   42acc:	1085883a 	add	r2,r2,r2
   42ad0:	1007883a 	mov	r3,r2
   42ad4:	e0bffe17 	ldw	r2,-8(fp)
   42ad8:	10c5883a 	add	r2,r2,r3
   42adc:	10c00017 	ldw	r3,0(r2)
   42ae0:	e0bffa04 	addi	r2,fp,-24
   42ae4:	180d883a 	mov	r6,r3
   42ae8:	01400174 	movhi	r5,5
   42aec:	29667804 	addi	r5,r5,-26144
   42af0:	1009883a 	mov	r4,r2
   42af4:	0046f500 	call	46f50 <sprintf>
        DEBUG((szText));
   42af8:	e0bffa04 	addi	r2,fp,-24
   42afc:	1009883a 	mov	r4,r2
   42b00:	00429b00 	call	429b0 <myprintf>
}

int  myprintf_dwordarray(unsigned int *pArray, int nElementCount){
    int i;
    char szText[16];
    for(i=0;i<nElementCount;i++){
   42b04:	e0bff917 	ldw	r2,-28(fp)
   42b08:	10800044 	addi	r2,r2,1
   42b0c:	e0bff915 	stw	r2,-28(fp)
   42b10:	e0fff917 	ldw	r3,-28(fp)
   42b14:	e0bfff17 	ldw	r2,-4(fp)
   42b18:	18bfea16 	blt	r3,r2,42ac4 <_gp+0xffff0758>
        sprintf(szText, "[%08X]", *(pArray+i));
        DEBUG((szText));
    }
    return nElementCount;
   42b1c:	e0bfff17 	ldw	r2,-4(fp)
}
   42b20:	e037883a 	mov	sp,fp
   42b24:	dfc00117 	ldw	ra,4(sp)
   42b28:	df000017 	ldw	fp,0(sp)
   42b2c:	dec00204 	addi	sp,sp,8
   42b30:	f800283a 	ret

00042b34 <crc16>:
    0x7c26,0x6c07,0x5c64,0x4c45,0x3ca2,0x2c83,0x1ce0,0x0cc1,
    0xef1f,0xff3e,0xcf5d,0xdf7c,0xaf9b,0xbfba,0x8fd9,0x9ff8,
    0x6e17,0x7e36,0x4e55,0x5e74,0x2e93,0x3eb2,0x0ed1,0x1ef0
};
  
alt_u16 crc16(const alt_u8 *buffer, int len){
   42b34:	defffb04 	addi	sp,sp,-20
   42b38:	df000415 	stw	fp,16(sp)
   42b3c:	df000404 	addi	fp,sp,16
   42b40:	e13ffe15 	stw	r4,-8(fp)
   42b44:	e17fff15 	stw	r5,-4(fp)

    int counter;
    alt_u16 crc = 0;
   42b48:	e03ffd0d 	sth	zero,-12(fp)
    for( counter = 0; counter < len; counter++)
   42b4c:	e03ffc15 	stw	zero,-16(fp)
   42b50:	00001906 	br	42bb8 <crc16+0x84>
        crc = (crc<<8) ^ crc16tab[((crc>>8) ^ *(char *)buffer++)&0x00FF];
   42b54:	e0bffd0b 	ldhu	r2,-12(fp)
   42b58:	1004923a 	slli	r2,r2,8
   42b5c:	100b883a 	mov	r5,r2
   42b60:	e0bffd0b 	ldhu	r2,-12(fp)
   42b64:	1004d23a 	srli	r2,r2,8
   42b68:	10ffffcc 	andi	r3,r2,65535
   42b6c:	e0bffe17 	ldw	r2,-8(fp)
   42b70:	11000044 	addi	r4,r2,1
   42b74:	e13ffe15 	stw	r4,-8(fp)
   42b78:	10800003 	ldbu	r2,0(r2)
   42b7c:	10803fcc 	andi	r2,r2,255
   42b80:	1080201c 	xori	r2,r2,128
   42b84:	10bfe004 	addi	r2,r2,-128
   42b88:	1884f03a 	xor	r2,r3,r2
   42b8c:	10c03fcc 	andi	r3,r2,255
   42b90:	00800174 	movhi	r2,5
   42b94:	10a67a04 	addi	r2,r2,-26136
   42b98:	18c7883a 	add	r3,r3,r3
   42b9c:	10c5883a 	add	r2,r2,r3
   42ba0:	1080000b 	ldhu	r2,0(r2)
   42ba4:	2884f03a 	xor	r2,r5,r2
   42ba8:	e0bffd0d 	sth	r2,-12(fp)
  
alt_u16 crc16(const alt_u8 *buffer, int len){

    int counter;
    alt_u16 crc = 0;
    for( counter = 0; counter < len; counter++)
   42bac:	e0bffc17 	ldw	r2,-16(fp)
   42bb0:	10800044 	addi	r2,r2,1
   42bb4:	e0bffc15 	stw	r2,-16(fp)
   42bb8:	e0fffc17 	ldw	r3,-16(fp)
   42bbc:	e0bfff17 	ldw	r2,-4(fp)
   42bc0:	18bfe416 	blt	r3,r2,42b54 <_gp+0xffff07e8>
        crc = (crc<<8) ^ crc16tab[((crc>>8) ^ *(char *)buffer++)&0x00FF];
    return crc;
   42bc4:	e0bffd0b 	ldhu	r2,-12(fp)
}
   42bc8:	e037883a 	mov	sp,fp
   42bcc:	df000017 	ldw	fp,0(sp)
   42bd0:	dec00104 	addi	sp,sp,4
   42bd4:	f800283a 	ret

00042bd8 <crc7_byte>:
      0x0e, 0x07, 0x1c, 0x15, 0x2a, 0x23, 0x38, 0x31,
      0x46, 0x4f, 0x54, 0x5d, 0x62, 0x6b, 0x70, 0x79
};

alt_u8 crc7_byte(alt_u8 crc, alt_u8 data)
{
   42bd8:	defffd04 	addi	sp,sp,-12
   42bdc:	df000215 	stw	fp,8(sp)
   42be0:	df000204 	addi	fp,sp,8
   42be4:	2007883a 	mov	r3,r4
   42be8:	2805883a 	mov	r2,r5
   42bec:	e0fffe05 	stb	r3,-8(fp)
   42bf0:	e0bfff05 	stb	r2,-4(fp)
        return crc7_syndrome_table[(crc << 1) ^ data];
   42bf4:	e0bffe03 	ldbu	r2,-8(fp)
   42bf8:	1085883a 	add	r2,r2,r2
   42bfc:	1007883a 	mov	r3,r2
   42c00:	e0bfff03 	ldbu	r2,-4(fp)
   42c04:	1886f03a 	xor	r3,r3,r2
   42c08:	00800174 	movhi	r2,5
   42c0c:	10a6fa04 	addi	r2,r2,-25624
   42c10:	10c5883a 	add	r2,r2,r3
   42c14:	10800003 	ldbu	r2,0(r2)
}
   42c18:	e037883a 	mov	sp,fp
   42c1c:	df000017 	ldw	fp,0(sp)
   42c20:	dec00104 	addi	sp,sp,4
   42c24:	f800283a 	ret

00042c28 <crc7>:
 * Context: any
 *
 * Returns the updated CRC7 value.
 */
alt_u8 crc7(alt_u8 crc, const alt_u8 *buffer, int len)
{
   42c28:	defffb04 	addi	sp,sp,-20
   42c2c:	dfc00415 	stw	ra,16(sp)
   42c30:	df000315 	stw	fp,12(sp)
   42c34:	df000304 	addi	fp,sp,12
   42c38:	2005883a 	mov	r2,r4
   42c3c:	e17ffe15 	stw	r5,-8(fp)
   42c40:	e1bfff15 	stw	r6,-4(fp)
   42c44:	e0bffd05 	stb	r2,-12(fp)
      while (len--)
   42c48:	00000906 	br	42c70 <crc7+0x48>
            crc = crc7_byte(crc, *buffer++);
   42c4c:	e13ffd03 	ldbu	r4,-12(fp)
   42c50:	e0bffe17 	ldw	r2,-8(fp)
   42c54:	10c00044 	addi	r3,r2,1
   42c58:	e0fffe15 	stw	r3,-8(fp)
   42c5c:	10800003 	ldbu	r2,0(r2)
   42c60:	10803fcc 	andi	r2,r2,255
   42c64:	100b883a 	mov	r5,r2
   42c68:	0042bd80 	call	42bd8 <crc7_byte>
   42c6c:	e0bffd05 	stb	r2,-12(fp)
 *
 * Returns the updated CRC7 value.
 */
alt_u8 crc7(alt_u8 crc, const alt_u8 *buffer, int len)
{
      while (len--)
   42c70:	e0bfff17 	ldw	r2,-4(fp)
   42c74:	10ffffc4 	addi	r3,r2,-1
   42c78:	e0ffff15 	stw	r3,-4(fp)
   42c7c:	103ff31e 	bne	r2,zero,42c4c <_gp+0xffff08e0>
            crc = crc7_byte(crc, *buffer++);
      return crc;
   42c80:	e0bffd03 	ldbu	r2,-12(fp)
}
   42c84:	e037883a 	mov	sp,fp
   42c88:	dfc00117 	ldw	ra,4(sp)
   42c8c:	df000017 	ldw	fp,0(sp)
   42c90:	dec00204 	addi	sp,sp,8
   42c94:	f800283a 	ret

00042c98 <SDHAL_IsSupport4Bits>:
#include "sd_hal.h"
#include "sd_hw.h"
#include "crc16.h"


bool SDHAL_IsSupport4Bits(void){
   42c98:	defffe04 	addi	sp,sp,-8
   42c9c:	df000115 	stw	fp,4(sp)
   42ca0:	df000104 	addi	fp,sp,4
    bool bYes = FALSE;
   42ca4:	e03fff15 	stw	zero,-4(fp)
#ifdef SD_4BIT_MODE
    bYes = TRUE;
   42ca8:	00800044 	movi	r2,1
   42cac:	e0bfff15 	stw	r2,-4(fp)
#endif    
    return bYes;
   42cb0:	e0bfff17 	ldw	r2,-4(fp)
}
   42cb4:	e037883a 	mov	sp,fp
   42cb8:	df000017 	ldw	fp,0(sp)
   42cbc:	dec00104 	addi	sp,sp,4
   42cc0:	f800283a 	ret

00042cc4 <SDHAL_Init>:

void SDHAL_Init(void){
   42cc4:	deffff04 	addi	sp,sp,-4
   42cc8:	df000015 	stw	fp,0(sp)
   42ccc:	d839883a 	mov	fp,sp
    SD_CMD_OUT;
   42cd0:	00c00044 	movi	r3,1
   42cd4:	00800234 	movhi	r2,8
   42cd8:	10840d04 	addi	r2,r2,4148
   42cdc:	10c00035 	stwio	r3,0(r2)
    SD_DAT_IN;
   42ce0:	0007883a 	mov	r3,zero
   42ce4:	00800234 	movhi	r2,8
   42ce8:	10840904 	addi	r2,r2,4132
   42cec:	10c00035 	stwio	r3,0(r2)
    SD_CLK_HIGH;
   42cf0:	00c00044 	movi	r3,1
   42cf4:	00800234 	movhi	r2,8
   42cf8:	10841404 	addi	r2,r2,4176
   42cfc:	10c00035 	stwio	r3,0(r2)
    SD_CMD_HIGH;
   42d00:	00c00044 	movi	r3,1
   42d04:	00800234 	movhi	r2,8
   42d08:	10840c04 	addi	r2,r2,4144
   42d0c:	10c00035 	stwio	r3,0(r2)
    SD_DAT_LOW;    
   42d10:	0007883a 	mov	r3,zero
   42d14:	00800234 	movhi	r2,8
   42d18:	10840804 	addi	r2,r2,4128
   42d1c:	10c00035 	stwio	r3,0(r2)
}
   42d20:	0001883a 	nop
   42d24:	e037883a 	mov	sp,fp
   42d28:	df000017 	ldw	fp,0(sp)
   42d2c:	dec00104 	addi	sp,sp,4
   42d30:	f800283a 	ret

00042d34 <SDHAL_SendCmd>:

void SDHAL_SendCmd(alt_u8 szCommand[6], int nCmdLen){
   42d34:	defffa04 	addi	sp,sp,-24
   42d38:	df000515 	stw	fp,20(sp)
   42d3c:	df000504 	addi	fp,sp,20
   42d40:	e13ffe15 	stw	r4,-8(fp)
   42d44:	e17fff15 	stw	r5,-4(fp)

    int i, k;
    alt_u8 Mask, Data;
    
    SD_CMD_OUT;
   42d48:	00c00044 	movi	r3,1
   42d4c:	00800234 	movhi	r2,8
   42d50:	10840d04 	addi	r2,r2,4148
   42d54:	10c00035 	stwio	r3,0(r2)
    for(i=0;i<nCmdLen;i++){
   42d58:	e03ffb15 	stw	zero,-20(fp)
   42d5c:	00002b06 	br	42e0c <SDHAL_SendCmd+0xd8>
        Mask = 0x80;
   42d60:	00bfe004 	movi	r2,-128
   42d64:	e0bffd05 	stb	r2,-12(fp)
        Data = szCommand[i];
   42d68:	e0bffb17 	ldw	r2,-20(fp)
   42d6c:	e0fffe17 	ldw	r3,-8(fp)
   42d70:	1885883a 	add	r2,r3,r2
   42d74:	10800003 	ldbu	r2,0(r2)
   42d78:	e0bffd45 	stb	r2,-11(fp)
        for(k=0;k<8;k++){
   42d7c:	e03ffc15 	stw	zero,-16(fp)
   42d80:	00001c06 	br	42df4 <SDHAL_SendCmd+0xc0>
            SD_CLK_LOW;
   42d84:	0007883a 	mov	r3,zero
   42d88:	00800234 	movhi	r2,8
   42d8c:	10841404 	addi	r2,r2,4176
   42d90:	10c00035 	stwio	r3,0(r2)
            if (Data & Mask)
   42d94:	e0fffd43 	ldbu	r3,-11(fp)
   42d98:	e0bffd03 	ldbu	r2,-12(fp)
   42d9c:	1884703a 	and	r2,r3,r2
   42da0:	10803fcc 	andi	r2,r2,255
   42da4:	10000526 	beq	r2,zero,42dbc <SDHAL_SendCmd+0x88>
                SD_CMD_HIGH;
   42da8:	00c00044 	movi	r3,1
   42dac:	00800234 	movhi	r2,8
   42db0:	10840c04 	addi	r2,r2,4144
   42db4:	10c00035 	stwio	r3,0(r2)
   42db8:	00000406 	br	42dcc <SDHAL_SendCmd+0x98>
            else
                SD_CMD_LOW;
   42dbc:	0007883a 	mov	r3,zero
   42dc0:	00800234 	movhi	r2,8
   42dc4:	10840c04 	addi	r2,r2,4144
   42dc8:	10c00035 	stwio	r3,0(r2)
            SD_CLK_HIGH;    
   42dcc:	00c00044 	movi	r3,1
   42dd0:	00800234 	movhi	r2,8
   42dd4:	10841404 	addi	r2,r2,4176
   42dd8:	10c00035 	stwio	r3,0(r2)
            //    
            Mask >>= 1;
   42ddc:	e0bffd03 	ldbu	r2,-12(fp)
   42de0:	1004d07a 	srli	r2,r2,1
   42de4:	e0bffd05 	stb	r2,-12(fp)
    
    SD_CMD_OUT;
    for(i=0;i<nCmdLen;i++){
        Mask = 0x80;
        Data = szCommand[i];
        for(k=0;k<8;k++){
   42de8:	e0bffc17 	ldw	r2,-16(fp)
   42dec:	10800044 	addi	r2,r2,1
   42df0:	e0bffc15 	stw	r2,-16(fp)
   42df4:	e0bffc17 	ldw	r2,-16(fp)
   42df8:	10800210 	cmplti	r2,r2,8
   42dfc:	103fe11e 	bne	r2,zero,42d84 <_gp+0xffff0a18>

    int i, k;
    alt_u8 Mask, Data;
    
    SD_CMD_OUT;
    for(i=0;i<nCmdLen;i++){
   42e00:	e0bffb17 	ldw	r2,-20(fp)
   42e04:	10800044 	addi	r2,r2,1
   42e08:	e0bffb15 	stw	r2,-20(fp)
   42e0c:	e0fffb17 	ldw	r3,-20(fp)
   42e10:	e0bfff17 	ldw	r2,-4(fp)
   42e14:	18bfd216 	blt	r3,r2,42d60 <_gp+0xffff09f4>
            //    
            Mask >>= 1;
           // usleep(1);
        }
    }
}
   42e18:	0001883a 	nop
   42e1c:	e037883a 	mov	sp,fp
   42e20:	df000017 	ldw	fp,0(sp)
   42e24:	dec00104 	addi	sp,sp,4
   42e28:	f800283a 	ret

00042e2c <SDHAL_GetResponse>:




bool SDHAL_GetResponse(alt_u8 szResponse[], int nLen){
   42e2c:	defff504 	addi	sp,sp,-44
   42e30:	dfc00a15 	stw	ra,40(sp)
   42e34:	df000915 	stw	fp,36(sp)
   42e38:	df000904 	addi	fp,sp,36
   42e3c:	e13ffe15 	stw	r4,-8(fp)
   42e40:	e17fff15 	stw	r5,-4(fp)
    bool bDone, bTimeout;
    const int nMaxCnt = 20; // !!!! Note. the value should be large than 8
   42e44:	00800504 	movi	r2,20
   42e48:	e0bffc15 	stw	r2,-16(fp)
    int nCnt, nBitCnt, nIndex;
    alt_u8 Value;
    

    SD_CMD_IN;
   42e4c:	0007883a 	mov	r3,zero
   42e50:	00800234 	movhi	r2,8
   42e54:	10840d04 	addi	r2,r2,4148
   42e58:	10c00035 	stwio	r3,0(r2)
    
    //===== check start bit == 0
    nCnt = 0;
   42e5c:	e03ff915 	stw	zero,-28(fp)
    bDone = FALSE;
   42e60:	e03ff715 	stw	zero,-36(fp)
    bTimeout = FALSE;
   42e64:	e03ff815 	stw	zero,-32(fp)
    while(!bDone && !bTimeout){
   42e68:	00001606 	br	42ec4 <SDHAL_GetResponse+0x98>
        SD_CLK_LOW;
   42e6c:	0007883a 	mov	r3,zero
   42e70:	00800234 	movhi	r2,8
   42e74:	10841404 	addi	r2,r2,4176
   42e78:	10c00035 	stwio	r3,0(r2)
        SD_CLK_HIGH;
   42e7c:	00c00044 	movi	r3,1
   42e80:	00800234 	movhi	r2,8
   42e84:	10841404 	addi	r2,r2,4176
   42e88:	10c00035 	stwio	r3,0(r2)
        if(!(SD_TEST_CMD))
   42e8c:	00800234 	movhi	r2,8
   42e90:	10840c04 	addi	r2,r2,4144
   42e94:	10800037 	ldwio	r2,0(r2)
   42e98:	1000031e 	bne	r2,zero,42ea8 <SDHAL_GetResponse+0x7c>
            bDone = TRUE;
   42e9c:	00800044 	movi	r2,1
   42ea0:	e0bff715 	stw	r2,-36(fp)
   42ea4:	00000706 	br	42ec4 <SDHAL_GetResponse+0x98>
        else if(nCnt++ > nMaxCnt)
   42ea8:	e0bff917 	ldw	r2,-28(fp)
   42eac:	10c00044 	addi	r3,r2,1
   42eb0:	e0fff915 	stw	r3,-28(fp)
   42eb4:	e0fffc17 	ldw	r3,-16(fp)
   42eb8:	1880020e 	bge	r3,r2,42ec4 <SDHAL_GetResponse+0x98>
            bTimeout = TRUE;
   42ebc:	00800044 	movi	r2,1
   42ec0:	e0bff815 	stw	r2,-32(fp)
    
    //===== check start bit == 0
    nCnt = 0;
    bDone = FALSE;
    bTimeout = FALSE;
    while(!bDone && !bTimeout){
   42ec4:	e0bff717 	ldw	r2,-36(fp)
   42ec8:	1000021e 	bne	r2,zero,42ed4 <SDHAL_GetResponse+0xa8>
   42ecc:	e0bff817 	ldw	r2,-32(fp)
   42ed0:	103fe626 	beq	r2,zero,42e6c <_gp+0xffff0b00>
            bDone = TRUE;
        else if(nCnt++ > nMaxCnt)
            bTimeout = TRUE;
    }
    
    if (!bDone || bTimeout)
   42ed4:	e0bff717 	ldw	r2,-36(fp)
   42ed8:	10000226 	beq	r2,zero,42ee4 <SDHAL_GetResponse+0xb8>
   42edc:	e0bff817 	ldw	r2,-32(fp)
   42ee0:	10000226 	beq	r2,zero,42eec <SDHAL_GetResponse+0xc0>
        return FALSE;
   42ee4:	0005883a 	mov	r2,zero
   42ee8:	00005006 	br	4302c <SDHAL_GetResponse+0x200>
  
    //===== check transmitter bit == 0

    SD_CLK_LOW;
   42eec:	0007883a 	mov	r3,zero
   42ef0:	00800234 	movhi	r2,8
   42ef4:	10841404 	addi	r2,r2,4176
   42ef8:	10c00035 	stwio	r3,0(r2)
    SD_CLK_HIGH;
   42efc:	00c00044 	movi	r3,1
   42f00:	00800234 	movhi	r2,8
   42f04:	10841404 	addi	r2,r2,4176
   42f08:	10c00035 	stwio	r3,0(r2)
    if (SD_TEST_CMD)
   42f0c:	00800234 	movhi	r2,8
   42f10:	10840c04 	addi	r2,r2,4144
   42f14:	10800037 	ldwio	r2,0(r2)
   42f18:	10000226 	beq	r2,zero,42f24 <SDHAL_GetResponse+0xf8>
        return FALSE;   // 0 is expected
   42f1c:	0005883a 	mov	r2,zero
   42f20:	00004206 	br	4302c <SDHAL_GetResponse+0x200>

    
    //===== read content + CRC + end-bits ======
    nIndex = 2;
   42f24:	00800084 	movi	r2,2
   42f28:	e0bffa15 	stw	r2,-24(fp)
    nBitCnt = nLen*8;
   42f2c:	e0bfff17 	ldw	r2,-4(fp)
   42f30:	100490fa 	slli	r2,r2,3
   42f34:	e0bffd15 	stw	r2,-12(fp)
    bDone = FALSE;
   42f38:	e03ff715 	stw	zero,-36(fp)
    Value = 0;
   42f3c:	e03ffb05 	stb	zero,-20(fp)
    while(nIndex < nBitCnt){
   42f40:	00003406 	br	43014 <SDHAL_GetResponse+0x1e8>
        SD_CLK_LOW;
   42f44:	0007883a 	mov	r3,zero
   42f48:	00800234 	movhi	r2,8
   42f4c:	10841404 	addi	r2,r2,4176
   42f50:	10c00035 	stwio	r3,0(r2)
        SD_CLK_HIGH;
   42f54:	00c00044 	movi	r3,1
   42f58:	00800234 	movhi	r2,8
   42f5c:	10841404 	addi	r2,r2,4176
   42f60:	10c00035 	stwio	r3,0(r2)
        if (SD_TEST_CMD){
   42f64:	00800234 	movhi	r2,8
   42f68:	10840c04 	addi	r2,r2,4144
   42f6c:	10800037 	ldwio	r2,0(r2)
   42f70:	10001026 	beq	r2,zero,42fb4 <SDHAL_GetResponse+0x188>
            Value |= 0x80 >> (nIndex % 8);
   42f74:	e0fffa17 	ldw	r3,-24(fp)
   42f78:	00a00034 	movhi	r2,32768
   42f7c:	108001c4 	addi	r2,r2,7
   42f80:	1884703a 	and	r2,r3,r2
   42f84:	1000040e 	bge	r2,zero,42f98 <SDHAL_GetResponse+0x16c>
   42f88:	10bfffc4 	addi	r2,r2,-1
   42f8c:	00fffe04 	movi	r3,-8
   42f90:	10c4b03a 	or	r2,r2,r3
   42f94:	10800044 	addi	r2,r2,1
   42f98:	1007883a 	mov	r3,r2
   42f9c:	00802004 	movi	r2,128
   42fa0:	10c5d83a 	sra	r2,r2,r3
   42fa4:	1007883a 	mov	r3,r2
   42fa8:	e0bffb03 	ldbu	r2,-20(fp)
   42fac:	1884b03a 	or	r2,r3,r2
   42fb0:	e0bffb05 	stb	r2,-20(fp)
        }
        if (nIndex%8 == 7){
   42fb4:	e0fffa17 	ldw	r3,-24(fp)
   42fb8:	00a00034 	movhi	r2,32768
   42fbc:	108001c4 	addi	r2,r2,7
   42fc0:	1884703a 	and	r2,r3,r2
   42fc4:	1000040e 	bge	r2,zero,42fd8 <SDHAL_GetResponse+0x1ac>
   42fc8:	10bfffc4 	addi	r2,r2,-1
   42fcc:	00fffe04 	movi	r3,-8
   42fd0:	10c4b03a 	or	r2,r2,r3
   42fd4:	10800044 	addi	r2,r2,1
   42fd8:	108001d8 	cmpnei	r2,r2,7
   42fdc:	10000a1e 	bne	r2,zero,43008 <SDHAL_GetResponse+0x1dc>
            szResponse[nIndex/8] = Value;
   42fe0:	e0bffa17 	ldw	r2,-24(fp)
   42fe4:	1000010e 	bge	r2,zero,42fec <SDHAL_GetResponse+0x1c0>
   42fe8:	108001c4 	addi	r2,r2,7
   42fec:	1005d0fa 	srai	r2,r2,3
   42ff0:	1007883a 	mov	r3,r2
   42ff4:	e0bffe17 	ldw	r2,-8(fp)
   42ff8:	10c5883a 	add	r2,r2,r3
   42ffc:	e0fffb03 	ldbu	r3,-20(fp)
   43000:	10c00005 	stb	r3,0(r2)
            Value = 0;
   43004:	e03ffb05 	stb	zero,-20(fp)
        }
        nIndex++;
   43008:	e0bffa17 	ldw	r2,-24(fp)
   4300c:	10800044 	addi	r2,r2,1
   43010:	e0bffa15 	stw	r2,-24(fp)
    //===== read content + CRC + end-bits ======
    nIndex = 2;
    nBitCnt = nLen*8;
    bDone = FALSE;
    Value = 0;
    while(nIndex < nBitCnt){
   43014:	e0fffa17 	ldw	r3,-24(fp)
   43018:	e0bffd17 	ldw	r2,-12(fp)
   4301c:	18bfc916 	blt	r3,r2,42f44 <_gp+0xffff0bd8>
        }
        nIndex++;
    } 
    
    // A command with response. 8 clocks after the card response end bit.
    SDHAL_DummyClock(8);
   43020:	01000204 	movi	r4,8
   43024:	00436e80 	call	436e8 <SDHAL_DummyClock>
    
    return TRUE;
   43028:	00800044 	movi	r2,1
}
   4302c:	e037883a 	mov	sp,fp
   43030:	dfc00117 	ldw	ra,4(sp)
   43034:	df000017 	ldw	fp,0(sp)
   43038:	dec00204 	addi	sp,sp,8
   4303c:	f800283a 	ret

00043040 <SDHAL_ReadData>:


bool SDHAL_ReadData(alt_u8 szBuf[], int nBufLen){
   43040:	deff6e04 	addi	sp,sp,-584
   43044:	dfc09115 	stw	ra,580(sp)
   43048:	df009015 	stw	fp,576(sp)
   4304c:	df009004 	addi	fp,sp,576
   43050:	e13ffe15 	stw	r4,-8(fp)
   43054:	e17fff15 	stw	r5,-4(fp)
    bool bSuccess = TRUE;
   43058:	00800044 	movi	r2,1
   4305c:	e0bf7015 	stw	r2,-576(fp)
    int nTry = 0;
   43060:	e03f7115 	stw	zero,-572(fp)
    const int nMaxTry = 5000; 
   43064:	0084e204 	movi	r2,5000
   43068:	e0bf7a15 	stw	r2,-536(fp)
    int i, j,k,n=0;   
   4306c:	e03f7515 	stw	zero,-556(fp)
    
    alt_u8 Data8_0,Data8_1,Data8_2,Data8_3;
    
#endif    
    
    SD_DAT_IN;
   43070:	0007883a 	mov	r3,zero
   43074:	00800234 	movhi	r2,8
   43078:	10840904 	addi	r2,r2,4132
   4307c:	10c00035 	stwio	r3,0(r2)
    
    // wait start bits (zero)
    while(1){
      SD_CLK_LOW;
   43080:	0007883a 	mov	r3,zero
   43084:	00800234 	movhi	r2,8
   43088:	10841404 	addi	r2,r2,4176
   4308c:	10c00035 	stwio	r3,0(r2)
      SD_CLK_HIGH;
   43090:	00c00044 	movi	r3,1
   43094:	00800234 	movhi	r2,8
   43098:	10841404 	addi	r2,r2,4176
   4309c:	10c00035 	stwio	r3,0(r2)
#ifdef SD_4BIT_MODE
      if((SD_TEST_DAT & 0x0F) == 0x00) // check start bits (zero is expected)
   430a0:	00800234 	movhi	r2,8
   430a4:	10840804 	addi	r2,r2,4128
   430a8:	10800037 	ldwio	r2,0(r2)
   430ac:	108003cc 	andi	r2,r2,15
   430b0:	10000726 	beq	r2,zero,430d0 <SDHAL_ReadData+0x90>
#else      
      if((SD_TEST_DAT & 0x01) == 0x00) // check start bits (zero is expected)
#endif      
        break;
      if (nTry++ > nMaxTry)
   430b4:	e0bf7117 	ldw	r2,-572(fp)
   430b8:	10c00044 	addi	r3,r2,1
   430bc:	e0ff7115 	stw	r3,-572(fp)
   430c0:	e0ff7a17 	ldw	r3,-536(fp)
   430c4:	18bfee0e 	bge	r3,r2,43080 <_gp+0xffff0d14>
        return FALSE;        
   430c8:	0005883a 	mov	r2,zero
   430cc:	00010906 	br	434f4 <SDHAL_ReadData+0x4b4>
#ifdef SD_4BIT_MODE
      if((SD_TEST_DAT & 0x0F) == 0x00) // check start bits (zero is expected)
#else      
      if((SD_TEST_DAT & 0x01) == 0x00) // check start bits (zero is expected)
#endif      
        break;
   430d0:	0001883a 	nop
    }     
    
    // read data (512byte = 1 block)
    
#ifdef SD_4BIT_MODE
     for(i=0;i<nBufLen/4;i++)
   430d4:	e03f7215 	stw	zero,-568(fp)
   430d8:	00007106 	br	432a0 <SDHAL_ReadData+0x260>
     {
        k = 0;
   430dc:	e03f7415 	stw	zero,-560(fp)
        Data8   = 0;
   430e0:	e03f7605 	stb	zero,-552(fp)
        Data8_0 = 0;
   430e4:	e03f7885 	stb	zero,-542(fp)
        Data8_1 = 0;
   430e8:	e03f78c5 	stb	zero,-541(fp)
        Data8_2 = 0;
   430ec:	e03f7905 	stb	zero,-540(fp)
        Data8_3 = 0;
   430f0:	e03f7945 	stb	zero,-539(fp)
        
        for(j=0;j<8;j++)
   430f4:	e03f7315 	stw	zero,-564(fp)
   430f8:	00004f06 	br	43238 <SDHAL_ReadData+0x1f8>
        {
          SD_CLK_LOW;
   430fc:	0007883a 	mov	r3,zero
   43100:	00800234 	movhi	r2,8
   43104:	10841404 	addi	r2,r2,4176
   43108:	10c00035 	stwio	r3,0(r2)
          SD_CLK_HIGH;
   4310c:	00c00044 	movi	r3,1
   43110:	00800234 	movhi	r2,8
   43114:	10841404 	addi	r2,r2,4176
   43118:	10c00035 	stwio	r3,0(r2)
          Data8   <<= 4;
   4311c:	e0bf7603 	ldbu	r2,-552(fp)
   43120:	1004913a 	slli	r2,r2,4
   43124:	e0bf7605 	stb	r2,-552(fp)
          Data8_0 <<= 1;
   43128:	e0bf7883 	ldbu	r2,-542(fp)
   4312c:	1085883a 	add	r2,r2,r2
   43130:	e0bf7885 	stb	r2,-542(fp)
          Data8_1 <<= 1;
   43134:	e0bf78c3 	ldbu	r2,-541(fp)
   43138:	1085883a 	add	r2,r2,r2
   4313c:	e0bf78c5 	stb	r2,-541(fp)
          Data8_2 <<= 1;
   43140:	e0bf7903 	ldbu	r2,-540(fp)
   43144:	1085883a 	add	r2,r2,r2
   43148:	e0bf7905 	stb	r2,-540(fp)
          Data8_3 <<= 1; 
   4314c:	e0bf7943 	ldbu	r2,-539(fp)
   43150:	1085883a 	add	r2,r2,r2
   43154:	e0bf7945 	stb	r2,-539(fp)
          
          DataTemp = SD_TEST_DAT;
   43158:	00800234 	movhi	r2,8
   4315c:	10840804 	addi	r2,r2,4128
   43160:	10800037 	ldwio	r2,0(r2)
   43164:	e0bf7b05 	stb	r2,-532(fp)
          Data8   |= (DataTemp & 0x0F);
   43168:	e0bf7b03 	ldbu	r2,-532(fp)
   4316c:	108003cc 	andi	r2,r2,15
   43170:	1007883a 	mov	r3,r2
   43174:	e0bf7603 	ldbu	r2,-552(fp)
   43178:	1884b03a 	or	r2,r3,r2
   4317c:	e0bf7605 	stb	r2,-552(fp)
          Data8_0 |= (DataTemp & 0x01);
   43180:	e0bf7b03 	ldbu	r2,-532(fp)
   43184:	1080004c 	andi	r2,r2,1
   43188:	1007883a 	mov	r3,r2
   4318c:	e0bf7883 	ldbu	r2,-542(fp)
   43190:	1884b03a 	or	r2,r3,r2
   43194:	e0bf7885 	stb	r2,-542(fp)
          Data8_1 |= ((DataTemp >> 1) & 0x01);
   43198:	e0bf7b03 	ldbu	r2,-532(fp)
   4319c:	1004d07a 	srli	r2,r2,1
   431a0:	1080004c 	andi	r2,r2,1
   431a4:	1007883a 	mov	r3,r2
   431a8:	e0bf78c3 	ldbu	r2,-541(fp)
   431ac:	1884b03a 	or	r2,r3,r2
   431b0:	e0bf78c5 	stb	r2,-541(fp)
          Data8_2 |= ((DataTemp >> 2) & 0x01);
   431b4:	e0bf7b03 	ldbu	r2,-532(fp)
   431b8:	1004d0ba 	srli	r2,r2,2
   431bc:	1080004c 	andi	r2,r2,1
   431c0:	1007883a 	mov	r3,r2
   431c4:	e0bf7903 	ldbu	r2,-540(fp)
   431c8:	1884b03a 	or	r2,r3,r2
   431cc:	e0bf7905 	stb	r2,-540(fp)
          Data8_3 |= ((DataTemp >> 3) & 0x01);
   431d0:	e0bf7b03 	ldbu	r2,-532(fp)
   431d4:	1004d0fa 	srli	r2,r2,3
   431d8:	1080004c 	andi	r2,r2,1
   431dc:	1007883a 	mov	r3,r2
   431e0:	e0bf7943 	ldbu	r2,-539(fp)
   431e4:	1884b03a 	or	r2,r3,r2
   431e8:	e0bf7945 	stb	r2,-539(fp)
          
          k++;
   431ec:	e0bf7417 	ldw	r2,-560(fp)
   431f0:	10800044 	addi	r2,r2,1
   431f4:	e0bf7415 	stw	r2,-560(fp)
          if(k == 2)
   431f8:	e0bf7417 	ldw	r2,-560(fp)
   431fc:	10800098 	cmpnei	r2,r2,2
   43200:	10000a1e 	bne	r2,zero,4322c <SDHAL_ReadData+0x1ec>
          {
            szBuf[n++] = Data8;
   43204:	e0bf7517 	ldw	r2,-556(fp)
   43208:	10c00044 	addi	r3,r2,1
   4320c:	e0ff7515 	stw	r3,-556(fp)
   43210:	1007883a 	mov	r3,r2
   43214:	e0bffe17 	ldw	r2,-8(fp)
   43218:	10c5883a 	add	r2,r2,r3
   4321c:	e0ff7603 	ldbu	r3,-552(fp)
   43220:	10c00005 	stb	r3,0(r2)
            Data8 = 0;
   43224:	e03f7605 	stb	zero,-552(fp)
            k = 0;
   43228:	e03f7415 	stw	zero,-560(fp)
        Data8_0 = 0;
        Data8_1 = 0;
        Data8_2 = 0;
        Data8_3 = 0;
        
        for(j=0;j<8;j++)
   4322c:	e0bf7317 	ldw	r2,-564(fp)
   43230:	10800044 	addi	r2,r2,1
   43234:	e0bf7315 	stw	r2,-564(fp)
   43238:	e0bf7317 	ldw	r2,-564(fp)
   4323c:	10800210 	cmplti	r2,r2,8
   43240:	103fae1e 	bne	r2,zero,430fc <_gp+0xffff0d90>
            szBuf[n++] = Data8;
            Data8 = 0;
            k = 0;
          }
        } 
        szBuf_0[i] = Data8_0;
   43244:	e0ff7d84 	addi	r3,fp,-522
   43248:	e0bf7217 	ldw	r2,-568(fp)
   4324c:	1885883a 	add	r2,r3,r2
   43250:	e0ff7883 	ldbu	r3,-542(fp)
   43254:	10c00005 	stb	r3,0(r2)
        szBuf_1[i] = Data8_1;
   43258:	e0ff9d84 	addi	r3,fp,-394
   4325c:	e0bf7217 	ldw	r2,-568(fp)
   43260:	1885883a 	add	r2,r3,r2
   43264:	e0ff78c3 	ldbu	r3,-541(fp)
   43268:	10c00005 	stb	r3,0(r2)
        szBuf_2[i] = Data8_2;
   4326c:	e0ffbd84 	addi	r3,fp,-266
   43270:	e0bf7217 	ldw	r2,-568(fp)
   43274:	1885883a 	add	r2,r3,r2
   43278:	e0ff7903 	ldbu	r3,-540(fp)
   4327c:	10c00005 	stb	r3,0(r2)
        szBuf_3[i] = Data8_3;
   43280:	e0ffdd84 	addi	r3,fp,-138
   43284:	e0bf7217 	ldw	r2,-568(fp)
   43288:	1885883a 	add	r2,r3,r2
   4328c:	e0ff7943 	ldbu	r3,-539(fp)
   43290:	10c00005 	stb	r3,0(r2)
    }     
    
    // read data (512byte = 1 block)
    
#ifdef SD_4BIT_MODE
     for(i=0;i<nBufLen/4;i++)
   43294:	e0bf7217 	ldw	r2,-568(fp)
   43298:	10800044 	addi	r2,r2,1
   4329c:	e0bf7215 	stw	r2,-568(fp)
   432a0:	e0bfff17 	ldw	r2,-4(fp)
   432a4:	1000010e 	bge	r2,zero,432ac <SDHAL_ReadData+0x26c>
   432a8:	108000c4 	addi	r2,r2,3
   432ac:	1005d0ba 	srai	r2,r2,2
   432b0:	1007883a 	mov	r3,r2
   432b4:	e0bf7217 	ldw	r2,-568(fp)
   432b8:	10ff8816 	blt	r2,r3,430dc <_gp+0xffff0d70>
#endif

    //===== CRC16 and end-bit check (each channel is seperated)
#ifdef SD_4BIT_MODE 
    // Not implement yet
    DataCrc16_0 = 0;
   432bc:	e03f768d 	sth	zero,-550(fp)
    DataCrc16_1 = 0;
   432c0:	e03f770d 	sth	zero,-548(fp)
    DataCrc16_2 = 0;
   432c4:	e03f778d 	sth	zero,-546(fp)
    DataCrc16_3 = 0;
   432c8:	e03f780d 	sth	zero,-544(fp)
    for(i=0;i<16;i++)
   432cc:	e03f7215 	stw	zero,-568(fp)
   432d0:	00003306 	br	433a0 <SDHAL_ReadData+0x360>
    {
        SD_CLK_LOW;
   432d4:	0007883a 	mov	r3,zero
   432d8:	00800234 	movhi	r2,8
   432dc:	10841404 	addi	r2,r2,4176
   432e0:	10c00035 	stwio	r3,0(r2)
        SD_CLK_HIGH;
   432e4:	00c00044 	movi	r3,1
   432e8:	00800234 	movhi	r2,8
   432ec:	10841404 	addi	r2,r2,4176
   432f0:	10c00035 	stwio	r3,0(r2)
        
        DataCrc16_0 <<= 1;
   432f4:	e0bf768b 	ldhu	r2,-550(fp)
   432f8:	1085883a 	add	r2,r2,r2
   432fc:	e0bf768d 	sth	r2,-550(fp)
        DataCrc16_1 <<= 1;
   43300:	e0bf770b 	ldhu	r2,-548(fp)
   43304:	1085883a 	add	r2,r2,r2
   43308:	e0bf770d 	sth	r2,-548(fp)
        DataCrc16_2 <<= 1;
   4330c:	e0bf778b 	ldhu	r2,-546(fp)
   43310:	1085883a 	add	r2,r2,r2
   43314:	e0bf778d 	sth	r2,-546(fp)
        DataCrc16_3 <<= 1;
   43318:	e0bf780b 	ldhu	r2,-544(fp)
   4331c:	1085883a 	add	r2,r2,r2
   43320:	e0bf780d 	sth	r2,-544(fp)
        
        DataTemp = SD_TEST_DAT;
   43324:	00800234 	movhi	r2,8
   43328:	10840804 	addi	r2,r2,4128
   4332c:	10800037 	ldwio	r2,0(r2)
   43330:	e0bf7b05 	stb	r2,-532(fp)
        
        if (DataTemp & 0x01)
   43334:	e0bf7b03 	ldbu	r2,-532(fp)
   43338:	1080004c 	andi	r2,r2,1
   4333c:	10000326 	beq	r2,zero,4334c <SDHAL_ReadData+0x30c>
            DataCrc16_0 |= 0x01;
   43340:	e0bf768b 	ldhu	r2,-550(fp)
   43344:	10800054 	ori	r2,r2,1
   43348:	e0bf768d 	sth	r2,-550(fp)
         if(DataTemp & 0x02)
   4334c:	e0bf7b03 	ldbu	r2,-532(fp)
   43350:	1080008c 	andi	r2,r2,2
   43354:	10000326 	beq	r2,zero,43364 <SDHAL_ReadData+0x324>
            DataCrc16_1 |= 0x01;
   43358:	e0bf770b 	ldhu	r2,-548(fp)
   4335c:	10800054 	ori	r2,r2,1
   43360:	e0bf770d 	sth	r2,-548(fp)
         if(DataTemp & 0x04)
   43364:	e0bf7b03 	ldbu	r2,-532(fp)
   43368:	1080010c 	andi	r2,r2,4
   4336c:	10000326 	beq	r2,zero,4337c <SDHAL_ReadData+0x33c>
            DataCrc16_2 |= 0x01;
   43370:	e0bf778b 	ldhu	r2,-546(fp)
   43374:	10800054 	ori	r2,r2,1
   43378:	e0bf778d 	sth	r2,-546(fp)
         if(DataTemp & 0x08)
   4337c:	e0bf7b03 	ldbu	r2,-532(fp)
   43380:	1080020c 	andi	r2,r2,8
   43384:	10000326 	beq	r2,zero,43394 <SDHAL_ReadData+0x354>
            DataCrc16_3 |= 0x01;
   43388:	e0bf780b 	ldhu	r2,-544(fp)
   4338c:	10800054 	ori	r2,r2,1
   43390:	e0bf780d 	sth	r2,-544(fp)
    // Not implement yet
    DataCrc16_0 = 0;
    DataCrc16_1 = 0;
    DataCrc16_2 = 0;
    DataCrc16_3 = 0;
    for(i=0;i<16;i++)
   43394:	e0bf7217 	ldw	r2,-568(fp)
   43398:	10800044 	addi	r2,r2,1
   4339c:	e0bf7215 	stw	r2,-568(fp)
   433a0:	e0bf7217 	ldw	r2,-568(fp)
   433a4:	10800410 	cmplti	r2,r2,16
   433a8:	103fca1e 	bne	r2,zero,432d4 <_gp+0xffff0f68>
         if(DataTemp & 0x08)
            DataCrc16_3 |= 0x01;
    }
    
    // check end bit (value 'one' is expected
    SD_CLK_LOW;
   433ac:	0007883a 	mov	r3,zero
   433b0:	00800234 	movhi	r2,8
   433b4:	10841404 	addi	r2,r2,4176
   433b8:	10c00035 	stwio	r3,0(r2)
    SD_CLK_HIGH;
   433bc:	00c00044 	movi	r3,1
   433c0:	00800234 	movhi	r2,8
   433c4:	10841404 	addi	r2,r2,4176
   433c8:	10c00035 	stwio	r3,0(r2)
    if ((SD_TEST_DAT & 0x0F) != 0x0F)
   433cc:	00800234 	movhi	r2,8
   433d0:	10840804 	addi	r2,r2,4128
   433d4:	10800037 	ldwio	r2,0(r2)
   433d8:	108003cc 	andi	r2,r2,15
   433dc:	108003e0 	cmpeqi	r2,r2,15
   433e0:	1000011e 	bne	r2,zero,433e8 <SDHAL_ReadData+0x3a8>
        bSuccess = FALSE;
   433e4:	e03f7015 	stw	zero,-576(fp)
     
    // to provide8 (eight) clock cycles for the card to complete the operation before shutting down the clock 
    SDHAL_DummyClock(8);     
   433e8:	01000204 	movi	r4,8
   433ec:	00436e80 	call	436e8 <SDHAL_DummyClock>
     
    // check crc    
    if (bSuccess){
   433f0:	e0bf7017 	ldw	r2,-576(fp)
   433f4:	10000e26 	beq	r2,zero,43430 <SDHAL_ReadData+0x3f0>
        MyCrc16_0 = crc16(szBuf_0, nBufLen/4);
   433f8:	e0bfff17 	ldw	r2,-4(fp)
   433fc:	1000010e 	bge	r2,zero,43404 <SDHAL_ReadData+0x3c4>
   43400:	108000c4 	addi	r2,r2,3
   43404:	1005d0ba 	srai	r2,r2,2
   43408:	1007883a 	mov	r3,r2
   4340c:	e0bf7d84 	addi	r2,fp,-522
   43410:	180b883a 	mov	r5,r3
   43414:	1009883a 	mov	r4,r2
   43418:	0042b340 	call	42b34 <crc16>
   4341c:	e0bf7b8d 	sth	r2,-530(fp)
        if (MyCrc16_0 != DataCrc16_0)
   43420:	e0ff7b8b 	ldhu	r3,-530(fp)
   43424:	e0bf768b 	ldhu	r2,-550(fp)
   43428:	18800126 	beq	r3,r2,43430 <SDHAL_ReadData+0x3f0>
            bSuccess = FALSE;
   4342c:	e03f7015 	stw	zero,-576(fp)
    }    
    if (bSuccess){
   43430:	e0bf7017 	ldw	r2,-576(fp)
   43434:	10000e26 	beq	r2,zero,43470 <SDHAL_ReadData+0x430>
        MyCrc16_1 = crc16(szBuf_1, nBufLen/4);
   43438:	e0bfff17 	ldw	r2,-4(fp)
   4343c:	1000010e 	bge	r2,zero,43444 <SDHAL_ReadData+0x404>
   43440:	108000c4 	addi	r2,r2,3
   43444:	1005d0ba 	srai	r2,r2,2
   43448:	1007883a 	mov	r3,r2
   4344c:	e0bf9d84 	addi	r2,fp,-394
   43450:	180b883a 	mov	r5,r3
   43454:	1009883a 	mov	r4,r2
   43458:	0042b340 	call	42b34 <crc16>
   4345c:	e0bf7c0d 	sth	r2,-528(fp)
        if (MyCrc16_1 != DataCrc16_1)
   43460:	e0ff7c0b 	ldhu	r3,-528(fp)
   43464:	e0bf770b 	ldhu	r2,-548(fp)
   43468:	18800126 	beq	r3,r2,43470 <SDHAL_ReadData+0x430>
            bSuccess = FALSE;
   4346c:	e03f7015 	stw	zero,-576(fp)
    }   
    if (bSuccess){
   43470:	e0bf7017 	ldw	r2,-576(fp)
   43474:	10000e26 	beq	r2,zero,434b0 <SDHAL_ReadData+0x470>
        MyCrc16_2 = crc16(szBuf_2, nBufLen/4);
   43478:	e0bfff17 	ldw	r2,-4(fp)
   4347c:	1000010e 	bge	r2,zero,43484 <SDHAL_ReadData+0x444>
   43480:	108000c4 	addi	r2,r2,3
   43484:	1005d0ba 	srai	r2,r2,2
   43488:	1007883a 	mov	r3,r2
   4348c:	e0bfbd84 	addi	r2,fp,-266
   43490:	180b883a 	mov	r5,r3
   43494:	1009883a 	mov	r4,r2
   43498:	0042b340 	call	42b34 <crc16>
   4349c:	e0bf7c8d 	sth	r2,-526(fp)
        if (MyCrc16_2 != DataCrc16_2)
   434a0:	e0ff7c8b 	ldhu	r3,-526(fp)
   434a4:	e0bf778b 	ldhu	r2,-546(fp)
   434a8:	18800126 	beq	r3,r2,434b0 <SDHAL_ReadData+0x470>
            bSuccess = FALSE;
   434ac:	e03f7015 	stw	zero,-576(fp)
    } 
    if (bSuccess){
   434b0:	e0bf7017 	ldw	r2,-576(fp)
   434b4:	10000e26 	beq	r2,zero,434f0 <SDHAL_ReadData+0x4b0>
        MyCrc16_3 = crc16(szBuf_3, nBufLen/4);
   434b8:	e0bfff17 	ldw	r2,-4(fp)
   434bc:	1000010e 	bge	r2,zero,434c4 <SDHAL_ReadData+0x484>
   434c0:	108000c4 	addi	r2,r2,3
   434c4:	1005d0ba 	srai	r2,r2,2
   434c8:	1007883a 	mov	r3,r2
   434cc:	e0bfdd84 	addi	r2,fp,-138
   434d0:	180b883a 	mov	r5,r3
   434d4:	1009883a 	mov	r4,r2
   434d8:	0042b340 	call	42b34 <crc16>
   434dc:	e0bf7d0d 	sth	r2,-524(fp)
        if (MyCrc16_3 != DataCrc16_3)
   434e0:	e0ff7d0b 	ldhu	r3,-524(fp)
   434e4:	e0bf780b 	ldhu	r2,-544(fp)
   434e8:	18800126 	beq	r3,r2,434f0 <SDHAL_ReadData+0x4b0>
            bSuccess = FALSE;
   434ec:	e03f7015 	stw	zero,-576(fp)
            bSuccess = FALSE;
    }            
    
#endif

    return bSuccess;
   434f0:	e0bf7017 	ldw	r2,-576(fp)
}
   434f4:	e037883a 	mov	sp,fp
   434f8:	dfc00117 	ldw	ra,4(sp)
   434fc:	df000017 	ldw	fp,0(sp)
   43500:	dec00204 	addi	sp,sp,8
   43504:	f800283a 	ret

00043508 <SDHAL_WriteData>:

bool SDHAL_WriteData(alt_u8 szDataWrite[], int nDataLen){
   43508:	defff604 	addi	sp,sp,-40
   4350c:	dfc00915 	stw	ra,36(sp)
   43510:	df000815 	stw	fp,32(sp)
   43514:	df000804 	addi	fp,sp,32
   43518:	e13ffe15 	stw	r4,-8(fp)
   4351c:	e17fff15 	stw	r5,-4(fp)
    bool bSuccess = TRUE;
   43520:	00800044 	movi	r2,1
   43524:	e0bff815 	stw	r2,-32(fp)
  //  const int nMaxTry = 5000; 
    int i, j;   
    alt_u8 Data8;
    alt_u16 DataCrc16;
    
    DataCrc16 = crc16(szDataWrite, nDataLen);
   43528:	e17fff17 	ldw	r5,-4(fp)
   4352c:	e13ffe17 	ldw	r4,-8(fp)
   43530:	0042b340 	call	42b34 <crc16>
   43534:	e0bffd0d 	sth	r2,-12(fp)
        break;
      if (nTry++ > nMaxTry)
        return FALSE;        
    } */    
    
    SD_DAT_OUT;
   43538:	00c00044 	movi	r3,1
   4353c:	00800234 	movhi	r2,8
   43540:	10840904 	addi	r2,r2,4132
   43544:	10c00035 	stwio	r3,0(r2)
    // start bits (zero value)
    SD_CLK_LOW;
   43548:	0007883a 	mov	r3,zero
   4354c:	00800234 	movhi	r2,8
   43550:	10841404 	addi	r2,r2,4176
   43554:	10c00035 	stwio	r3,0(r2)
    SD_DAT_WRITE(0x00);  
   43558:	0007883a 	mov	r3,zero
   4355c:	00800234 	movhi	r2,8
   43560:	10840804 	addi	r2,r2,4128
   43564:	10c00035 	stwio	r3,0(r2)
    SD_CLK_HIGH;
   43568:	00c00044 	movi	r3,1
   4356c:	00800234 	movhi	r2,8
   43570:	10841404 	addi	r2,r2,4176
   43574:	10c00035 	stwio	r3,0(r2)
    
    // write data (512byte = 1 block)
    for(i=0;i<nDataLen;i++)
   43578:	e03ff915 	stw	zero,-28(fp)
   4357c:	00002206 	br	43608 <SDHAL_WriteData+0x100>
    {
      Data8 = szDataWrite[i];
   43580:	e0bff917 	ldw	r2,-28(fp)
   43584:	e0fffe17 	ldw	r3,-8(fp)
   43588:	1885883a 	add	r2,r3,r2
   4358c:	10800003 	ldbu	r2,0(r2)
   43590:	e0bffb05 	stb	r2,-20(fp)
#ifdef SD_4BIT_MODE
      for(j=0;j<2;j++)
   43594:	e03ffa15 	stw	zero,-24(fp)
   43598:	00001506 	br	435f0 <SDHAL_WriteData+0xe8>
      {
        SD_CLK_LOW;
   4359c:	0007883a 	mov	r3,zero
   435a0:	00800234 	movhi	r2,8
   435a4:	10841404 	addi	r2,r2,4176
   435a8:	10c00035 	stwio	r3,0(r2)
        //
        SD_DAT_WRITE((Data8 >> 4) & 0x0F);
   435ac:	e0bffb03 	ldbu	r2,-20(fp)
   435b0:	1004d13a 	srli	r2,r2,4
   435b4:	10803fcc 	andi	r2,r2,255
   435b8:	10c003cc 	andi	r3,r2,15
   435bc:	00800234 	movhi	r2,8
   435c0:	10840804 	addi	r2,r2,4128
   435c4:	10c00035 	stwio	r3,0(r2)
        //            
        SD_CLK_HIGH;
   435c8:	00c00044 	movi	r3,1
   435cc:	00800234 	movhi	r2,8
   435d0:	10841404 	addi	r2,r2,4176
   435d4:	10c00035 	stwio	r3,0(r2)
        Data8 <<= 4; 
   435d8:	e0bffb03 	ldbu	r2,-20(fp)
   435dc:	1004913a 	slli	r2,r2,4
   435e0:	e0bffb05 	stb	r2,-20(fp)
    // write data (512byte = 1 block)
    for(i=0;i<nDataLen;i++)
    {
      Data8 = szDataWrite[i];
#ifdef SD_4BIT_MODE
      for(j=0;j<2;j++)
   435e4:	e0bffa17 	ldw	r2,-24(fp)
   435e8:	10800044 	addi	r2,r2,1
   435ec:	e0bffa15 	stw	r2,-24(fp)
   435f0:	e0bffa17 	ldw	r2,-24(fp)
   435f4:	10800090 	cmplti	r2,r2,2
   435f8:	103fe81e 	bne	r2,zero,4359c <_gp+0xffff1230>
    SD_CLK_LOW;
    SD_DAT_WRITE(0x00);  
    SD_CLK_HIGH;
    
    // write data (512byte = 1 block)
    for(i=0;i<nDataLen;i++)
   435fc:	e0bff917 	ldw	r2,-28(fp)
   43600:	10800044 	addi	r2,r2,1
   43604:	e0bff915 	stw	r2,-28(fp)
   43608:	e0fff917 	ldw	r3,-28(fp)
   4360c:	e0bfff17 	ldw	r2,-4(fp)
   43610:	18bfdb16 	blt	r3,r2,43580 <_gp+0xffff1214>

    
#endif    

    // stop bits (value 'one')
    SD_CLK_LOW;
   43614:	0007883a 	mov	r3,zero
   43618:	00800234 	movhi	r2,8
   4361c:	10841404 	addi	r2,r2,4176
   43620:	10c00035 	stwio	r3,0(r2)
#ifdef SD_4BIT_MODE
    SD_DAT_WRITE(0x0F);
   43624:	00c003c4 	movi	r3,15
   43628:	00800234 	movhi	r2,8
   4362c:	10840804 	addi	r2,r2,4128
   43630:	10c00035 	stwio	r3,0(r2)
#else    
    SD_DAT_HIGH;
#endif     
    SD_CLK_HIGH;
   43634:	00c00044 	movi	r3,1
   43638:	00800234 	movhi	r2,8
   4363c:	10841404 	addi	r2,r2,4176
   43640:	10c00035 	stwio	r3,0(r2)
    
    //===== check busy bits (data0 only)
    SD_DAT_IN;
   43644:	0007883a 	mov	r3,zero
   43648:	00800234 	movhi	r2,8
   4364c:	10840904 	addi	r2,r2,4132
   43650:	10c00035 	stwio	r3,0(r2)
bool bWriteSuccess = FALSE;    
   43654:	e03ffc15 	stw	zero,-16(fp)
for(i=0;i<32 && !bWriteSuccess;i++){        
   43658:	e03ff915 	stw	zero,-28(fp)
   4365c:	00001206 	br	436a8 <SDHAL_WriteData+0x1a0>
    SD_CLK_LOW;
   43660:	0007883a 	mov	r3,zero
   43664:	00800234 	movhi	r2,8
   43668:	10841404 	addi	r2,r2,4176
   4366c:	10c00035 	stwio	r3,0(r2)
    SD_CLK_HIGH;
   43670:	00c00044 	movi	r3,1
   43674:	00800234 	movhi	r2,8
   43678:	10841404 	addi	r2,r2,4176
   4367c:	10c00035 	stwio	r3,0(r2)
    if ((SD_TEST_DAT & 0x01) == 0x01) // (DAT0==LOW: busy indicate
   43680:	00800234 	movhi	r2,8
   43684:	10840804 	addi	r2,r2,4128
   43688:	10800037 	ldwio	r2,0(r2)
   4368c:	1080004c 	andi	r2,r2,1
   43690:	10000226 	beq	r2,zero,4369c <SDHAL_WriteData+0x194>
        bWriteSuccess = TRUE;
   43694:	00800044 	movi	r2,1
   43698:	e0bffc15 	stw	r2,-16(fp)
    SD_CLK_HIGH;
    
    //===== check busy bits (data0 only)
    SD_DAT_IN;
bool bWriteSuccess = FALSE;    
for(i=0;i<32 && !bWriteSuccess;i++){        
   4369c:	e0bff917 	ldw	r2,-28(fp)
   436a0:	10800044 	addi	r2,r2,1
   436a4:	e0bff915 	stw	r2,-28(fp)
   436a8:	e0bff917 	ldw	r2,-28(fp)
   436ac:	10800808 	cmpgei	r2,r2,32
   436b0:	1000021e 	bne	r2,zero,436bc <SDHAL_WriteData+0x1b4>
   436b4:	e0bffc17 	ldw	r2,-16(fp)
   436b8:	103fe926 	beq	r2,zero,43660 <_gp+0xffff12f4>
    SD_CLK_LOW;
    SD_CLK_HIGH;
    if ((SD_TEST_DAT & 0x01) == 0x01) // (DAT0==LOW: busy indicate
        bWriteSuccess = TRUE;
}
    if (!bWriteSuccess)
   436bc:	e0bffc17 	ldw	r2,-16(fp)
   436c0:	1000011e 	bne	r2,zero,436c8 <SDHAL_WriteData+0x1c0>
        bSuccess = FALSE;
   436c4:	e03ff815 	stw	zero,-32(fp)
                
    // to provide8 (eight) clock cycles for the card to complete the operation before shutting down the clock 
    SDHAL_DummyClock(8);     
   436c8:	01000204 	movi	r4,8
   436cc:	00436e80 	call	436e8 <SDHAL_DummyClock>
    for(i=0; i<16; i++){
        SD_CLK_LOW;
        SD_CLK_HIGH;
    }*/
    
    return bSuccess;
   436d0:	e0bff817 	ldw	r2,-32(fp)
    
}
   436d4:	e037883a 	mov	sp,fp
   436d8:	dfc00117 	ldw	ra,4(sp)
   436dc:	df000017 	ldw	fp,0(sp)
   436e0:	dec00204 	addi	sp,sp,8
   436e4:	f800283a 	ret

000436e8 <SDHAL_DummyClock>:


void SDHAL_DummyClock(int nClockCnt){
   436e8:	defffd04 	addi	sp,sp,-12
   436ec:	df000215 	stw	fp,8(sp)
   436f0:	df000204 	addi	fp,sp,8
   436f4:	e13fff15 	stw	r4,-4(fp)
    int i;
    for(i=0;i<nClockCnt;i++){
   436f8:	e03ffe15 	stw	zero,-8(fp)
   436fc:	00000b06 	br	4372c <SDHAL_DummyClock+0x44>
        SD_CLK_LOW;
   43700:	0007883a 	mov	r3,zero
   43704:	00800234 	movhi	r2,8
   43708:	10841404 	addi	r2,r2,4176
   4370c:	10c00035 	stwio	r3,0(r2)
        SD_CLK_HIGH;
   43710:	00c00044 	movi	r3,1
   43714:	00800234 	movhi	r2,8
   43718:	10841404 	addi	r2,r2,4176
   4371c:	10c00035 	stwio	r3,0(r2)
}


void SDHAL_DummyClock(int nClockCnt){
    int i;
    for(i=0;i<nClockCnt;i++){
   43720:	e0bffe17 	ldw	r2,-8(fp)
   43724:	10800044 	addi	r2,r2,1
   43728:	e0bffe15 	stw	r2,-8(fp)
   4372c:	e0fffe17 	ldw	r3,-8(fp)
   43730:	e0bfff17 	ldw	r2,-4(fp)
   43734:	18bff216 	blt	r3,r2,43700 <_gp+0xffff1394>
        SD_CLK_LOW;
        SD_CLK_HIGH;
    }
}
   43738:	0001883a 	nop
   4373c:	e037883a 	mov	sp,fp
   43740:	df000017 	ldw	fp,0(sp)
   43744:	dec00104 	addi	sp,sp,4
   43748:	f800283a 	ret

0004374c <SDLIB_Init>:
static SD_INFO gSdInfo;


//-------------------------------------------------------------------------
bool SDLIB_Init(void)
{
   4374c:	defff604 	addi	sp,sp,-40
   43750:	dfc00915 	stw	ra,36(sp)
   43754:	df000815 	stw	fp,32(sp)
   43758:	df000804 	addi	fp,sp,32
    bool bSuccess = FALSE, bTimeout = FALSE;
   4375c:	e03ff815 	stw	zero,-32(fp)
   43760:	e03ff915 	stw	zero,-28(fp)
   43764:	d0a0cd17 	ldw	r2,-31948(gp)
    alt_u8  szThisCID[16];
    const int nTimeout = alt_ticks_per_second();
   43768:	e0bffa15 	stw	r2,-24(fp)
    alt_u32 TimeStart;

    
   // alt_u8 x,y;
    memset(&gSdInfo, 0, sizeof(gSdInfo));
   4376c:	01800e04 	movi	r6,56
   43770:	000b883a 	mov	r5,zero
   43774:	01000174 	movhi	r4,5
   43778:	2129ac04 	addi	r4,r4,-22864
   4377c:	0046b000 	call	46b00 <memset>
    gSdInfo.bSupport4Bits = SD_IsSupport4Bits();
   43780:	0043c080 	call	43c08 <SD_IsSupport4Bits>
   43784:	1007883a 	mov	r3,r2
   43788:	00800174 	movhi	r2,5
   4378c:	10a9ac04 	addi	r2,r2,-22864
   43790:	10c00015 	stw	r3,0(r2)

    SDCARD_DEBUG(("--- Power On, Card Identification Mode, Idle State\r\n"));
    SDCARD_DEBUG(("sd %d-bit mode\r\n", gSdInfo.bSupport4Bits?4:1));
  
    usleep(74*10);
   43794:	0100b904 	movi	r4,740
   43798:	00483040 	call	48304 <usleep>
    
    SD_Init();
   4379c:	0043bdc0 	call	43bdc <SD_Init>

    
    //========================== CMD0 (None Response) ========
    // Reset all cards to idle state
    SD_CMD0();
   437a0:	0043c300 	call	43c30 <SD_CMD0>
    usleep(100*1000);
   437a4:	010000b4 	movhi	r4,2
   437a8:	2121a804 	addi	r4,r4,-31072
   437ac:	00483040 	call	48304 <usleep>
    
    //========================== CMD8 (Response R7) ==========
    //Sends SD Memory Card interface condition (Added in SDHC 2.0)
    if (SD_CMD8(SD_VHS_2V7_3V6, CMD8_DEFAULT_TEST_PATTERN)){
   437b0:	01402a84 	movi	r5,170
   437b4:	01000044 	movi	r4,1
   437b8:	0043cbc0 	call	43cbc <SD_CMD8>
   437bc:	10000e26 	beq	r2,zero,437f8 <SDLIB_Init+0xac>
        // OCR: Operation Condistions Register
        //gSdInfo.HostOCR32 = 0x01 << 30; //argument=0x40FF8000; // support HC
        gSdInfo.HostOCR32 = 0x40FF8000;
   437c0:	00800174 	movhi	r2,5
   437c4:	10a9ac04 	addi	r2,r2,-22864
   437c8:	00d04034 	movhi	r3,16640
   437cc:	18e00004 	addi	r3,r3,-32768
   437d0:	10c00315 	stw	r3,12(r2)
        gSdInfo.bVer2 = TRUE;
   437d4:	00800174 	movhi	r2,5
   437d8:	10a9ac04 	addi	r2,r2,-22864
   437dc:	00c00044 	movi	r3,1
   437e0:	10c00115 	stw	r3,4(r2)
        gSdInfo.bSDHC = TRUE;
   437e4:	00800174 	movhi	r2,5
   437e8:	10a9ac04 	addi	r2,r2,-22864
   437ec:	00c00044 	movi	r3,1
   437f0:	10c00215 	stw	r3,8(r2)
   437f4:	00000806 	br	43818 <SDLIB_Init+0xcc>
        SDCARD_DEBUG((" 2.0 \r\n"));
    }else{
        gSdInfo.HostOCR32 = 0x00040000;   
   437f8:	00800174 	movhi	r2,5
   437fc:	10a9ac04 	addi	r2,r2,-22864
   43800:	00c00134 	movhi	r3,4
   43804:	10c00315 	stw	r3,12(r2)
        SDCARD_TRACE(("CMD8 not supported\r\n"));
        
        // Reset cards to idle state
        SD_CMD0();
   43808:	0043c300 	call	43c30 <SD_CMD0>
        usleep(100*1000);        
   4380c:	010000b4 	movhi	r4,2
   43810:	2121a804 	addi	r4,r4,-31072
   43814:	00483040 	call	48304 <usleep>
 * alt_nticks() returns the elapsed number of system clock ticks since reset.
 */

static ALT_INLINE alt_u32 ALT_ALWAYS_INLINE alt_nticks (void)
{
  return _alt_nticks;
   43818:	d0a0ce17 	ldw	r2,-31944(gp)
    }
    //========================== ACMD41 (CMD55) ==============
    TimeStart = alt_nticks();
   4381c:	e0bffb15 	stw	r2,-20(fp)
    while(!bSuccess && !bTimeout){
   43820:	00002c06 	br	438d4 <SDLIB_Init+0x188>
        if (!SD_CMD55(gSdInfo.RCA16, SD_STATE_IDLE)){  // execute cmd55 before execute and ACMD
   43824:	00800174 	movhi	r2,5
   43828:	10a9ac04 	addi	r2,r2,-22864
   4382c:	1080050b 	ldhu	r2,20(r2)
   43830:	10bfffcc 	andi	r2,r2,65535
   43834:	000b883a 	mov	r5,zero
   43838:	1009883a 	mov	r4,r2
   4383c:	0043e480 	call	43e48 <SD_CMD55>
   43840:	1000021e 	bne	r2,zero,4384c <SDLIB_Init+0x100>
            SDCARD_ERROR(("CMD55 NG\r\n"));
            return FALSE;
   43844:	0005883a 	mov	r2,zero
   43848:	00008206 	br	43a54 <SDLIB_Init+0x308>
        }else{    
            bSuccess = SD_ACMD41(gSdInfo.HostOCR32, &gSdInfo.OCR32);
   4384c:	00800174 	movhi	r2,5
   43850:	10a9ac04 	addi	r2,r2,-22864
   43854:	10800317 	ldw	r2,12(r2)
   43858:	01400174 	movhi	r5,5
   4385c:	2969b004 	addi	r5,r5,-22848
   43860:	1009883a 	mov	r4,r2
   43864:	0043fc80 	call	43fc8 <SD_ACMD41>
   43868:	e0bff815 	stw	r2,-32(fp)
            if (bSuccess && gSdInfo.bSDHC && ((gSdInfo.OCR32 & 0x40000000) == 0x00)){
   4386c:	e0bff817 	ldw	r2,-32(fp)
   43870:	10000c26 	beq	r2,zero,438a4 <SDLIB_Init+0x158>
   43874:	00800174 	movhi	r2,5
   43878:	10a9ac04 	addi	r2,r2,-22864
   4387c:	10800217 	ldw	r2,8(r2)
   43880:	10000826 	beq	r2,zero,438a4 <SDLIB_Init+0x158>
   43884:	00800174 	movhi	r2,5
   43888:	10a9ac04 	addi	r2,r2,-22864
   4388c:	10800417 	ldw	r2,16(r2)
   43890:	1090002c 	andhi	r2,r2,16384
   43894:	1000031e 	bne	r2,zero,438a4 <SDLIB_Init+0x158>
                gSdInfo.bSDHC = FALSE;
   43898:	00800174 	movhi	r2,5
   4389c:	10a9ac04 	addi	r2,r2,-22864
   438a0:	10000215 	stw	zero,8(r2)
            }    
            // check timeout
            if (!bSuccess){
   438a4:	e0bff817 	ldw	r2,-32(fp)
   438a8:	10000a1e 	bne	r2,zero,438d4 <SDLIB_Init+0x188>
   438ac:	d0e0ce17 	ldw	r3,-31944(gp)
                if ((alt_nticks() - TimeStart) > nTimeout){
   438b0:	e0bffb17 	ldw	r2,-20(fp)
   438b4:	1885c83a 	sub	r2,r3,r2
   438b8:	e0fffa17 	ldw	r3,-24(fp)
   438bc:	1880032e 	bgeu	r3,r2,438cc <SDLIB_Init+0x180>
                    SDCARD_ERROR(("ACMD41[SD_APP_OP_COND] fail\r\n"));
                    bTimeout = TRUE;
   438c0:	00800044 	movi	r2,1
   438c4:	e0bff915 	stw	r2,-28(fp)
   438c8:	00000206 	br	438d4 <SDLIB_Init+0x188>
                }else{
                    usleep(10*1000);
   438cc:	0109c404 	movi	r4,10000
   438d0:	00483040 	call	48304 <usleep>
        SD_CMD0();
        usleep(100*1000);        
    }
    //========================== ACMD41 (CMD55) ==============
    TimeStart = alt_nticks();
    while(!bSuccess && !bTimeout){
   438d4:	e0bff817 	ldw	r2,-32(fp)
   438d8:	1000021e 	bne	r2,zero,438e4 <SDLIB_Init+0x198>
   438dc:	e0bff917 	ldw	r2,-28(fp)
   438e0:	103fd026 	beq	r2,zero,43824 <_gp+0xffff14b8>
                    usleep(10*1000);
                }    
            }
        }
    }
    if (!bSuccess){
   438e4:	e0bff817 	ldw	r2,-32(fp)
   438e8:	1000021e 	bne	r2,zero,438f4 <SDLIB_Init+0x1a8>
        return FALSE;
   438ec:	0005883a 	mov	r2,zero
   438f0:	00005806 	br	43a54 <SDLIB_Init+0x308>
    }
   
    //========================== CMD2 ========================    
    // issue cmd2 & wait response 
    // ALL_SEND_CID (CMD2): Asks any card to send the CID numbers on the CMD line
    if (!SD_CMD2(gSdInfo.szCID, sizeof(gSdInfo.szCID))){
   438f4:	01400444 	movi	r5,17
   438f8:	01000174 	movhi	r4,5
   438fc:	2129b184 	addi	r4,r4,-22842
   43900:	00441640 	call	44164 <SD_CMD2>
   43904:	1000021e 	bne	r2,zero,43910 <SDLIB_Init+0x1c4>
        SDCARD_ERROR(("CMD2 fail\r\n"));
        return FALSE;
   43908:	0005883a 	mov	r2,zero
   4390c:	00005106 	br	43a54 <SDLIB_Init+0x308>
    SDCARD_TRACE(("--- Power On, Card Identification Mode, Identification State\r\n"));

    //========================== CMD3 ========================        
    // issue cmd3 & wait response, finally get RCA
    // CMD3 (SEND_RELATIVE_ADDR): Ask the card to publish a new relative address (RCA)
    if (!SD_CMD3(&gSdInfo.RCA16)){
   43910:	01000174 	movhi	r4,5
   43914:	2129b104 	addi	r4,r4,-22844
   43918:	00442fc0 	call	442fc <SD_CMD3>
   4391c:	1000021e 	bne	r2,zero,43928 <SDLIB_Init+0x1dc>
        SDCARD_ERROR(("CMD3 fail\r\n"));
        return FALSE;
   43920:	0005883a 	mov	r2,zero
   43924:	00004b06 	br	43a54 <SDLIB_Init+0x308>
    //### Standby-by state in Data-transfer mode
    
    //========================== CMD9 ========================
    SDCARD_DEBUG(("--- enter data-transfer mode, Standby state\r\n"));
    // issue cmd9 with given RCA & wait response 
    if (!SD_CMD9(gSdInfo.RCA16, gSdInfo.szCSD, sizeof(gSdInfo.szCSD))){
   43928:	00800174 	movhi	r2,5
   4392c:	10a9ac04 	addi	r2,r2,-22864
   43930:	1080050b 	ldhu	r2,20(r2)
   43934:	10bfffcc 	andi	r2,r2,65535
   43938:	01800444 	movi	r6,17
   4393c:	01400174 	movhi	r5,5
   43940:	2969b5c4 	addi	r5,r5,-22825
   43944:	1009883a 	mov	r4,r2
   43948:	00444980 	call	44498 <SD_CMD9>
   4394c:	1000021e 	bne	r2,zero,43958 <SDLIB_Init+0x20c>
        SDCARD_DEBUG(("CMD9 fail\r\n"));
        return FALSE;
   43950:	0005883a 	mov	r2,zero
   43954:	00003f06 	br	43a54 <SDLIB_Init+0x308>
    }
    
    //========================== CMD10 ========================
    // richard add  (query card identification)  
    if (!SD_CMD10(gSdInfo.RCA16, szThisCID, sizeof(szThisCID))){
   43958:	00800174 	movhi	r2,5
   4395c:	10a9ac04 	addi	r2,r2,-22864
   43960:	1080050b 	ldhu	r2,20(r2)
   43964:	10bfffcc 	andi	r2,r2,65535
   43968:	e0fffc04 	addi	r3,fp,-16
   4396c:	01800404 	movi	r6,16
   43970:	180b883a 	mov	r5,r3
   43974:	1009883a 	mov	r4,r2
   43978:	00446580 	call	44658 <SD_CMD10>
   4397c:	1000021e 	bne	r2,zero,43988 <SDLIB_Init+0x23c>
        SDCARD_DEBUG(("CMD10 fail\r\n"));
        return FALSE;
   43980:	0005883a 	mov	r2,zero
   43984:	00003306 	br	43a54 <SDLIB_Init+0x308>
    // issue cmd9 with given RCA & wait response
    
    //========================== CMD7 ========================
    // richard: issue cmd7 to enter transfer state
    // cmd7: toggle between Standy-by and Trasfer State
    if (!SD_CMD7(gSdInfo.RCA16)){
   43988:	00800174 	movhi	r2,5
   4398c:	10a9ac04 	addi	r2,r2,-22864
   43990:	1080050b 	ldhu	r2,20(r2)
   43994:	10bfffcc 	andi	r2,r2,65535
   43998:	1009883a 	mov	r4,r2
   4399c:	00448180 	call	44818 <SD_CMD7>
   439a0:	1000021e 	bne	r2,zero,439ac <SDLIB_Init+0x260>
        SDCARD_DEBUG(("CMD7 fail\r\n"));
        return FALSE;
   439a4:	0005883a 	mov	r2,zero
   439a8:	00002a06 	br	43a54 <SDLIB_Init+0x308>
    //### Transfer state in Data-transfer mode     
    SDCARD_DEBUG(("--- enter data-transfer mode, Transfer state\r\n"));
       
    //========================== CMD16 ========================   
    // issue cmd16 (select a block length) & wait response
    if (!SD_CMD16(512)){  // 512 bytes
   439ac:	01008004 	movi	r4,512
   439b0:	00449980 	call	44998 <SD_CMD16>
   439b4:	1000021e 	bne	r2,zero,439c0 <SDLIB_Init+0x274>
        SDCARD_DEBUG(("CMD16 fail\r\n"));
        return FALSE;
   439b8:	0005883a 	mov	r2,zero
   439bc:	00002506 	br	43a54 <SDLIB_Init+0x308>
    }       
    
    if (gSdInfo.bSupport4Bits){ 
   439c0:	00800174 	movhi	r2,5
   439c4:	10a9ac04 	addi	r2,r2,-22864
   439c8:	10800017 	ldw	r2,0(r2)
   439cc:	10002026 	beq	r2,zero,43a50 <SDLIB_Init+0x304>
        // richard add: set bus width
        // Note. This command is valid only in "transfer state", i.e. after CMD7 is issued

        if (!SD_CMD55(gSdInfo.RCA16, SD_STATE_TRAN)){  // execute cmd55 before execute and ACMD, RCA = 0
   439d0:	00800174 	movhi	r2,5
   439d4:	10a9ac04 	addi	r2,r2,-22864
   439d8:	1080050b 	ldhu	r2,20(r2)
   439dc:	10bfffcc 	andi	r2,r2,65535
   439e0:	01400104 	movi	r5,4
   439e4:	1009883a 	mov	r4,r2
   439e8:	0043e480 	call	43e48 <SD_CMD55>
   439ec:	1000021e 	bne	r2,zero,439f8 <SDLIB_Init+0x2ac>
            SDCARD_DEBUG(("CMD55 NG\r\n"));
            return FALSE;
   439f0:	0005883a 	mov	r2,zero
   439f4:	00001706 	br	43a54 <SDLIB_Init+0x308>
        }       
    
        SDCARD_DEBUG(("ACMD6[SET_BUS_WIDTH], 4-bit\r\n"));
        if (!SD_ACMD6(TRUE, SD_STATE_TRAN)){  // 4-bit mode
   439f8:	01400104 	movi	r5,4
   439fc:	01000044 	movi	r4,1
   43a00:	0044b380 	call	44b38 <SD_ACMD6>
   43a04:	1000021e 	bne	r2,zero,43a10 <SDLIB_Init+0x2c4>
            SDCARD_DEBUG(("ACMD6 NG\r\n"));
            return FALSE;
   43a08:	0005883a 	mov	r2,zero
   43a0c:	00001106 	br	43a54 <SDLIB_Init+0x308>
        }         
    
    
        //
        if (!SD_CMD55(gSdInfo.RCA16, SD_STATE_TRAN)){  // execute cmd55 before execute and ACMD, RCA = 0
   43a10:	00800174 	movhi	r2,5
   43a14:	10a9ac04 	addi	r2,r2,-22864
   43a18:	1080050b 	ldhu	r2,20(r2)
   43a1c:	10bfffcc 	andi	r2,r2,65535
   43a20:	01400104 	movi	r5,4
   43a24:	1009883a 	mov	r4,r2
   43a28:	0043e480 	call	43e48 <SD_CMD55>
   43a2c:	1000021e 	bne	r2,zero,43a38 <SDLIB_Init+0x2ec>
            SDCARD_DEBUG(("CMD55 NG\r\n"));
            return FALSE;
   43a30:	0005883a 	mov	r2,zero
   43a34:	00000706 	br	43a54 <SDLIB_Init+0x308>
        }    
    
       
        SDCARD_DEBUG(("ACMD42[SET_CLR_CARD_DETECT], connect card\r\n"));
        if (!SD_ACMD42(TRUE, SD_STATE_TRAN)){  // connect card
   43a38:	01400104 	movi	r5,4
   43a3c:	01000044 	movi	r4,1
   43a40:	0044cc40 	call	44cc4 <SD_ACMD42>
   43a44:	1000021e 	bne	r2,zero,43a50 <SDLIB_Init+0x304>
            SDCARD_DEBUG(("ACMD42 NG\r\n"));
            return FALSE;
   43a48:	0005883a 	mov	r2,zero
   43a4c:	00000106 	br	43a54 <SDLIB_Init+0x308>
        printf("!!!!!write ng\r\n");
#endif
     
    SDCARD_DEBUG(("SDLIB_Init success\r\n"));
    
    return TRUE;
   43a50:	00800044 	movi	r2,1
}
   43a54:	e037883a 	mov	sp,fp
   43a58:	dfc00117 	ldw	ra,4(sp)
   43a5c:	df000017 	ldw	fp,0(sp)
   43a60:	dec00204 	addi	sp,sp,8
   43a64:	f800283a 	ret

00043a68 <SDLIB_ReadBlock512>:


bool SDLIB_ReadBlock512(alt_u32 block_number, alt_u8 *buff)
{
   43a68:	defff904 	addi	sp,sp,-28
   43a6c:	dfc00615 	stw	ra,24(sp)
   43a70:	df000515 	stw	fp,20(sp)
   43a74:	df000504 	addi	fp,sp,20
   43a78:	e13ffe15 	stw	r4,-8(fp)
   43a7c:	e17fff15 	stw	r5,-4(fp)
    // buffer size muse be 512 byte
    bool bSuccess;  
    alt_u32  addr;
  
    // issue cmd17 for 'Single Block Read'. parameter: block address
    if (gSdInfo.bSDHC)
   43a80:	00800174 	movhi	r2,5
   43a84:	10a9ac04 	addi	r2,r2,-22864
   43a88:	10800217 	ldw	r2,8(r2)
   43a8c:	10000326 	beq	r2,zero,43a9c <SDLIB_ReadBlock512+0x34>
        addr = block_number; // note. for SDHC, argument for addr of CMD7 is block number
   43a90:	e0bffe17 	ldw	r2,-8(fp)
   43a94:	e0bffb15 	stw	r2,-20(fp)
   43a98:	00000306 	br	43aa8 <SDLIB_ReadBlock512+0x40>
    else 
        addr = block_number * 512;
   43a9c:	e0bffe17 	ldw	r2,-8(fp)
   43aa0:	1004927a 	slli	r2,r2,9
   43aa4:	e0bffb15 	stw	r2,-20(fp)
    if (!SD_CMD17(addr, SD_STATE_TRAN)){  // 4-bit mode
   43aa8:	01400104 	movi	r5,4
   43aac:	e13ffb17 	ldw	r4,-20(fp)
   43ab0:	0044e440 	call	44e44 <SD_CMD17>
   43ab4:	1000021e 	bne	r2,zero,43ac0 <SDLIB_ReadBlock512+0x58>
        SDCARD_DEBUG(("CMD17 NG\r\n"));
        return FALSE;
   43ab8:	0005883a 	mov	r2,zero
   43abc:	00002206 	br	43b48 <SDLIB_ReadBlock512+0xe0>
    }
    //

    bSuccess = SD_ReadData(buff, 512);  // read 512 bytes
   43ac0:	01408004 	movi	r5,512
   43ac4:	e13fff17 	ldw	r4,-4(fp)
   43ac8:	00451940 	call	45194 <SD_ReadData>
   43acc:	e0bffd15 	stw	r2,-12(fp)
    
    printf("BLOCK READ:");
   43ad0:	01000174 	movhi	r4,5
   43ad4:	21273a04 	addi	r4,r4,-25368
   43ad8:	0046d980 	call	46d98 <printf>
    for (int i = 0; i < 512; i++) {
   43adc:	e03ffc15 	stw	zero,-16(fp)
   43ae0:	00001206 	br	43b2c <SDLIB_ReadBlock512+0xc4>
    	if (i%16 == 0) printf("\r\n");
   43ae4:	e0bffc17 	ldw	r2,-16(fp)
   43ae8:	108003cc 	andi	r2,r2,15
   43aec:	1000031e 	bne	r2,zero,43afc <SDLIB_ReadBlock512+0x94>
   43af0:	01000174 	movhi	r4,5
   43af4:	21273d04 	addi	r4,r4,-25356
   43af8:	0046e880 	call	46e88 <puts>
    	printf("%02x ", buff[i]);
   43afc:	e0bffc17 	ldw	r2,-16(fp)
   43b00:	e0ffff17 	ldw	r3,-4(fp)
   43b04:	1885883a 	add	r2,r3,r2
   43b08:	10800003 	ldbu	r2,0(r2)
   43b0c:	10803fcc 	andi	r2,r2,255
   43b10:	100b883a 	mov	r5,r2
   43b14:	01000174 	movhi	r4,5
   43b18:	21273e04 	addi	r4,r4,-25352
   43b1c:	0046d980 	call	46d98 <printf>
    //

    bSuccess = SD_ReadData(buff, 512);  // read 512 bytes
    
    printf("BLOCK READ:");
    for (int i = 0; i < 512; i++) {
   43b20:	e0bffc17 	ldw	r2,-16(fp)
   43b24:	10800044 	addi	r2,r2,1
   43b28:	e0bffc15 	stw	r2,-16(fp)
   43b2c:	e0bffc17 	ldw	r2,-16(fp)
   43b30:	10808010 	cmplti	r2,r2,512
   43b34:	103feb1e 	bne	r2,zero,43ae4 <_gp+0xffff1778>
    	if (i%16 == 0) printf("\r\n");
    	printf("%02x ", buff[i]);
    }

    printf("\r\n\r\n");
   43b38:	01000174 	movhi	r4,5
   43b3c:	21274004 	addi	r4,r4,-25344
   43b40:	0046e880 	call	46e88 <puts>

    //
    return bSuccess;
   43b44:	e0bffd17 	ldw	r2,-12(fp)
}
   43b48:	e037883a 	mov	sp,fp
   43b4c:	dfc00117 	ldw	ra,4(sp)
   43b50:	df000017 	ldw	fp,0(sp)
   43b54:	dec00204 	addi	sp,sp,8
   43b58:	f800283a 	ret

00043b5c <SDLIB_WriteBlock512>:

bool SDLIB_WriteBlock512(alt_u32 block_number, alt_u8 *szDataWrite)
{
   43b5c:	defffa04 	addi	sp,sp,-24
   43b60:	dfc00515 	stw	ra,20(sp)
   43b64:	df000415 	stw	fp,16(sp)
   43b68:	df000404 	addi	fp,sp,16
   43b6c:	e13ffe15 	stw	r4,-8(fp)
   43b70:	e17fff15 	stw	r5,-4(fp)
    // buffer size muse be 512 byte
    bool bSuccess;  
    alt_u32  addr;
  
    // issue cmd24 for 'Single Block write'. parameter: block address
    if (gSdInfo.bSDHC)
   43b74:	00800174 	movhi	r2,5
   43b78:	10a9ac04 	addi	r2,r2,-22864
   43b7c:	10800217 	ldw	r2,8(r2)
   43b80:	10000326 	beq	r2,zero,43b90 <SDLIB_WriteBlock512+0x34>
        addr = block_number; // note. for SDHC, argument for addr of CMD7 is block number
   43b84:	e0bffe17 	ldw	r2,-8(fp)
   43b88:	e0bffc15 	stw	r2,-16(fp)
   43b8c:	00000306 	br	43b9c <SDLIB_WriteBlock512+0x40>
    else 
        addr = block_number * 512;
   43b90:	e0bffe17 	ldw	r2,-8(fp)
   43b94:	1004927a 	slli	r2,r2,9
   43b98:	e0bffc15 	stw	r2,-16(fp)
    if (!SD_CMD24(addr, SD_STATE_TRAN)){ 
   43b9c:	01400104 	movi	r5,4
   43ba0:	e13ffc17 	ldw	r4,-16(fp)
   43ba4:	0044fec0 	call	44fec <SD_CMD24>
   43ba8:	1000021e 	bne	r2,zero,43bb4 <SDLIB_WriteBlock512+0x58>
        SDCARD_DEBUG(("CMD24 NG\r\n"));
        return FALSE;
   43bac:	0005883a 	mov	r2,zero
   43bb0:	00000506 	br	43bc8 <SDLIB_WriteBlock512+0x6c>
    }
    //

    bSuccess = SD_WriteData(szDataWrite, 512);  // Write 512 bytes
   43bb4:	01408004 	movi	r5,512
   43bb8:	e13fff17 	ldw	r4,-4(fp)
   43bbc:	00451d40 	call	451d4 <SD_WriteData>
   43bc0:	e0bffd15 	stw	r2,-12(fp)
    
    //
    return bSuccess;
   43bc4:	e0bffd17 	ldw	r2,-12(fp)
}
   43bc8:	e037883a 	mov	sp,fp
   43bcc:	dfc00117 	ldw	ra,4(sp)
   43bd0:	df000017 	ldw	fp,0(sp)
   43bd4:	dec00204 	addi	sp,sp,8
   43bd8:	f800283a 	ret

00043bdc <SD_Init>:
// internal function
alt_u32 ArrayToU32(alt_u8 szData[]);

//============================================================

void SD_Init(void){
   43bdc:	defffe04 	addi	sp,sp,-8
   43be0:	dfc00115 	stw	ra,4(sp)
   43be4:	df000015 	stw	fp,0(sp)
   43be8:	d839883a 	mov	fp,sp
    SDHAL_Init();
   43bec:	0042cc40 	call	42cc4 <SDHAL_Init>
}
   43bf0:	0001883a 	nop
   43bf4:	e037883a 	mov	sp,fp
   43bf8:	dfc00117 	ldw	ra,4(sp)
   43bfc:	df000017 	ldw	fp,0(sp)
   43c00:	dec00204 	addi	sp,sp,8
   43c04:	f800283a 	ret

00043c08 <SD_IsSupport4Bits>:

bool SD_IsSupport4Bits(void){
   43c08:	defffe04 	addi	sp,sp,-8
   43c0c:	dfc00115 	stw	ra,4(sp)
   43c10:	df000015 	stw	fp,0(sp)
   43c14:	d839883a 	mov	fp,sp
    return SDHAL_IsSupport4Bits();
   43c18:	0042c980 	call	42c98 <SDHAL_IsSupport4Bits>
}
   43c1c:	e037883a 	mov	sp,fp
   43c20:	dfc00117 	ldw	ra,4(sp)
   43c24:	df000017 	ldw	fp,0(sp)
   43c28:	dec00204 	addi	sp,sp,8
   43c2c:	f800283a 	ret

00043c30 <SD_CMD0>:



void SD_CMD0(void){
   43c30:	defffc04 	addi	sp,sp,-16
   43c34:	dfc00315 	stw	ra,12(sp)
   43c38:	df000215 	stw	fp,8(sp)
   43c3c:	df000204 	addi	fp,sp,8
    alt_u8 szCmd[6]  = {0x40,0x00,0x00,0x00,0x00, 0x00}, crc;
   43c40:	00801004 	movi	r2,64
   43c44:	e0bffe45 	stb	r2,-7(fp)
   43c48:	e03ffe85 	stb	zero,-6(fp)
   43c4c:	e03ffec5 	stb	zero,-5(fp)
   43c50:	e03fff05 	stb	zero,-4(fp)
   43c54:	e03fff45 	stb	zero,-3(fp)
   43c58:	e03fff85 	stb	zero,-2(fp)

    SDCARD_TRACE(("CMD0\r\n"));
    // build packet    
    szCmd[0] |= 0X00;
   43c5c:	e0bffe43 	ldbu	r2,-7(fp)
   43c60:	e0bffe45 	stb	r2,-7(fp)
    crc = crc7(0, szCmd, 5);
   43c64:	e0bffe44 	addi	r2,fp,-7
   43c68:	01800144 	movi	r6,5
   43c6c:	100b883a 	mov	r5,r2
   43c70:	0009883a 	mov	r4,zero
   43c74:	0042c280 	call	42c28 <crc7>
   43c78:	e0bffe05 	stb	r2,-8(fp)
    szCmd[5] = (crc << 1) | 0x01;
   43c7c:	e0bffe03 	ldbu	r2,-8(fp)
   43c80:	1085883a 	add	r2,r2,r2
   43c84:	10800054 	ori	r2,r2,1
   43c88:	e0bfff85 	stb	r2,-2(fp)
    
    // Tx 100 clock for power on sequence 
   // SDHAL_DummyClock(100);
    //
    
    SDHAL_SendCmd(szCmd, sizeof(szCmd));
   43c8c:	e0bffe44 	addi	r2,fp,-7
   43c90:	01400184 	movi	r5,6
   43c94:	1009883a 	mov	r4,r2
   43c98:	0042d340 	call	42d34 <SDHAL_SendCmd>
    
    // A command with no response. 8 clocks after the host command end bit.
    // !!!!!!!!!! Note. Remember to add dummy clock here
    SDHAL_DummyClock(8);
   43c9c:	01000204 	movi	r4,8
   43ca0:	00436e80 	call	436e8 <SDHAL_DummyClock>
    
}
   43ca4:	0001883a 	nop
   43ca8:	e037883a 	mov	sp,fp
   43cac:	dfc00117 	ldw	ra,4(sp)
   43cb0:	df000017 	ldw	fp,0(sp)
   43cb4:	dec00204 	addi	sp,sp,8
   43cb8:	f800283a 	ret

00043cbc <SD_CMD8>:


bool SD_CMD8(alt_u8 VolId, alt_u8 TestPattern){
   43cbc:	defff704 	addi	sp,sp,-36
   43cc0:	dfc00815 	stw	ra,32(sp)
   43cc4:	df000715 	stw	fp,28(sp)
   43cc8:	df000704 	addi	fp,sp,28
   43ccc:	2007883a 	mov	r3,r4
   43cd0:	2805883a 	mov	r2,r5
   43cd4:	e0fffe05 	stb	r3,-8(fp)
   43cd8:	e0bfff05 	stb	r2,-4(fp)
    bool bSuccess;
    alt_u8 szResponse[6];
    const alt_u8 Cmd = 8;
   43cdc:	00800204 	movi	r2,8
   43ce0:	e0bffa05 	stb	r2,-24(fp)
   // int x;
    alt_u8 szCmd[6]  = {0x40,0x00,0x00,0x00,0x00, 0x00}, crc;
   43ce4:	00801004 	movi	r2,64
   43ce8:	e0bffc45 	stb	r2,-15(fp)
   43cec:	e03ffc85 	stb	zero,-14(fp)
   43cf0:	e03ffcc5 	stb	zero,-13(fp)
   43cf4:	e03ffd05 	stb	zero,-12(fp)
   43cf8:	e03ffd45 	stb	zero,-11(fp)
   43cfc:	e03ffd85 	stb	zero,-10(fp)

    SDCARD_TRACE(("CMD8\r\n"));
    // build packet    
    szCmd[0] |= Cmd;
   43d00:	e0fffc43 	ldbu	r3,-15(fp)
   43d04:	e0bffa03 	ldbu	r2,-24(fp)
   43d08:	1884b03a 	or	r2,r3,r2
   43d0c:	e0bffc45 	stb	r2,-15(fp)
    szCmd[3] |= (VolId & 0x0F);
   43d10:	e0bffd03 	ldbu	r2,-12(fp)
   43d14:	1007883a 	mov	r3,r2
   43d18:	e0bffe03 	ldbu	r2,-8(fp)
   43d1c:	108003cc 	andi	r2,r2,15
   43d20:	1884b03a 	or	r2,r3,r2
   43d24:	e0bffd05 	stb	r2,-12(fp)
    szCmd[4] = TestPattern;
   43d28:	e0bfff03 	ldbu	r2,-4(fp)
   43d2c:	e0bffd45 	stb	r2,-11(fp)
    crc = crc7(0, szCmd, 5);
   43d30:	e0bffc44 	addi	r2,fp,-15
   43d34:	01800144 	movi	r6,5
   43d38:	100b883a 	mov	r5,r2
   43d3c:	0009883a 	mov	r4,zero
   43d40:	0042c280 	call	42c28 <crc7>
   43d44:	e0bffa45 	stb	r2,-23(fp)
    szCmd[5] = (crc << 1) | 0x01;
   43d48:	e0bffa43 	ldbu	r2,-23(fp)
   43d4c:	1085883a 	add	r2,r2,r2
   43d50:	10800054 	ori	r2,r2,1
   43d54:	e0bffd85 	stb	r2,-10(fp)
    
    SDHAL_SendCmd(szCmd, sizeof(szCmd));
   43d58:	e0bffc44 	addi	r2,fp,-15
   43d5c:	01400184 	movi	r5,6
   43d60:	1009883a 	mov	r4,r2
   43d64:	0042d340 	call	42d34 <SDHAL_SendCmd>
    
    bSuccess = SDHAL_GetResponse(szResponse, sizeof(szResponse));
   43d68:	e0bffac4 	addi	r2,fp,-21
   43d6c:	01400184 	movi	r5,6
   43d70:	1009883a 	mov	r4,r2
   43d74:	0042e2c0 	call	42e2c <SDHAL_GetResponse>
   43d78:	e0bff915 	stw	r2,-28(fp)
    
    // check response content
    if (bSuccess){
   43d7c:	e0bff917 	ldw	r2,-28(fp)
   43d80:	10002b26 	beq	r2,zero,43e30 <SD_CMD8+0x174>
        // check command
        if (bSuccess && szResponse[0] != Cmd){
   43d84:	e0bff917 	ldw	r2,-28(fp)
   43d88:	10000526 	beq	r2,zero,43da0 <SD_CMD8+0xe4>
   43d8c:	e0bffac3 	ldbu	r2,-21(fp)
   43d90:	10c03fcc 	andi	r3,r2,255
   43d94:	e0bffa03 	ldbu	r2,-24(fp)
   43d98:	18800126 	beq	r3,r2,43da0 <SD_CMD8+0xe4>
            SDCARD_DEBUG(("CMD%d Response: Invalid command index\r\n", Cmd));
            bSuccess = FALSE;
   43d9c:	e03ff915 	stw	zero,-28(fp)
        }
        
        // check voltage supplied        
        if (bSuccess && szResponse[3] != VolId){
   43da0:	e0bff917 	ldw	r2,-28(fp)
   43da4:	10000526 	beq	r2,zero,43dbc <SD_CMD8+0x100>
   43da8:	e0bffb83 	ldbu	r2,-18(fp)
   43dac:	10c03fcc 	andi	r3,r2,255
   43db0:	e0bffe03 	ldbu	r2,-8(fp)
   43db4:	18800126 	beq	r3,r2,43dbc <SD_CMD8+0x100>
            SDCARD_DEBUG(("CMD%d Response: Invalid Void Id\r\n", Cmd));
            bSuccess = FALSE;
   43db8:	e03ff915 	stw	zero,-28(fp)
        }        

        // check test pattern        
        if (bSuccess && szResponse[4] != TestPattern){
   43dbc:	e0bff917 	ldw	r2,-28(fp)
   43dc0:	10000526 	beq	r2,zero,43dd8 <SD_CMD8+0x11c>
   43dc4:	e0bffbc3 	ldbu	r2,-17(fp)
   43dc8:	10c03fcc 	andi	r3,r2,255
   43dcc:	e0bfff03 	ldbu	r2,-4(fp)
   43dd0:	18800126 	beq	r3,r2,43dd8 <SD_CMD8+0x11c>
            SDCARD_DEBUG(("CMD%d Response: Invalid Test pattern\r\n", Cmd));
            bSuccess = FALSE;
   43dd4:	e03ff915 	stw	zero,-28(fp)
        }
        
        // check crc
        if (bSuccess){
   43dd8:	e0bff917 	ldw	r2,-28(fp)
   43ddc:	10000d26 	beq	r2,zero,43e14 <SD_CMD8+0x158>
            alt_u8 crc;
            crc = crc7(0, szResponse, 5);
   43de0:	e0bffac4 	addi	r2,fp,-21
   43de4:	01800144 	movi	r6,5
   43de8:	100b883a 	mov	r5,r2
   43dec:	0009883a 	mov	r4,zero
   43df0:	0042c280 	call	42c28 <crc7>
   43df4:	e0bffa85 	stb	r2,-22(fp)
            if (crc != (szResponse[5] >> 1)){
   43df8:	e0bffc03 	ldbu	r2,-16(fp)
   43dfc:	10803fcc 	andi	r2,r2,255
   43e00:	1004d07a 	srli	r2,r2,1
   43e04:	10c03fcc 	andi	r3,r2,255
   43e08:	e0bffa83 	ldbu	r2,-22(fp)
   43e0c:	18800126 	beq	r3,r2,43e14 <SD_CMD8+0x158>
                SDCARD_DEBUG(("CMD%d Response: Invalid crc7\r\n", Cmd));
                bSuccess = FALSE;
   43e10:	e03ff915 	stw	zero,-28(fp)
            }
        }            
        
        // check end-bits
        if (bSuccess && ((szResponse[5] & 0x01) != 0x01)){
   43e14:	e0bff917 	ldw	r2,-28(fp)
   43e18:	10000526 	beq	r2,zero,43e30 <SD_CMD8+0x174>
   43e1c:	e0bffc03 	ldbu	r2,-16(fp)
   43e20:	10803fcc 	andi	r2,r2,255
   43e24:	1080004c 	andi	r2,r2,1
   43e28:	1000011e 	bne	r2,zero,43e30 <SD_CMD8+0x174>
            SDCARD_DEBUG(("CMD%d Response: Invalid end-bits\r\n", Cmd));
            bSuccess = FALSE;
   43e2c:	e03ff915 	stw	zero,-28(fp)
        }
        
         
    }
    
    return bSuccess;
   43e30:	e0bff917 	ldw	r2,-28(fp)
    
}
   43e34:	e037883a 	mov	sp,fp
   43e38:	dfc00117 	ldw	ra,4(sp)
   43e3c:	df000017 	ldw	fp,0(sp)
   43e40:	dec00204 	addi	sp,sp,8
   43e44:	f800283a 	ret

00043e48 <SD_CMD55>:

bool SD_CMD55(alt_u16 RCA16, alt_u8 ExpectedState){
   43e48:	defff404 	addi	sp,sp,-48
   43e4c:	dfc00b15 	stw	ra,44(sp)
   43e50:	df000a15 	stw	fp,40(sp)
   43e54:	df000a04 	addi	fp,sp,40
   43e58:	2007883a 	mov	r3,r4
   43e5c:	2805883a 	mov	r2,r5
   43e60:	e0fffe0d 	sth	r3,-8(fp)
   43e64:	e0bfff05 	stb	r2,-4(fp)
    bool bSuccess;
    alt_u8 szResponse[6];
    const alt_u8 Cmd = 55;
   43e68:	00800dc4 	movi	r2,55
   43e6c:	e0bff705 	stb	r2,-36(fp)
    alt_u8 szCmd[6]  = {0x40,0x00,0x00,0x00,0x00, 0x00}, crc;
   43e70:	00801004 	movi	r2,64
   43e74:	e0bffbc5 	stb	r2,-17(fp)
   43e78:	e03ffc05 	stb	zero,-16(fp)
   43e7c:	e03ffc45 	stb	zero,-15(fp)
   43e80:	e03ffc85 	stb	zero,-14(fp)
   43e84:	e03ffcc5 	stb	zero,-13(fp)
   43e88:	e03ffd05 	stb	zero,-12(fp)

    SDCARD_TRACE(("CMD55\r\n"));

    // build packet    
    szCmd[0] |= Cmd;
   43e8c:	e0fffbc3 	ldbu	r3,-17(fp)
   43e90:	e0bff703 	ldbu	r2,-36(fp)
   43e94:	1884b03a 	or	r2,r3,r2
   43e98:	e0bffbc5 	stb	r2,-17(fp)
    szCmd[1] = RCA16 >> 8;
   43e9c:	e0bffe0b 	ldhu	r2,-8(fp)
   43ea0:	1004d23a 	srli	r2,r2,8
   43ea4:	e0bffc05 	stb	r2,-16(fp)
    szCmd[2] = RCA16 & 0xFF;
   43ea8:	e0bffe0b 	ldhu	r2,-8(fp)
   43eac:	e0bffc45 	stb	r2,-15(fp)
    crc = crc7(0, szCmd, 5);
   43eb0:	e0bffbc4 	addi	r2,fp,-17
   43eb4:	01800144 	movi	r6,5
   43eb8:	100b883a 	mov	r5,r2
   43ebc:	0009883a 	mov	r4,zero
   43ec0:	0042c280 	call	42c28 <crc7>
   43ec4:	e0bff745 	stb	r2,-35(fp)
    szCmd[5] = (crc << 1) | 0x01;
   43ec8:	e0bff743 	ldbu	r2,-35(fp)
   43ecc:	1085883a 	add	r2,r2,r2
   43ed0:	10800054 	ori	r2,r2,1
   43ed4:	e0bffd05 	stb	r2,-12(fp)
    
    SDHAL_SendCmd(szCmd, sizeof(szCmd));
   43ed8:	e0bffbc4 	addi	r2,fp,-17
   43edc:	01400184 	movi	r5,6
   43ee0:	1009883a 	mov	r4,r2
   43ee4:	0042d340 	call	42d34 <SDHAL_SendCmd>
  
    bSuccess = SDHAL_GetResponse(szResponse, sizeof(szResponse));
   43ee8:	e0bffa44 	addi	r2,fp,-23
   43eec:	01400184 	movi	r5,6
   43ef0:	1009883a 	mov	r4,r2
   43ef4:	0042e2c0 	call	42e2c <SDHAL_GetResponse>
   43ef8:	e0bff615 	stw	r2,-40(fp)
    
    // check response content
    if (bSuccess){
   43efc:	e0bff617 	ldw	r2,-40(fp)
   43f00:	10002b26 	beq	r2,zero,43fb0 <SD_CMD55+0x168>
        alt_u32 CardStatus, ExpectedStatus;  // define in 4.10
        // check command
        if (bSuccess && szResponse[0] != Cmd){
   43f04:	e0bff617 	ldw	r2,-40(fp)
   43f08:	10000526 	beq	r2,zero,43f20 <SD_CMD55+0xd8>
   43f0c:	e0bffa43 	ldbu	r2,-23(fp)
   43f10:	10c03fcc 	andi	r3,r2,255
   43f14:	e0bff703 	ldbu	r2,-36(fp)
   43f18:	18800126 	beq	r3,r2,43f20 <SD_CMD55+0xd8>
            SDCARD_DEBUG(("CMD%d Response: Invalid command index\r\n", Cmd));
            bSuccess = FALSE;
   43f1c:	e03ff615 	stw	zero,-40(fp)
        }
        
        // [1]~[4]: 32-bits card status
        CardStatus = ArrayToU32(&szResponse[1]);
   43f20:	e0bffa44 	addi	r2,fp,-23
   43f24:	10800044 	addi	r2,r2,1
   43f28:	1009883a 	mov	r4,r2
   43f2c:	00452140 	call	45214 <ArrayToU32>
   43f30:	e0bff815 	stw	r2,-32(fp)
        ExpectedStatus = SD_BIT_APP_CMD | SD_BIT_READY_FOR_DATA | SD_CURRENT_STATE_ENCODE(ExpectedState);
   43f34:	e0bfff03 	ldbu	r2,-4(fp)
   43f38:	108003cc 	andi	r2,r2,15
   43f3c:	1004927a 	slli	r2,r2,9
   43f40:	10804814 	ori	r2,r2,288
   43f44:	e0bff915 	stw	r2,-28(fp)
        if (CardStatus != ExpectedStatus){
   43f48:	e0fff817 	ldw	r3,-32(fp)
   43f4c:	e0bff917 	ldw	r2,-28(fp)
   43f50:	18800126 	beq	r3,r2,43f58 <SD_CMD55+0x110>
            SDCARD_DEBUG(("CMD%d Response: unexpected stauts\r\n", Cmd));
            bSuccess = FALSE;
   43f54:	e03ff615 	stw	zero,-40(fp)
        }
        
        // check crc
        if (bSuccess){
   43f58:	e0bff617 	ldw	r2,-40(fp)
   43f5c:	10000d26 	beq	r2,zero,43f94 <SD_CMD55+0x14c>
            alt_u8 crc;
            crc = crc7(0, szResponse, 5);
   43f60:	e0bffa44 	addi	r2,fp,-23
   43f64:	01800144 	movi	r6,5
   43f68:	100b883a 	mov	r5,r2
   43f6c:	0009883a 	mov	r4,zero
   43f70:	0042c280 	call	42c28 <crc7>
   43f74:	e0bffa05 	stb	r2,-24(fp)
            if (crc != (szResponse[5] >> 1)){
   43f78:	e0bffb83 	ldbu	r2,-18(fp)
   43f7c:	10803fcc 	andi	r2,r2,255
   43f80:	1004d07a 	srli	r2,r2,1
   43f84:	10c03fcc 	andi	r3,r2,255
   43f88:	e0bffa03 	ldbu	r2,-24(fp)
   43f8c:	18800126 	beq	r3,r2,43f94 <SD_CMD55+0x14c>
                SDCARD_DEBUG(("CMD%d Response: Invalid crc7\r\n", Cmd));
                bSuccess = FALSE;
   43f90:	e03ff615 	stw	zero,-40(fp)
            }
        }            
        
        // check end-bits
        if (bSuccess && ((szResponse[5] & 0x01) != 0x01)){
   43f94:	e0bff617 	ldw	r2,-40(fp)
   43f98:	10000526 	beq	r2,zero,43fb0 <SD_CMD55+0x168>
   43f9c:	e0bffb83 	ldbu	r2,-18(fp)
   43fa0:	10803fcc 	andi	r2,r2,255
   43fa4:	1080004c 	andi	r2,r2,1
   43fa8:	1000011e 	bne	r2,zero,43fb0 <SD_CMD55+0x168>
            SDCARD_DEBUG(("CMD%d Response: Invalid end-bits\r\n", Cmd));
            bSuccess = FALSE;
   43fac:	e03ff615 	stw	zero,-40(fp)
        }
          
    }
    
    return bSuccess;
   43fb0:	e0bff617 	ldw	r2,-40(fp)
    
}
   43fb4:	e037883a 	mov	sp,fp
   43fb8:	dfc00117 	ldw	ra,4(sp)
   43fbc:	df000017 	ldw	fp,0(sp)
   43fc0:	dec00204 	addi	sp,sp,8
   43fc4:	f800283a 	ret

00043fc8 <SD_ACMD41>:

// Response: R3
bool SD_ACMD41(alt_u32 HostOCR32, alt_u32 *pOCR32){
   43fc8:	defff504 	addi	sp,sp,-44
   43fcc:	dfc00a15 	stw	ra,40(sp)
   43fd0:	df000915 	stw	fp,36(sp)
   43fd4:	df000904 	addi	fp,sp,36
   43fd8:	e13ffe15 	stw	r4,-8(fp)
   43fdc:	e17fff15 	stw	r5,-4(fp)
    alt_u32 OCR;
    bool bSuccess;
    
    alt_u8 szResponse[6];  // Response: R1, see section 4.9.4 (OCR Register)
    const alt_u8 Cmd = 41;
   43fe0:	00800a44 	movi	r2,41
   43fe4:	e0bffa05 	stb	r2,-24(fp)
    //alt_u8 szCmd[6]  = {0x40,0x0f,0xf0,0x00,0x00, 0x00}, crc;
    //alt_u8 szCmd[6]  = {0x40,0x00,0xff,0x80,0x00, 0x00}, crc;  // 2.7~3.6V
    alt_u8 szCmd[6]  = {0x40,0x00,0x00,0x00,0x00, 0x00}, crc;  
   43fe8:	00801004 	movi	r2,64
   43fec:	e0bffc05 	stb	r2,-16(fp)
   43ff0:	e03ffc45 	stb	zero,-15(fp)
   43ff4:	e03ffc85 	stb	zero,-14(fp)
   43ff8:	e03ffcc5 	stb	zero,-13(fp)
   43ffc:	e03ffd05 	stb	zero,-12(fp)
   44000:	e03ffd45 	stb	zero,-11(fp)
    
    SDCARD_TRACE(("ACMD41\r\n"));
    // build packet    
    szCmd[0] |= Cmd;
   44004:	e0fffc03 	ldbu	r3,-16(fp)
   44008:	e0bffa03 	ldbu	r2,-24(fp)
   4400c:	1884b03a 	or	r2,r3,r2
   44010:	e0bffc05 	stb	r2,-16(fp)
    szCmd[1] |= (HostOCR32>> 24) & 0x40;
   44014:	e0bffc43 	ldbu	r2,-15(fp)
   44018:	e0fffe17 	ldw	r3,-8(fp)
   4401c:	1806d63a 	srli	r3,r3,24
   44020:	18c0100c 	andi	r3,r3,64
   44024:	10c4b03a 	or	r2,r2,r3
   44028:	e0bffc45 	stb	r2,-15(fp)
    szCmd[2] = (HostOCR32 >> 16) & 0xFF;
   4402c:	e0bffe17 	ldw	r2,-8(fp)
   44030:	1004d43a 	srli	r2,r2,16
   44034:	e0bffc85 	stb	r2,-14(fp)
    szCmd[3] = (HostOCR32 >> 8) & 0xFF;
   44038:	e0bffe17 	ldw	r2,-8(fp)
   4403c:	1004d23a 	srli	r2,r2,8
   44040:	e0bffcc5 	stb	r2,-13(fp)
    szCmd[4] = HostOCR32 & 0xFF;
   44044:	e0bffe17 	ldw	r2,-8(fp)
   44048:	e0bffd05 	stb	r2,-12(fp)
    /*szCmd[0] = 0x69;
    szCmd[1] = 0x40;
    szCmd[2] = 0xFF;
    szCmd[3] = 0x80;
    szCmd[4] = 0x00;*/
    crc = crc7(0, szCmd, 5);
   4404c:	e0bffc04 	addi	r2,fp,-16
   44050:	01800144 	movi	r6,5
   44054:	100b883a 	mov	r5,r2
   44058:	0009883a 	mov	r4,zero
   4405c:	0042c280 	call	42c28 <crc7>
   44060:	e0bffa45 	stb	r2,-23(fp)
    szCmd[5] = (crc << 1) | 0x01;
   44064:	e0bffa43 	ldbu	r2,-23(fp)
   44068:	1085883a 	add	r2,r2,r2
   4406c:	10800054 	ori	r2,r2,1
   44070:	e0bffd45 	stb	r2,-11(fp)
    
    SDHAL_SendCmd(szCmd, sizeof(szCmd));
   44074:	e0bffc04 	addi	r2,fp,-16
   44078:	01400184 	movi	r5,6
   4407c:	1009883a 	mov	r4,r2
   44080:	0042d340 	call	42d34 <SDHAL_SendCmd>
    
    bSuccess = SDHAL_GetResponse(szResponse, sizeof(szResponse));
   44084:	e0bffa84 	addi	r2,fp,-22
   44088:	01400184 	movi	r5,6
   4408c:	1009883a 	mov	r4,r2
   44090:	0042e2c0 	call	42e2c <SDHAL_GetResponse>
   44094:	e0bff815 	stw	r2,-32(fp)
    
    if (bSuccess){
   44098:	e0bff817 	ldw	r2,-32(fp)
   4409c:	10002626 	beq	r2,zero,44138 <SD_ACMD41+0x170>
        int i;
        // check command
        if (bSuccess && szResponse[0] != 0x3F){
   440a0:	e0bff817 	ldw	r2,-32(fp)
   440a4:	10000526 	beq	r2,zero,440bc <SD_ACMD41+0xf4>
   440a8:	e0bffa83 	ldbu	r2,-22(fp)
   440ac:	10803fcc 	andi	r2,r2,255
   440b0:	10800fe0 	cmpeqi	r2,r2,63
   440b4:	1000011e 	bne	r2,zero,440bc <SD_ACMD41+0xf4>
            SDCARD_DEBUG(("ACMD%d Response: Invalid reserved bits\r\n", Cmd));
            bSuccess = FALSE;
   440b8:	e03ff815 	stw	zero,-32(fp)
        }
        
        // [1]~[4]: 32-bits OCR (exampe: 0xFF8000)
        OCR = 0;
   440bc:	e03ff715 	stw	zero,-36(fp)
        for(i=0;i<4;i++){
   440c0:	e03ff915 	stw	zero,-28(fp)
   440c4:	00000f06 	br	44104 <SD_ACMD41+0x13c>
            OCR <<= 8;
   440c8:	e0bff717 	ldw	r2,-36(fp)
   440cc:	1004923a 	slli	r2,r2,8
   440d0:	e0bff715 	stw	r2,-36(fp)
            OCR |= szResponse[i+1];
   440d4:	e0bff917 	ldw	r2,-28(fp)
   440d8:	10800044 	addi	r2,r2,1
   440dc:	e0fffa84 	addi	r3,fp,-22
   440e0:	1885883a 	add	r2,r3,r2
   440e4:	10800003 	ldbu	r2,0(r2)
   440e8:	10803fcc 	andi	r2,r2,255
   440ec:	e0fff717 	ldw	r3,-36(fp)
   440f0:	1884b03a 	or	r2,r3,r2
   440f4:	e0bff715 	stw	r2,-36(fp)
            bSuccess = FALSE;
        }
        
        // [1]~[4]: 32-bits OCR (exampe: 0xFF8000)
        OCR = 0;
        for(i=0;i<4;i++){
   440f8:	e0bff917 	ldw	r2,-28(fp)
   440fc:	10800044 	addi	r2,r2,1
   44100:	e0bff915 	stw	r2,-28(fp)
   44104:	e0bff917 	ldw	r2,-28(fp)
   44108:	10800110 	cmplti	r2,r2,4
   4410c:	103fee1e 	bne	r2,zero,440c8 <_gp+0xffff1d5c>
            OCR <<= 8;
            OCR |= szResponse[i+1];
        }           
        
        //!!!!!!!!!! note. bit31(Card power up status bit) is LOW when the card is busy.
        if ((OCR & 0x80000000) != 0x80000000){
   44110:	e0bff717 	ldw	r2,-36(fp)
   44114:	10000116 	blt	r2,zero,4411c <SD_ACMD41+0x154>
            // busy
            SDCARD_DEBUG(("ACMD%d Response: card is busy\r\n", Cmd));
            bSuccess = FALSE;
   44118:	e03ff815 	stw	zero,-32(fp)
        } 
        
        // check reserved bits and end-bits
        if (bSuccess && (szResponse[5] != 0xFF)){
   4411c:	e0bff817 	ldw	r2,-32(fp)
   44120:	10000526 	beq	r2,zero,44138 <SD_ACMD41+0x170>
   44124:	e0bffbc3 	ldbu	r2,-17(fp)
   44128:	10803fcc 	andi	r2,r2,255
   4412c:	10803fe0 	cmpeqi	r2,r2,255
   44130:	1000011e 	bne	r2,zero,44138 <SD_ACMD41+0x170>
            SDCARD_DEBUG(("ACMD%d Response: Invalid reserved & end-bits\r\n", Cmd));
            bSuccess = FALSE;
   44134:	e03ff815 	stw	zero,-32(fp)
        }
          
    }      
    
   if (bSuccess)
   44138:	e0bff817 	ldw	r2,-32(fp)
   4413c:	10000326 	beq	r2,zero,4414c <SD_ACMD41+0x184>
      *pOCR32 = OCR;  
   44140:	e0bfff17 	ldw	r2,-4(fp)
   44144:	e0fff717 	ldw	r3,-36(fp)
   44148:	10c00015 	stw	r3,0(r2)

    return bSuccess;
   4414c:	e0bff817 	ldw	r2,-32(fp)
}
   44150:	e037883a 	mov	sp,fp
   44154:	dfc00117 	ldw	ra,4(sp)
   44158:	df000017 	ldw	fp,0(sp)
   4415c:	dec00204 	addi	sp,sp,8
   44160:	f800283a 	ret

00044164 <SD_CMD2>:

// function: Asks any card to send the CID numbers on the CMD line (4.7.4)
// response: 4.9.3 R2 (CMD2 & CMD10)
// CID(Card IDentification): 128 bits = 128/8 = 16 bytes
bool SD_CMD2(alt_u8 szCID[], int nBufLen){
   44164:	defff204 	addi	sp,sp,-56
   44168:	dfc00d15 	stw	ra,52(sp)
   4416c:	df000c15 	stw	fp,48(sp)
   44170:	df000c04 	addi	fp,sp,48
   44174:	e13ffe15 	stw	r4,-8(fp)
   44178:	e17fff15 	stw	r5,-4(fp)
    bool bSuccess;
    alt_u8 szResponse[17];  // 136/8 = 17
    const alt_u8 Cmd = 2;
   4417c:	00800084 	movi	r2,2
   44180:	e0bff705 	stb	r2,-36(fp)
    alt_u8 szCmd[6]  = {0x40,0x00,0x00,0x00,0x00, 0x00}, crc;
   44184:	00801004 	movi	r2,64
   44188:	e0bffc05 	stb	r2,-16(fp)
   4418c:	e03ffc45 	stb	zero,-15(fp)
   44190:	e03ffc85 	stb	zero,-14(fp)
   44194:	e03ffcc5 	stb	zero,-13(fp)
   44198:	e03ffd05 	stb	zero,-12(fp)
   4419c:	e03ffd45 	stb	zero,-11(fp)

    SDCARD_TRACE(("CMD2\r\n"));
    // build packet    
    szCmd[0] |= Cmd;
   441a0:	e0fffc03 	ldbu	r3,-16(fp)
   441a4:	e0bff703 	ldbu	r2,-36(fp)
   441a8:	1884b03a 	or	r2,r3,r2
   441ac:	e0bffc05 	stb	r2,-16(fp)
    crc = crc7(0, szCmd, 5);
   441b0:	e0bffc04 	addi	r2,fp,-16
   441b4:	01800144 	movi	r6,5
   441b8:	100b883a 	mov	r5,r2
   441bc:	0009883a 	mov	r4,zero
   441c0:	0042c280 	call	42c28 <crc7>
   441c4:	e0bff745 	stb	r2,-35(fp)
    szCmd[5] = (crc << 1) | 0x01;
   441c8:	e0bff743 	ldbu	r2,-35(fp)
   441cc:	1085883a 	add	r2,r2,r2
   441d0:	10800054 	ori	r2,r2,1
   441d4:	e0bffd45 	stb	r2,-11(fp)
    
    //
 //   sd_Ncc();
    //for(x=0;x<40;x++)
    //    sd_Ncr();
